	.text
	.file	"../src/_Aquarium_1_x.xc"

	.inline_definition delay_seconds
	.inline_definition delay_milliseconds
	.inline_definition delay_microseconds
	.weak _i.lib_startkit_adc_commands_if.trigger.maxchanends.group
	.max_reduce _i.lib_startkit_adc_commands_if.trigger.max.maxchanends, _i.lib_startkit_adc_commands_if.trigger.maxchanends.group, 0
	.weak _i.lib_startkit_adc_commands_if.trigger.maxcores.group
	.max_reduce _i.lib_startkit_adc_commands_if.trigger.max.maxcores, _i.lib_startkit_adc_commands_if.trigger.maxcores.group, 0
	.weak _i.lib_startkit_adc_commands_if.trigger.maxtimers.group
	.max_reduce _i.lib_startkit_adc_commands_if.trigger.max.maxtimers, _i.lib_startkit_adc_commands_if.trigger.maxtimers.group, 0
	.weak _i.lib_startkit_adc_commands_if.trigger.nstackwords.group
	.globl _i.lib_startkit_adc_commands_if.trigger.nstackwords.group
	.weak _i.lib_startkit_adc_commands_if.trigger.fns.group
	.globl _i.lib_startkit_adc_commands_if.trigger.fns.group
	.max_reduce _i.lib_startkit_adc_commands_if.trigger.max.nstackwords, _i.lib_startkit_adc_commands_if.trigger.nstackwords.group, 0
	.max_reduce _i.lib_startkit_adc_commands_if.trigger.fns, _i.lib_startkit_adc_commands_if.trigger.fns.group, 0
	.weak _i.lib_startkit_adc_commands_if.read.maxchanends.group
	.max_reduce _i.lib_startkit_adc_commands_if.read.max.maxchanends, _i.lib_startkit_adc_commands_if.read.maxchanends.group, 0
	.weak _i.lib_startkit_adc_commands_if.read.maxcores.group
	.max_reduce _i.lib_startkit_adc_commands_if.read.max.maxcores, _i.lib_startkit_adc_commands_if.read.maxcores.group, 0
	.weak _i.lib_startkit_adc_commands_if.read.maxtimers.group
	.max_reduce _i.lib_startkit_adc_commands_if.read.max.maxtimers, _i.lib_startkit_adc_commands_if.read.maxtimers.group, 0
	.weak _i.lib_startkit_adc_commands_if.read.nstackwords.group
	.globl _i.lib_startkit_adc_commands_if.read.nstackwords.group
	.weak _i.lib_startkit_adc_commands_if.read.fns.group
	.globl _i.lib_startkit_adc_commands_if.read.fns.group
	.max_reduce _i.lib_startkit_adc_commands_if.read.max.nstackwords, _i.lib_startkit_adc_commands_if.read.nstackwords.group, 0
	.max_reduce _i.lib_startkit_adc_commands_if.read.fns, _i.lib_startkit_adc_commands_if.read.fns.group, 0
	.weak _i.lib_startkit_adc_commands_if.__interface_init.maxchanends.group
	.max_reduce _i.lib_startkit_adc_commands_if.__interface_init.max.maxchanends, _i.lib_startkit_adc_commands_if.__interface_init.maxchanends.group, 0
	.weak _i.lib_startkit_adc_commands_if.__interface_init.maxcores.group
	.max_reduce _i.lib_startkit_adc_commands_if.__interface_init.max.maxcores, _i.lib_startkit_adc_commands_if.__interface_init.maxcores.group, 0
	.weak _i.lib_startkit_adc_commands_if.__interface_init.maxtimers.group
	.max_reduce _i.lib_startkit_adc_commands_if.__interface_init.max.maxtimers, _i.lib_startkit_adc_commands_if.__interface_init.maxtimers.group, 0
	.weak _i.lib_startkit_adc_commands_if.__interface_init.nstackwords.group
	.globl _i.lib_startkit_adc_commands_if.__interface_init.nstackwords.group
	.weak _i.lib_startkit_adc_commands_if.__interface_init.fns.group
	.globl _i.lib_startkit_adc_commands_if.__interface_init.fns.group
	.max_reduce _i.lib_startkit_adc_commands_if.__interface_init.max.nstackwords, _i.lib_startkit_adc_commands_if.__interface_init.nstackwords.group, 0
	.max_reduce _i.lib_startkit_adc_commands_if.__interface_init.fns, _i.lib_startkit_adc_commands_if.__interface_init.fns.group, 0
	.weak _i.lib_startkit_adc_commands_if._client_call_y.maxchanends.group
	.add_to_set _i.lib_startkit_adc_commands_if._client_call_y.maxchanends.group, (__interface_client_call_y_other.maxchanends + __interface_client_call_y_extra.maxchanends), __interface_client_call_y_other
	.max_reduce _i.lib_startkit_adc_commands_if._client_call_y.max.maxchanends, _i.lib_startkit_adc_commands_if._client_call_y.maxchanends.group, 0
	.weak _i.lib_startkit_adc_commands_if._client_call_y.maxcores.group
	.add_to_set _i.lib_startkit_adc_commands_if._client_call_y.maxcores.group, (__interface_client_call_y_other.maxcores + __interface_client_call_y_extra.maxcores), __interface_client_call_y_other
	.max_reduce _i.lib_startkit_adc_commands_if._client_call_y.max.maxcores, _i.lib_startkit_adc_commands_if._client_call_y.maxcores.group, 0
	.weak _i.lib_startkit_adc_commands_if._client_call_y.maxtimers.group
	.add_to_set _i.lib_startkit_adc_commands_if._client_call_y.maxtimers.group, (__interface_client_call_y_other.maxtimers + __interface_client_call_y_extra.maxtimers), __interface_client_call_y_other
	.max_reduce _i.lib_startkit_adc_commands_if._client_call_y.max.maxtimers, _i.lib_startkit_adc_commands_if._client_call_y.maxtimers.group, 0
	.weak _i.lib_startkit_adc_commands_if._client_call_y.nstackwords.group
	.globl _i.lib_startkit_adc_commands_if._client_call_y.nstackwords.group
	.weak _i.lib_startkit_adc_commands_if._client_call_y.fns.group
	.globl _i.lib_startkit_adc_commands_if._client_call_y.fns.group
	.add_to_set _i.lib_startkit_adc_commands_if._client_call_y.nstackwords.group, (__interface_client_call_y_other.nstackwords + __interface_client_call_y_extra.nstackwords), __interface_client_call_y_other
	.add_to_set _i.lib_startkit_adc_commands_if._client_call_y.fns.group, __interface_client_call_y_other
	.max_reduce _i.lib_startkit_adc_commands_if._client_call_y.max.nstackwords, _i.lib_startkit_adc_commands_if._client_call_y.nstackwords.group, 0
	.max_reduce _i.lib_startkit_adc_commands_if._client_call_y.fns, _i.lib_startkit_adc_commands_if._client_call_y.fns.group, 0
	.weak _i.temperature_water_commands_if.get_temp_degC_string_filtered.maxchanends.group
	.max_reduce _i.temperature_water_commands_if.get_temp_degC_string_filtered.max.maxchanends, _i.temperature_water_commands_if.get_temp_degC_string_filtered.maxchanends.group, 0
	.weak _i.temperature_water_commands_if.get_temp_degC_string_filtered.maxcores.group
	.max_reduce _i.temperature_water_commands_if.get_temp_degC_string_filtered.max.maxcores, _i.temperature_water_commands_if.get_temp_degC_string_filtered.maxcores.group, 0
	.weak _i.temperature_water_commands_if.get_temp_degC_string_filtered.maxtimers.group
	.max_reduce _i.temperature_water_commands_if.get_temp_degC_string_filtered.max.maxtimers, _i.temperature_water_commands_if.get_temp_degC_string_filtered.maxtimers.group, 0
	.weak _i.temperature_water_commands_if.get_temp_degC_string_filtered.nstackwords.group
	.globl _i.temperature_water_commands_if.get_temp_degC_string_filtered.nstackwords.group
	.weak _i.temperature_water_commands_if.get_temp_degC_string_filtered.fns.group
	.globl _i.temperature_water_commands_if.get_temp_degC_string_filtered.fns.group
	.max_reduce _i.temperature_water_commands_if.get_temp_degC_string_filtered.max.nstackwords, _i.temperature_water_commands_if.get_temp_degC_string_filtered.nstackwords.group, 0
	.max_reduce _i.temperature_water_commands_if.get_temp_degC_string_filtered.fns, _i.temperature_water_commands_if.get_temp_degC_string_filtered.fns.group, 0
	.weak _i.temperature_water_commands_if.get_now_regulating_at.maxchanends.group
	.max_reduce _i.temperature_water_commands_if.get_now_regulating_at.max.maxchanends, _i.temperature_water_commands_if.get_now_regulating_at.maxchanends.group, 0
	.weak _i.temperature_water_commands_if.get_now_regulating_at.maxcores.group
	.max_reduce _i.temperature_water_commands_if.get_now_regulating_at.max.maxcores, _i.temperature_water_commands_if.get_now_regulating_at.maxcores.group, 0
	.weak _i.temperature_water_commands_if.get_now_regulating_at.maxtimers.group
	.max_reduce _i.temperature_water_commands_if.get_now_regulating_at.max.maxtimers, _i.temperature_water_commands_if.get_now_regulating_at.maxtimers.group, 0
	.weak _i.temperature_water_commands_if.get_now_regulating_at.nstackwords.group
	.globl _i.temperature_water_commands_if.get_now_regulating_at.nstackwords.group
	.weak _i.temperature_water_commands_if.get_now_regulating_at.fns.group
	.globl _i.temperature_water_commands_if.get_now_regulating_at.fns.group
	.max_reduce _i.temperature_water_commands_if.get_now_regulating_at.max.nstackwords, _i.temperature_water_commands_if.get_now_regulating_at.nstackwords.group, 0
	.max_reduce _i.temperature_water_commands_if.get_now_regulating_at.fns, _i.temperature_water_commands_if.get_now_regulating_at.fns.group, 0
	.weak _i.temperature_water_commands_if.__interface_init.maxchanends.group
	.max_reduce _i.temperature_water_commands_if.__interface_init.max.maxchanends, _i.temperature_water_commands_if.__interface_init.maxchanends.group, 0
	.weak _i.temperature_water_commands_if.__interface_init.maxcores.group
	.max_reduce _i.temperature_water_commands_if.__interface_init.max.maxcores, _i.temperature_water_commands_if.__interface_init.maxcores.group, 0
	.weak _i.temperature_water_commands_if.__interface_init.maxtimers.group
	.max_reduce _i.temperature_water_commands_if.__interface_init.max.maxtimers, _i.temperature_water_commands_if.__interface_init.maxtimers.group, 0
	.weak _i.temperature_water_commands_if.__interface_init.nstackwords.group
	.globl _i.temperature_water_commands_if.__interface_init.nstackwords.group
	.weak _i.temperature_water_commands_if.__interface_init.fns.group
	.globl _i.temperature_water_commands_if.__interface_init.fns.group
	.max_reduce _i.temperature_water_commands_if.__interface_init.max.nstackwords, _i.temperature_water_commands_if.__interface_init.nstackwords.group, 0
	.max_reduce _i.temperature_water_commands_if.__interface_init.fns, _i.temperature_water_commands_if.__interface_init.fns.group, 0
	.weak _i.temperature_water_commands_if._client_call_y.maxchanends.group
	.add_to_set _i.temperature_water_commands_if._client_call_y.maxchanends.group, (__interface_client_call_y_other.maxchanends + __interface_client_call_y_extra.maxchanends), __interface_client_call_y_other
	.max_reduce _i.temperature_water_commands_if._client_call_y.max.maxchanends, _i.temperature_water_commands_if._client_call_y.maxchanends.group, 0
	.weak _i.temperature_water_commands_if._client_call_y.maxcores.group
	.add_to_set _i.temperature_water_commands_if._client_call_y.maxcores.group, (__interface_client_call_y_other.maxcores + __interface_client_call_y_extra.maxcores), __interface_client_call_y_other
	.max_reduce _i.temperature_water_commands_if._client_call_y.max.maxcores, _i.temperature_water_commands_if._client_call_y.maxcores.group, 0
	.weak _i.temperature_water_commands_if._client_call_y.maxtimers.group
	.add_to_set _i.temperature_water_commands_if._client_call_y.maxtimers.group, (__interface_client_call_y_other.maxtimers + __interface_client_call_y_extra.maxtimers), __interface_client_call_y_other
	.max_reduce _i.temperature_water_commands_if._client_call_y.max.maxtimers, _i.temperature_water_commands_if._client_call_y.maxtimers.group, 0
	.weak _i.temperature_water_commands_if._client_call_y.nstackwords.group
	.globl _i.temperature_water_commands_if._client_call_y.nstackwords.group
	.weak _i.temperature_water_commands_if._client_call_y.fns.group
	.globl _i.temperature_water_commands_if._client_call_y.fns.group
	.add_to_set _i.temperature_water_commands_if._client_call_y.nstackwords.group, (__interface_client_call_y_other.nstackwords + __interface_client_call_y_extra.nstackwords), __interface_client_call_y_other
	.add_to_set _i.temperature_water_commands_if._client_call_y.fns.group, __interface_client_call_y_other
	.max_reduce _i.temperature_water_commands_if._client_call_y.max.nstackwords, _i.temperature_water_commands_if._client_call_y.nstackwords.group, 0
	.max_reduce _i.temperature_water_commands_if._client_call_y.fns, _i.temperature_water_commands_if._client_call_y.fns.group, 0
	.weak _i.temperature_heater_commands_if.heater_set_proportional.maxchanends.group
	.max_reduce _i.temperature_heater_commands_if.heater_set_proportional.max.maxchanends, _i.temperature_heater_commands_if.heater_set_proportional.maxchanends.group, 0
	.weak _i.temperature_heater_commands_if.heater_set_proportional.maxcores.group
	.max_reduce _i.temperature_heater_commands_if.heater_set_proportional.max.maxcores, _i.temperature_heater_commands_if.heater_set_proportional.maxcores.group, 0
	.weak _i.temperature_heater_commands_if.heater_set_proportional.maxtimers.group
	.max_reduce _i.temperature_heater_commands_if.heater_set_proportional.max.maxtimers, _i.temperature_heater_commands_if.heater_set_proportional.maxtimers.group, 0
	.weak _i.temperature_heater_commands_if.heater_set_proportional.nstackwords.group
	.globl _i.temperature_heater_commands_if.heater_set_proportional.nstackwords.group
	.weak _i.temperature_heater_commands_if.heater_set_proportional.fns.group
	.globl _i.temperature_heater_commands_if.heater_set_proportional.fns.group
	.max_reduce _i.temperature_heater_commands_if.heater_set_proportional.max.nstackwords, _i.temperature_heater_commands_if.heater_set_proportional.nstackwords.group, 0
	.max_reduce _i.temperature_heater_commands_if.heater_set_proportional.fns, _i.temperature_heater_commands_if.heater_set_proportional.fns.group, 0
	.weak _i.temperature_heater_commands_if.heater_set_temp_degC.maxchanends.group
	.max_reduce _i.temperature_heater_commands_if.heater_set_temp_degC.max.maxchanends, _i.temperature_heater_commands_if.heater_set_temp_degC.maxchanends.group, 0
	.weak _i.temperature_heater_commands_if.heater_set_temp_degC.maxcores.group
	.max_reduce _i.temperature_heater_commands_if.heater_set_temp_degC.max.maxcores, _i.temperature_heater_commands_if.heater_set_temp_degC.maxcores.group, 0
	.weak _i.temperature_heater_commands_if.heater_set_temp_degC.maxtimers.group
	.max_reduce _i.temperature_heater_commands_if.heater_set_temp_degC.max.maxtimers, _i.temperature_heater_commands_if.heater_set_temp_degC.maxtimers.group, 0
	.weak _i.temperature_heater_commands_if.heater_set_temp_degC.nstackwords.group
	.globl _i.temperature_heater_commands_if.heater_set_temp_degC.nstackwords.group
	.weak _i.temperature_heater_commands_if.heater_set_temp_degC.fns.group
	.globl _i.temperature_heater_commands_if.heater_set_temp_degC.fns.group
	.max_reduce _i.temperature_heater_commands_if.heater_set_temp_degC.max.nstackwords, _i.temperature_heater_commands_if.heater_set_temp_degC.nstackwords.group, 0
	.max_reduce _i.temperature_heater_commands_if.heater_set_temp_degC.fns, _i.temperature_heater_commands_if.heater_set_temp_degC.fns.group, 0
	.weak _i.temperature_heater_commands_if.get_temps.maxchanends.group
	.max_reduce _i.temperature_heater_commands_if.get_temps.max.maxchanends, _i.temperature_heater_commands_if.get_temps.maxchanends.group, 0
	.weak _i.temperature_heater_commands_if.get_temps.maxcores.group
	.max_reduce _i.temperature_heater_commands_if.get_temps.max.maxcores, _i.temperature_heater_commands_if.get_temps.maxcores.group, 0
	.weak _i.temperature_heater_commands_if.get_temps.maxtimers.group
	.max_reduce _i.temperature_heater_commands_if.get_temps.max.maxtimers, _i.temperature_heater_commands_if.get_temps.maxtimers.group, 0
	.weak _i.temperature_heater_commands_if.get_temps.nstackwords.group
	.globl _i.temperature_heater_commands_if.get_temps.nstackwords.group
	.weak _i.temperature_heater_commands_if.get_temps.fns.group
	.globl _i.temperature_heater_commands_if.get_temps.fns.group
	.max_reduce _i.temperature_heater_commands_if.get_temps.max.nstackwords, _i.temperature_heater_commands_if.get_temps.nstackwords.group, 0
	.max_reduce _i.temperature_heater_commands_if.get_temps.fns, _i.temperature_heater_commands_if.get_temps.fns.group, 0
	.weak _i.temperature_heater_commands_if.get_temp_degC_string.maxchanends.group
	.max_reduce _i.temperature_heater_commands_if.get_temp_degC_string.max.maxchanends, _i.temperature_heater_commands_if.get_temp_degC_string.maxchanends.group, 0
	.weak _i.temperature_heater_commands_if.get_temp_degC_string.maxcores.group
	.max_reduce _i.temperature_heater_commands_if.get_temp_degC_string.max.maxcores, _i.temperature_heater_commands_if.get_temp_degC_string.maxcores.group, 0
	.weak _i.temperature_heater_commands_if.get_temp_degC_string.maxtimers.group
	.max_reduce _i.temperature_heater_commands_if.get_temp_degC_string.max.maxtimers, _i.temperature_heater_commands_if.get_temp_degC_string.maxtimers.group, 0
	.weak _i.temperature_heater_commands_if.get_temp_degC_string.nstackwords.group
	.globl _i.temperature_heater_commands_if.get_temp_degC_string.nstackwords.group
	.weak _i.temperature_heater_commands_if.get_temp_degC_string.fns.group
	.globl _i.temperature_heater_commands_if.get_temp_degC_string.fns.group
	.max_reduce _i.temperature_heater_commands_if.get_temp_degC_string.max.nstackwords, _i.temperature_heater_commands_if.get_temp_degC_string.nstackwords.group, 0
	.max_reduce _i.temperature_heater_commands_if.get_temp_degC_string.fns, _i.temperature_heater_commands_if.get_temp_degC_string.fns.group, 0
	.weak _i.temperature_heater_commands_if.get_regulator_data.maxchanends.group
	.max_reduce _i.temperature_heater_commands_if.get_regulator_data.max.maxchanends, _i.temperature_heater_commands_if.get_regulator_data.maxchanends.group, 0
	.weak _i.temperature_heater_commands_if.get_regulator_data.maxcores.group
	.max_reduce _i.temperature_heater_commands_if.get_regulator_data.max.maxcores, _i.temperature_heater_commands_if.get_regulator_data.maxcores.group, 0
	.weak _i.temperature_heater_commands_if.get_regulator_data.maxtimers.group
	.max_reduce _i.temperature_heater_commands_if.get_regulator_data.max.maxtimers, _i.temperature_heater_commands_if.get_regulator_data.maxtimers.group, 0
	.weak _i.temperature_heater_commands_if.get_regulator_data.nstackwords.group
	.globl _i.temperature_heater_commands_if.get_regulator_data.nstackwords.group
	.weak _i.temperature_heater_commands_if.get_regulator_data.fns.group
	.globl _i.temperature_heater_commands_if.get_regulator_data.fns.group
	.max_reduce _i.temperature_heater_commands_if.get_regulator_data.max.nstackwords, _i.temperature_heater_commands_if.get_regulator_data.nstackwords.group, 0
	.max_reduce _i.temperature_heater_commands_if.get_regulator_data.fns, _i.temperature_heater_commands_if.get_regulator_data.fns.group, 0
	.weak _i.temperature_heater_commands_if.__interface_init.maxchanends.group
	.max_reduce _i.temperature_heater_commands_if.__interface_init.max.maxchanends, _i.temperature_heater_commands_if.__interface_init.maxchanends.group, 0
	.weak _i.temperature_heater_commands_if.__interface_init.maxcores.group
	.max_reduce _i.temperature_heater_commands_if.__interface_init.max.maxcores, _i.temperature_heater_commands_if.__interface_init.maxcores.group, 0
	.weak _i.temperature_heater_commands_if.__interface_init.maxtimers.group
	.max_reduce _i.temperature_heater_commands_if.__interface_init.max.maxtimers, _i.temperature_heater_commands_if.__interface_init.maxtimers.group, 0
	.weak _i.temperature_heater_commands_if.__interface_init.nstackwords.group
	.globl _i.temperature_heater_commands_if.__interface_init.nstackwords.group
	.weak _i.temperature_heater_commands_if.__interface_init.fns.group
	.globl _i.temperature_heater_commands_if.__interface_init.fns.group
	.max_reduce _i.temperature_heater_commands_if.__interface_init.max.nstackwords, _i.temperature_heater_commands_if.__interface_init.nstackwords.group, 0
	.max_reduce _i.temperature_heater_commands_if.__interface_init.fns, _i.temperature_heater_commands_if.__interface_init.fns.group, 0
	.weak _i.temperature_heater_commands_if._client_call_y.maxchanends.group
	.add_to_set _i.temperature_heater_commands_if._client_call_y.maxchanends.group, (__interface_client_call_y_other.maxchanends + __interface_client_call_y_extra.maxchanends), __interface_client_call_y_other
	.max_reduce _i.temperature_heater_commands_if._client_call_y.max.maxchanends, _i.temperature_heater_commands_if._client_call_y.maxchanends.group, 0
	.weak _i.temperature_heater_commands_if._client_call_y.maxcores.group
	.add_to_set _i.temperature_heater_commands_if._client_call_y.maxcores.group, (__interface_client_call_y_other.maxcores + __interface_client_call_y_extra.maxcores), __interface_client_call_y_other
	.max_reduce _i.temperature_heater_commands_if._client_call_y.max.maxcores, _i.temperature_heater_commands_if._client_call_y.maxcores.group, 0
	.weak _i.temperature_heater_commands_if._client_call_y.maxtimers.group
	.add_to_set _i.temperature_heater_commands_if._client_call_y.maxtimers.group, (__interface_client_call_y_other.maxtimers + __interface_client_call_y_extra.maxtimers), __interface_client_call_y_other
	.max_reduce _i.temperature_heater_commands_if._client_call_y.max.maxtimers, _i.temperature_heater_commands_if._client_call_y.maxtimers.group, 0
	.weak _i.temperature_heater_commands_if._client_call_y.nstackwords.group
	.globl _i.temperature_heater_commands_if._client_call_y.nstackwords.group
	.weak _i.temperature_heater_commands_if._client_call_y.fns.group
	.globl _i.temperature_heater_commands_if._client_call_y.fns.group
	.add_to_set _i.temperature_heater_commands_if._client_call_y.nstackwords.group, (__interface_client_call_y_other.nstackwords + __interface_client_call_y_extra.nstackwords), __interface_client_call_y_other
	.add_to_set _i.temperature_heater_commands_if._client_call_y.fns.group, __interface_client_call_y_other
	.max_reduce _i.temperature_heater_commands_if._client_call_y.max.nstackwords, _i.temperature_heater_commands_if._client_call_y.nstackwords.group, 0
	.max_reduce _i.temperature_heater_commands_if._client_call_y.fns, _i.temperature_heater_commands_if._client_call_y.fns.group, 0
	.weak _i.port_heat_light_commands_if.get_light_composition.maxchanends.group
	.max_reduce _i.port_heat_light_commands_if.get_light_composition.max.maxchanends, _i.port_heat_light_commands_if.get_light_composition.maxchanends.group, 0
	.weak _i.port_heat_light_commands_if.get_light_composition.maxcores.group
	.max_reduce _i.port_heat_light_commands_if.get_light_composition.max.maxcores, _i.port_heat_light_commands_if.get_light_composition.maxcores.group, 0
	.weak _i.port_heat_light_commands_if.get_light_composition.maxtimers.group
	.max_reduce _i.port_heat_light_commands_if.get_light_composition.max.maxtimers, _i.port_heat_light_commands_if.get_light_composition.maxtimers.group, 0
	.weak _i.port_heat_light_commands_if.get_light_composition.nstackwords.group
	.globl _i.port_heat_light_commands_if.get_light_composition.nstackwords.group
	.weak _i.port_heat_light_commands_if.get_light_composition.fns.group
	.globl _i.port_heat_light_commands_if.get_light_composition.fns.group
	.max_reduce _i.port_heat_light_commands_if.get_light_composition.max.nstackwords, _i.port_heat_light_commands_if.get_light_composition.nstackwords.group, 0
	.max_reduce _i.port_heat_light_commands_if.get_light_composition.fns, _i.port_heat_light_commands_if.get_light_composition.fns.group, 0
	.weak _i.port_heat_light_commands_if.get_light_composition_etc.maxchanends.group
	.max_reduce _i.port_heat_light_commands_if.get_light_composition_etc.max.maxchanends, _i.port_heat_light_commands_if.get_light_composition_etc.maxchanends.group, 0
	.weak _i.port_heat_light_commands_if.get_light_composition_etc.maxcores.group
	.max_reduce _i.port_heat_light_commands_if.get_light_composition_etc.max.maxcores, _i.port_heat_light_commands_if.get_light_composition_etc.maxcores.group, 0
	.weak _i.port_heat_light_commands_if.get_light_composition_etc.maxtimers.group
	.max_reduce _i.port_heat_light_commands_if.get_light_composition_etc.max.maxtimers, _i.port_heat_light_commands_if.get_light_composition_etc.maxtimers.group, 0
	.weak _i.port_heat_light_commands_if.get_light_composition_etc.nstackwords.group
	.globl _i.port_heat_light_commands_if.get_light_composition_etc.nstackwords.group
	.weak _i.port_heat_light_commands_if.get_light_composition_etc.fns.group
	.globl _i.port_heat_light_commands_if.get_light_composition_etc.fns.group
	.max_reduce _i.port_heat_light_commands_if.get_light_composition_etc.max.nstackwords, _i.port_heat_light_commands_if.get_light_composition_etc.nstackwords.group, 0
	.max_reduce _i.port_heat_light_commands_if.get_light_composition_etc.fns, _i.port_heat_light_commands_if.get_light_composition_etc.fns.group, 0
	.weak _i.port_heat_light_commands_if.set_light_composition.maxchanends.group
	.max_reduce _i.port_heat_light_commands_if.set_light_composition.max.maxchanends, _i.port_heat_light_commands_if.set_light_composition.maxchanends.group, 0
	.weak _i.port_heat_light_commands_if.set_light_composition.maxcores.group
	.max_reduce _i.port_heat_light_commands_if.set_light_composition.max.maxcores, _i.port_heat_light_commands_if.set_light_composition.maxcores.group, 0
	.weak _i.port_heat_light_commands_if.set_light_composition.maxtimers.group
	.max_reduce _i.port_heat_light_commands_if.set_light_composition.max.maxtimers, _i.port_heat_light_commands_if.set_light_composition.maxtimers.group, 0
	.weak _i.port_heat_light_commands_if.set_light_composition.nstackwords.group
	.globl _i.port_heat_light_commands_if.set_light_composition.nstackwords.group
	.weak _i.port_heat_light_commands_if.set_light_composition.fns.group
	.globl _i.port_heat_light_commands_if.set_light_composition.fns.group
	.max_reduce _i.port_heat_light_commands_if.set_light_composition.max.nstackwords, _i.port_heat_light_commands_if.set_light_composition.nstackwords.group, 0
	.max_reduce _i.port_heat_light_commands_if.set_light_composition.fns, _i.port_heat_light_commands_if.set_light_composition.fns.group, 0
	.weak _i.port_heat_light_commands_if.beeper_on_command.maxchanends.group
	.max_reduce _i.port_heat_light_commands_if.beeper_on_command.max.maxchanends, _i.port_heat_light_commands_if.beeper_on_command.maxchanends.group, 0
	.weak _i.port_heat_light_commands_if.beeper_on_command.maxcores.group
	.max_reduce _i.port_heat_light_commands_if.beeper_on_command.max.maxcores, _i.port_heat_light_commands_if.beeper_on_command.maxcores.group, 0
	.weak _i.port_heat_light_commands_if.beeper_on_command.maxtimers.group
	.max_reduce _i.port_heat_light_commands_if.beeper_on_command.max.maxtimers, _i.port_heat_light_commands_if.beeper_on_command.maxtimers.group, 0
	.weak _i.port_heat_light_commands_if.beeper_on_command.nstackwords.group
	.globl _i.port_heat_light_commands_if.beeper_on_command.nstackwords.group
	.weak _i.port_heat_light_commands_if.beeper_on_command.fns.group
	.globl _i.port_heat_light_commands_if.beeper_on_command.fns.group
	.max_reduce _i.port_heat_light_commands_if.beeper_on_command.max.nstackwords, _i.port_heat_light_commands_if.beeper_on_command.nstackwords.group, 0
	.max_reduce _i.port_heat_light_commands_if.beeper_on_command.fns, _i.port_heat_light_commands_if.beeper_on_command.fns.group, 0
	.weak _i.port_heat_light_commands_if.beeper_blip_command.maxchanends.group
	.max_reduce _i.port_heat_light_commands_if.beeper_blip_command.max.maxchanends, _i.port_heat_light_commands_if.beeper_blip_command.maxchanends.group, 0
	.weak _i.port_heat_light_commands_if.beeper_blip_command.maxcores.group
	.max_reduce _i.port_heat_light_commands_if.beeper_blip_command.max.maxcores, _i.port_heat_light_commands_if.beeper_blip_command.maxcores.group, 0
	.weak _i.port_heat_light_commands_if.beeper_blip_command.maxtimers.group
	.max_reduce _i.port_heat_light_commands_if.beeper_blip_command.max.maxtimers, _i.port_heat_light_commands_if.beeper_blip_command.maxtimers.group, 0
	.weak _i.port_heat_light_commands_if.beeper_blip_command.nstackwords.group
	.globl _i.port_heat_light_commands_if.beeper_blip_command.nstackwords.group
	.weak _i.port_heat_light_commands_if.beeper_blip_command.fns.group
	.globl _i.port_heat_light_commands_if.beeper_blip_command.fns.group
	.max_reduce _i.port_heat_light_commands_if.beeper_blip_command.max.nstackwords, _i.port_heat_light_commands_if.beeper_blip_command.nstackwords.group, 0
	.max_reduce _i.port_heat_light_commands_if.beeper_blip_command.fns, _i.port_heat_light_commands_if.beeper_blip_command.fns.group, 0
	.weak _i.port_heat_light_commands_if.heat_cables_command.maxchanends.group
	.max_reduce _i.port_heat_light_commands_if.heat_cables_command.max.maxchanends, _i.port_heat_light_commands_if.heat_cables_command.maxchanends.group, 0
	.weak _i.port_heat_light_commands_if.heat_cables_command.maxcores.group
	.max_reduce _i.port_heat_light_commands_if.heat_cables_command.max.maxcores, _i.port_heat_light_commands_if.heat_cables_command.maxcores.group, 0
	.weak _i.port_heat_light_commands_if.heat_cables_command.maxtimers.group
	.max_reduce _i.port_heat_light_commands_if.heat_cables_command.max.maxtimers, _i.port_heat_light_commands_if.heat_cables_command.maxtimers.group, 0
	.weak _i.port_heat_light_commands_if.heat_cables_command.nstackwords.group
	.globl _i.port_heat_light_commands_if.heat_cables_command.nstackwords.group
	.weak _i.port_heat_light_commands_if.heat_cables_command.fns.group
	.globl _i.port_heat_light_commands_if.heat_cables_command.fns.group
	.max_reduce _i.port_heat_light_commands_if.heat_cables_command.max.nstackwords, _i.port_heat_light_commands_if.heat_cables_command.nstackwords.group, 0
	.max_reduce _i.port_heat_light_commands_if.heat_cables_command.fns, _i.port_heat_light_commands_if.heat_cables_command.fns.group, 0
	.weak _i.port_heat_light_commands_if.__interface_init.maxchanends.group
	.max_reduce _i.port_heat_light_commands_if.__interface_init.max.maxchanends, _i.port_heat_light_commands_if.__interface_init.maxchanends.group, 0
	.weak _i.port_heat_light_commands_if.__interface_init.maxcores.group
	.max_reduce _i.port_heat_light_commands_if.__interface_init.max.maxcores, _i.port_heat_light_commands_if.__interface_init.maxcores.group, 0
	.weak _i.port_heat_light_commands_if.__interface_init.maxtimers.group
	.max_reduce _i.port_heat_light_commands_if.__interface_init.max.maxtimers, _i.port_heat_light_commands_if.__interface_init.maxtimers.group, 0
	.weak _i.port_heat_light_commands_if.__interface_init.nstackwords.group
	.globl _i.port_heat_light_commands_if.__interface_init.nstackwords.group
	.weak _i.port_heat_light_commands_if.__interface_init.fns.group
	.globl _i.port_heat_light_commands_if.__interface_init.fns.group
	.max_reduce _i.port_heat_light_commands_if.__interface_init.max.nstackwords, _i.port_heat_light_commands_if.__interface_init.nstackwords.group, 0
	.max_reduce _i.port_heat_light_commands_if.__interface_init.fns, _i.port_heat_light_commands_if.__interface_init.fns.group, 0
	.weak _i.port_heat_light_commands_if._client_call_y.maxchanends.group
	.add_to_set _i.port_heat_light_commands_if._client_call_y.maxchanends.group, (__interface_client_call_y_other.maxchanends + __interface_client_call_y_extra.maxchanends), __interface_client_call_y_other
	.max_reduce _i.port_heat_light_commands_if._client_call_y.max.maxchanends, _i.port_heat_light_commands_if._client_call_y.maxchanends.group, 0
	.weak _i.port_heat_light_commands_if._client_call_y.maxcores.group
	.add_to_set _i.port_heat_light_commands_if._client_call_y.maxcores.group, (__interface_client_call_y_other.maxcores + __interface_client_call_y_extra.maxcores), __interface_client_call_y_other
	.max_reduce _i.port_heat_light_commands_if._client_call_y.max.maxcores, _i.port_heat_light_commands_if._client_call_y.maxcores.group, 0
	.weak _i.port_heat_light_commands_if._client_call_y.maxtimers.group
	.add_to_set _i.port_heat_light_commands_if._client_call_y.maxtimers.group, (__interface_client_call_y_other.maxtimers + __interface_client_call_y_extra.maxtimers), __interface_client_call_y_other
	.max_reduce _i.port_heat_light_commands_if._client_call_y.max.maxtimers, _i.port_heat_light_commands_if._client_call_y.maxtimers.group, 0
	.weak _i.port_heat_light_commands_if._client_call_y.nstackwords.group
	.globl _i.port_heat_light_commands_if._client_call_y.nstackwords.group
	.weak _i.port_heat_light_commands_if._client_call_y.fns.group
	.globl _i.port_heat_light_commands_if._client_call_y.fns.group
	.add_to_set _i.port_heat_light_commands_if._client_call_y.nstackwords.group, (__interface_client_call_y_other.nstackwords + __interface_client_call_y_extra.nstackwords), __interface_client_call_y_other
	.add_to_set _i.port_heat_light_commands_if._client_call_y.fns.group, __interface_client_call_y_other
	.max_reduce _i.port_heat_light_commands_if._client_call_y.max.nstackwords, _i.port_heat_light_commands_if._client_call_y.nstackwords.group, 0
	.max_reduce _i.port_heat_light_commands_if._client_call_y.fns, _i.port_heat_light_commands_if._client_call_y.fns.group, 0
	.weak _i.i2c_external_commands_if.read_temperature_ok.maxchanends.group
	.max_reduce _i.i2c_external_commands_if.read_temperature_ok.max.maxchanends, _i.i2c_external_commands_if.read_temperature_ok.maxchanends.group, 0
	.weak _i.i2c_external_commands_if.read_temperature_ok.maxcores.group
	.max_reduce _i.i2c_external_commands_if.read_temperature_ok.max.maxcores, _i.i2c_external_commands_if.read_temperature_ok.maxcores.group, 0
	.weak _i.i2c_external_commands_if.read_temperature_ok.maxtimers.group
	.max_reduce _i.i2c_external_commands_if.read_temperature_ok.max.maxtimers, _i.i2c_external_commands_if.read_temperature_ok.maxtimers.group, 0
	.weak _i.i2c_external_commands_if.read_temperature_ok.nstackwords.group
	.globl _i.i2c_external_commands_if.read_temperature_ok.nstackwords.group
	.weak _i.i2c_external_commands_if.read_temperature_ok.fns.group
	.globl _i.i2c_external_commands_if.read_temperature_ok.fns.group
	.max_reduce _i.i2c_external_commands_if.read_temperature_ok.max.nstackwords, _i.i2c_external_commands_if.read_temperature_ok.nstackwords.group, 0
	.max_reduce _i.i2c_external_commands_if.read_temperature_ok.fns, _i.i2c_external_commands_if.read_temperature_ok.fns.group, 0
	.weak _i.i2c_external_commands_if.command.maxchanends.group
	.max_reduce _i.i2c_external_commands_if.command.max.maxchanends, _i.i2c_external_commands_if.command.maxchanends.group, 0
	.weak _i.i2c_external_commands_if.command.maxcores.group
	.max_reduce _i.i2c_external_commands_if.command.max.maxcores, _i.i2c_external_commands_if.command.maxcores.group, 0
	.weak _i.i2c_external_commands_if.command.maxtimers.group
	.max_reduce _i.i2c_external_commands_if.command.max.maxtimers, _i.i2c_external_commands_if.command.maxtimers.group, 0
	.weak _i.i2c_external_commands_if.command.nstackwords.group
	.globl _i.i2c_external_commands_if.command.nstackwords.group
	.weak _i.i2c_external_commands_if.command.fns.group
	.globl _i.i2c_external_commands_if.command.fns.group
	.max_reduce _i.i2c_external_commands_if.command.max.nstackwords, _i.i2c_external_commands_if.command.nstackwords.group, 0
	.max_reduce _i.i2c_external_commands_if.command.fns, _i.i2c_external_commands_if.command.fns.group, 0
	.weak _i.i2c_external_commands_if.__interface_init.maxchanends.group
	.max_reduce _i.i2c_external_commands_if.__interface_init.max.maxchanends, _i.i2c_external_commands_if.__interface_init.maxchanends.group, 0
	.weak _i.i2c_external_commands_if.__interface_init.maxcores.group
	.max_reduce _i.i2c_external_commands_if.__interface_init.max.maxcores, _i.i2c_external_commands_if.__interface_init.maxcores.group, 0
	.weak _i.i2c_external_commands_if.__interface_init.maxtimers.group
	.max_reduce _i.i2c_external_commands_if.__interface_init.max.maxtimers, _i.i2c_external_commands_if.__interface_init.maxtimers.group, 0
	.weak _i.i2c_external_commands_if.__interface_init.nstackwords.group
	.globl _i.i2c_external_commands_if.__interface_init.nstackwords.group
	.weak _i.i2c_external_commands_if.__interface_init.fns.group
	.globl _i.i2c_external_commands_if.__interface_init.fns.group
	.max_reduce _i.i2c_external_commands_if.__interface_init.max.nstackwords, _i.i2c_external_commands_if.__interface_init.nstackwords.group, 0
	.max_reduce _i.i2c_external_commands_if.__interface_init.fns, _i.i2c_external_commands_if.__interface_init.fns.group, 0
	.weak _i.i2c_external_commands_if._client_call_y.maxchanends.group
	.add_to_set _i.i2c_external_commands_if._client_call_y.maxchanends.group, (__interface_client_call_y_other.maxchanends + __interface_client_call_y_extra.maxchanends), __interface_client_call_y_other
	.max_reduce _i.i2c_external_commands_if._client_call_y.max.maxchanends, _i.i2c_external_commands_if._client_call_y.maxchanends.group, 0
	.weak _i.i2c_external_commands_if._client_call_y.maxcores.group
	.add_to_set _i.i2c_external_commands_if._client_call_y.maxcores.group, (__interface_client_call_y_other.maxcores + __interface_client_call_y_extra.maxcores), __interface_client_call_y_other
	.max_reduce _i.i2c_external_commands_if._client_call_y.max.maxcores, _i.i2c_external_commands_if._client_call_y.maxcores.group, 0
	.weak _i.i2c_external_commands_if._client_call_y.maxtimers.group
	.add_to_set _i.i2c_external_commands_if._client_call_y.maxtimers.group, (__interface_client_call_y_other.maxtimers + __interface_client_call_y_extra.maxtimers), __interface_client_call_y_other
	.max_reduce _i.i2c_external_commands_if._client_call_y.max.maxtimers, _i.i2c_external_commands_if._client_call_y.maxtimers.group, 0
	.weak _i.i2c_external_commands_if._client_call_y.nstackwords.group
	.globl _i.i2c_external_commands_if._client_call_y.nstackwords.group
	.weak _i.i2c_external_commands_if._client_call_y.fns.group
	.globl _i.i2c_external_commands_if._client_call_y.fns.group
	.add_to_set _i.i2c_external_commands_if._client_call_y.nstackwords.group, (__interface_client_call_y_other.nstackwords + __interface_client_call_y_extra.nstackwords), __interface_client_call_y_other
	.add_to_set _i.i2c_external_commands_if._client_call_y.fns.group, __interface_client_call_y_other
	.max_reduce _i.i2c_external_commands_if._client_call_y.max.nstackwords, _i.i2c_external_commands_if._client_call_y.nstackwords.group, 0
	.max_reduce _i.i2c_external_commands_if._client_call_y.fns, _i.i2c_external_commands_if._client_call_y.fns.group, 0
	.weak _i.chronodot_ds3231_if.get_time_ok.maxchanends.group
	.max_reduce _i.chronodot_ds3231_if.get_time_ok.max.maxchanends, _i.chronodot_ds3231_if.get_time_ok.maxchanends.group, 0
	.weak _i.chronodot_ds3231_if.get_time_ok.maxcores.group
	.max_reduce _i.chronodot_ds3231_if.get_time_ok.max.maxcores, _i.chronodot_ds3231_if.get_time_ok.maxcores.group, 0
	.weak _i.chronodot_ds3231_if.get_time_ok.maxtimers.group
	.max_reduce _i.chronodot_ds3231_if.get_time_ok.max.maxtimers, _i.chronodot_ds3231_if.get_time_ok.maxtimers.group, 0
	.weak _i.chronodot_ds3231_if.get_time_ok.nstackwords.group
	.globl _i.chronodot_ds3231_if.get_time_ok.nstackwords.group
	.weak _i.chronodot_ds3231_if.get_time_ok.fns.group
	.globl _i.chronodot_ds3231_if.get_time_ok.fns.group
	.max_reduce _i.chronodot_ds3231_if.get_time_ok.max.nstackwords, _i.chronodot_ds3231_if.get_time_ok.nstackwords.group, 0
	.max_reduce _i.chronodot_ds3231_if.get_time_ok.fns, _i.chronodot_ds3231_if.get_time_ok.fns.group, 0
	.weak _i.chronodot_ds3231_if.set_time_ok.maxchanends.group
	.max_reduce _i.chronodot_ds3231_if.set_time_ok.max.maxchanends, _i.chronodot_ds3231_if.set_time_ok.maxchanends.group, 0
	.weak _i.chronodot_ds3231_if.set_time_ok.maxcores.group
	.max_reduce _i.chronodot_ds3231_if.set_time_ok.max.maxcores, _i.chronodot_ds3231_if.set_time_ok.maxcores.group, 0
	.weak _i.chronodot_ds3231_if.set_time_ok.maxtimers.group
	.max_reduce _i.chronodot_ds3231_if.set_time_ok.max.maxtimers, _i.chronodot_ds3231_if.set_time_ok.maxtimers.group, 0
	.weak _i.chronodot_ds3231_if.set_time_ok.nstackwords.group
	.globl _i.chronodot_ds3231_if.set_time_ok.nstackwords.group
	.weak _i.chronodot_ds3231_if.set_time_ok.fns.group
	.globl _i.chronodot_ds3231_if.set_time_ok.fns.group
	.max_reduce _i.chronodot_ds3231_if.set_time_ok.max.nstackwords, _i.chronodot_ds3231_if.set_time_ok.nstackwords.group, 0
	.max_reduce _i.chronodot_ds3231_if.set_time_ok.fns, _i.chronodot_ds3231_if.set_time_ok.fns.group, 0
	.weak _i.chronodot_ds3231_if.__interface_init.maxchanends.group
	.max_reduce _i.chronodot_ds3231_if.__interface_init.max.maxchanends, _i.chronodot_ds3231_if.__interface_init.maxchanends.group, 0
	.weak _i.chronodot_ds3231_if.__interface_init.maxcores.group
	.max_reduce _i.chronodot_ds3231_if.__interface_init.max.maxcores, _i.chronodot_ds3231_if.__interface_init.maxcores.group, 0
	.weak _i.chronodot_ds3231_if.__interface_init.maxtimers.group
	.max_reduce _i.chronodot_ds3231_if.__interface_init.max.maxtimers, _i.chronodot_ds3231_if.__interface_init.maxtimers.group, 0
	.weak _i.chronodot_ds3231_if.__interface_init.nstackwords.group
	.globl _i.chronodot_ds3231_if.__interface_init.nstackwords.group
	.weak _i.chronodot_ds3231_if.__interface_init.fns.group
	.globl _i.chronodot_ds3231_if.__interface_init.fns.group
	.max_reduce _i.chronodot_ds3231_if.__interface_init.max.nstackwords, _i.chronodot_ds3231_if.__interface_init.nstackwords.group, 0
	.max_reduce _i.chronodot_ds3231_if.__interface_init.fns, _i.chronodot_ds3231_if.__interface_init.fns.group, 0
	.weak _i.chronodot_ds3231_if._client_call_y.maxchanends.group
	.add_to_set _i.chronodot_ds3231_if._client_call_y.maxchanends.group, (__interface_client_call_y_other.maxchanends + __interface_client_call_y_extra.maxchanends), __interface_client_call_y_other
	.max_reduce _i.chronodot_ds3231_if._client_call_y.max.maxchanends, _i.chronodot_ds3231_if._client_call_y.maxchanends.group, 0
	.weak _i.chronodot_ds3231_if._client_call_y.maxcores.group
	.add_to_set _i.chronodot_ds3231_if._client_call_y.maxcores.group, (__interface_client_call_y_other.maxcores + __interface_client_call_y_extra.maxcores), __interface_client_call_y_other
	.max_reduce _i.chronodot_ds3231_if._client_call_y.max.maxcores, _i.chronodot_ds3231_if._client_call_y.maxcores.group, 0
	.weak _i.chronodot_ds3231_if._client_call_y.maxtimers.group
	.add_to_set _i.chronodot_ds3231_if._client_call_y.maxtimers.group, (__interface_client_call_y_other.maxtimers + __interface_client_call_y_extra.maxtimers), __interface_client_call_y_other
	.max_reduce _i.chronodot_ds3231_if._client_call_y.max.maxtimers, _i.chronodot_ds3231_if._client_call_y.maxtimers.group, 0
	.weak _i.chronodot_ds3231_if._client_call_y.nstackwords.group
	.globl _i.chronodot_ds3231_if._client_call_y.nstackwords.group
	.weak _i.chronodot_ds3231_if._client_call_y.fns.group
	.globl _i.chronodot_ds3231_if._client_call_y.fns.group
	.add_to_set _i.chronodot_ds3231_if._client_call_y.nstackwords.group, (__interface_client_call_y_other.nstackwords + __interface_client_call_y_extra.nstackwords), __interface_client_call_y_other
	.add_to_set _i.chronodot_ds3231_if._client_call_y.fns.group, __interface_client_call_y_other
	.max_reduce _i.chronodot_ds3231_if._client_call_y.max.nstackwords, _i.chronodot_ds3231_if._client_call_y.nstackwords.group, 0
	.max_reduce _i.chronodot_ds3231_if._client_call_y.fns, _i.chronodot_ds3231_if._client_call_y.fns.group, 0
	.weak _i.i2c_internal_commands_if.write_display_ok.maxchanends.group
	.max_reduce _i.i2c_internal_commands_if.write_display_ok.max.maxchanends, _i.i2c_internal_commands_if.write_display_ok.maxchanends.group, 0
	.weak _i.i2c_internal_commands_if.write_display_ok.maxcores.group
	.max_reduce _i.i2c_internal_commands_if.write_display_ok.max.maxcores, _i.i2c_internal_commands_if.write_display_ok.maxcores.group, 0
	.weak _i.i2c_internal_commands_if.write_display_ok.maxtimers.group
	.max_reduce _i.i2c_internal_commands_if.write_display_ok.max.maxtimers, _i.i2c_internal_commands_if.write_display_ok.maxtimers.group, 0
	.weak _i.i2c_internal_commands_if.write_display_ok.nstackwords.group
	.globl _i.i2c_internal_commands_if.write_display_ok.nstackwords.group
	.weak _i.i2c_internal_commands_if.write_display_ok.fns.group
	.globl _i.i2c_internal_commands_if.write_display_ok.fns.group
	.max_reduce _i.i2c_internal_commands_if.write_display_ok.max.nstackwords, _i.i2c_internal_commands_if.write_display_ok.nstackwords.group, 0
	.max_reduce _i.i2c_internal_commands_if.write_display_ok.fns, _i.i2c_internal_commands_if.write_display_ok.fns.group, 0
	.weak _i.i2c_internal_commands_if.read_chronodot_ok.maxchanends.group
	.max_reduce _i.i2c_internal_commands_if.read_chronodot_ok.max.maxchanends, _i.i2c_internal_commands_if.read_chronodot_ok.maxchanends.group, 0
	.weak _i.i2c_internal_commands_if.read_chronodot_ok.maxcores.group
	.max_reduce _i.i2c_internal_commands_if.read_chronodot_ok.max.maxcores, _i.i2c_internal_commands_if.read_chronodot_ok.maxcores.group, 0
	.weak _i.i2c_internal_commands_if.read_chronodot_ok.maxtimers.group
	.max_reduce _i.i2c_internal_commands_if.read_chronodot_ok.max.maxtimers, _i.i2c_internal_commands_if.read_chronodot_ok.maxtimers.group, 0
	.weak _i.i2c_internal_commands_if.read_chronodot_ok.nstackwords.group
	.globl _i.i2c_internal_commands_if.read_chronodot_ok.nstackwords.group
	.weak _i.i2c_internal_commands_if.read_chronodot_ok.fns.group
	.globl _i.i2c_internal_commands_if.read_chronodot_ok.fns.group
	.max_reduce _i.i2c_internal_commands_if.read_chronodot_ok.max.nstackwords, _i.i2c_internal_commands_if.read_chronodot_ok.nstackwords.group, 0
	.max_reduce _i.i2c_internal_commands_if.read_chronodot_ok.fns, _i.i2c_internal_commands_if.read_chronodot_ok.fns.group, 0
	.weak _i.i2c_internal_commands_if.write_chronodot_ok.maxchanends.group
	.max_reduce _i.i2c_internal_commands_if.write_chronodot_ok.max.maxchanends, _i.i2c_internal_commands_if.write_chronodot_ok.maxchanends.group, 0
	.weak _i.i2c_internal_commands_if.write_chronodot_ok.maxcores.group
	.max_reduce _i.i2c_internal_commands_if.write_chronodot_ok.max.maxcores, _i.i2c_internal_commands_if.write_chronodot_ok.maxcores.group, 0
	.weak _i.i2c_internal_commands_if.write_chronodot_ok.maxtimers.group
	.max_reduce _i.i2c_internal_commands_if.write_chronodot_ok.max.maxtimers, _i.i2c_internal_commands_if.write_chronodot_ok.maxtimers.group, 0
	.weak _i.i2c_internal_commands_if.write_chronodot_ok.nstackwords.group
	.globl _i.i2c_internal_commands_if.write_chronodot_ok.nstackwords.group
	.weak _i.i2c_internal_commands_if.write_chronodot_ok.fns.group
	.globl _i.i2c_internal_commands_if.write_chronodot_ok.fns.group
	.max_reduce _i.i2c_internal_commands_if.write_chronodot_ok.max.nstackwords, _i.i2c_internal_commands_if.write_chronodot_ok.nstackwords.group, 0
	.max_reduce _i.i2c_internal_commands_if.write_chronodot_ok.fns, _i.i2c_internal_commands_if.write_chronodot_ok.fns.group, 0
	.weak _i.i2c_internal_commands_if.__interface_init.maxchanends.group
	.max_reduce _i.i2c_internal_commands_if.__interface_init.max.maxchanends, _i.i2c_internal_commands_if.__interface_init.maxchanends.group, 0
	.weak _i.i2c_internal_commands_if.__interface_init.maxcores.group
	.max_reduce _i.i2c_internal_commands_if.__interface_init.max.maxcores, _i.i2c_internal_commands_if.__interface_init.maxcores.group, 0
	.weak _i.i2c_internal_commands_if.__interface_init.maxtimers.group
	.max_reduce _i.i2c_internal_commands_if.__interface_init.max.maxtimers, _i.i2c_internal_commands_if.__interface_init.maxtimers.group, 0
	.weak _i.i2c_internal_commands_if.__interface_init.nstackwords.group
	.globl _i.i2c_internal_commands_if.__interface_init.nstackwords.group
	.weak _i.i2c_internal_commands_if.__interface_init.fns.group
	.globl _i.i2c_internal_commands_if.__interface_init.fns.group
	.max_reduce _i.i2c_internal_commands_if.__interface_init.max.nstackwords, _i.i2c_internal_commands_if.__interface_init.nstackwords.group, 0
	.max_reduce _i.i2c_internal_commands_if.__interface_init.fns, _i.i2c_internal_commands_if.__interface_init.fns.group, 0
	.weak _i.i2c_internal_commands_if._client_call_y.maxchanends.group
	.add_to_set _i.i2c_internal_commands_if._client_call_y.maxchanends.group, (__interface_client_call_y_other.maxchanends + __interface_client_call_y_extra.maxchanends), __interface_client_call_y_other
	.max_reduce _i.i2c_internal_commands_if._client_call_y.max.maxchanends, _i.i2c_internal_commands_if._client_call_y.maxchanends.group, 0
	.weak _i.i2c_internal_commands_if._client_call_y.maxcores.group
	.add_to_set _i.i2c_internal_commands_if._client_call_y.maxcores.group, (__interface_client_call_y_other.maxcores + __interface_client_call_y_extra.maxcores), __interface_client_call_y_other
	.max_reduce _i.i2c_internal_commands_if._client_call_y.max.maxcores, _i.i2c_internal_commands_if._client_call_y.maxcores.group, 0
	.weak _i.i2c_internal_commands_if._client_call_y.maxtimers.group
	.add_to_set _i.i2c_internal_commands_if._client_call_y.maxtimers.group, (__interface_client_call_y_other.maxtimers + __interface_client_call_y_extra.maxtimers), __interface_client_call_y_other
	.max_reduce _i.i2c_internal_commands_if._client_call_y.max.maxtimers, _i.i2c_internal_commands_if._client_call_y.maxtimers.group, 0
	.weak _i.i2c_internal_commands_if._client_call_y.nstackwords.group
	.globl _i.i2c_internal_commands_if._client_call_y.nstackwords.group
	.weak _i.i2c_internal_commands_if._client_call_y.fns.group
	.globl _i.i2c_internal_commands_if._client_call_y.fns.group
	.add_to_set _i.i2c_internal_commands_if._client_call_y.nstackwords.group, (__interface_client_call_y_other.nstackwords + __interface_client_call_y_extra.nstackwords), __interface_client_call_y_other
	.add_to_set _i.i2c_internal_commands_if._client_call_y.fns.group, __interface_client_call_y_other
	.max_reduce _i.i2c_internal_commands_if._client_call_y.max.nstackwords, _i.i2c_internal_commands_if._client_call_y.nstackwords.group, 0
	.max_reduce _i.i2c_internal_commands_if._client_call_y.fns, _i.i2c_internal_commands_if._client_call_y.fns.group, 0
	.weak _i.startkit_adc_acquire_if.trigger.maxchanends.group
	.max_reduce _i.startkit_adc_acquire_if.trigger.max.maxchanends, _i.startkit_adc_acquire_if.trigger.maxchanends.group, 0
	.weak _i.startkit_adc_acquire_if.trigger.maxcores.group
	.max_reduce _i.startkit_adc_acquire_if.trigger.max.maxcores, _i.startkit_adc_acquire_if.trigger.maxcores.group, 0
	.weak _i.startkit_adc_acquire_if.trigger.maxtimers.group
	.max_reduce _i.startkit_adc_acquire_if.trigger.max.maxtimers, _i.startkit_adc_acquire_if.trigger.maxtimers.group, 0
	.weak _i.startkit_adc_acquire_if.trigger.nstackwords.group
	.globl _i.startkit_adc_acquire_if.trigger.nstackwords.group
	.weak _i.startkit_adc_acquire_if.trigger.fns.group
	.globl _i.startkit_adc_acquire_if.trigger.fns.group
	.max_reduce _i.startkit_adc_acquire_if.trigger.max.nstackwords, _i.startkit_adc_acquire_if.trigger.nstackwords.group, 0
	.max_reduce _i.startkit_adc_acquire_if.trigger.fns, _i.startkit_adc_acquire_if.trigger.fns.group, 0
	.weak _i.startkit_adc_acquire_if.read.maxchanends.group
	.max_reduce _i.startkit_adc_acquire_if.read.max.maxchanends, _i.startkit_adc_acquire_if.read.maxchanends.group, 0
	.weak _i.startkit_adc_acquire_if.read.maxcores.group
	.max_reduce _i.startkit_adc_acquire_if.read.max.maxcores, _i.startkit_adc_acquire_if.read.maxcores.group, 0
	.weak _i.startkit_adc_acquire_if.read.maxtimers.group
	.max_reduce _i.startkit_adc_acquire_if.read.max.maxtimers, _i.startkit_adc_acquire_if.read.maxtimers.group, 0
	.weak _i.startkit_adc_acquire_if.read.nstackwords.group
	.globl _i.startkit_adc_acquire_if.read.nstackwords.group
	.weak _i.startkit_adc_acquire_if.read.fns.group
	.globl _i.startkit_adc_acquire_if.read.fns.group
	.max_reduce _i.startkit_adc_acquire_if.read.max.nstackwords, _i.startkit_adc_acquire_if.read.nstackwords.group, 0
	.max_reduce _i.startkit_adc_acquire_if.read.fns, _i.startkit_adc_acquire_if.read.fns.group, 0
	.weak _i.startkit_adc_acquire_if.__interface_init.maxchanends.group
	.max_reduce _i.startkit_adc_acquire_if.__interface_init.max.maxchanends, _i.startkit_adc_acquire_if.__interface_init.maxchanends.group, 0
	.weak _i.startkit_adc_acquire_if.__interface_init.maxcores.group
	.max_reduce _i.startkit_adc_acquire_if.__interface_init.max.maxcores, _i.startkit_adc_acquire_if.__interface_init.maxcores.group, 0
	.weak _i.startkit_adc_acquire_if.__interface_init.maxtimers.group
	.max_reduce _i.startkit_adc_acquire_if.__interface_init.max.maxtimers, _i.startkit_adc_acquire_if.__interface_init.maxtimers.group, 0
	.weak _i.startkit_adc_acquire_if.__interface_init.nstackwords.group
	.globl _i.startkit_adc_acquire_if.__interface_init.nstackwords.group
	.weak _i.startkit_adc_acquire_if.__interface_init.fns.group
	.globl _i.startkit_adc_acquire_if.__interface_init.fns.group
	.max_reduce _i.startkit_adc_acquire_if.__interface_init.max.nstackwords, _i.startkit_adc_acquire_if.__interface_init.nstackwords.group, 0
	.max_reduce _i.startkit_adc_acquire_if.__interface_init.fns, _i.startkit_adc_acquire_if.__interface_init.fns.group, 0
	.weak _i.startkit_adc_acquire_if._client_call_y.maxchanends.group
	.add_to_set _i.startkit_adc_acquire_if._client_call_y.maxchanends.group, (__interface_client_call_y_other.maxchanends + __interface_client_call_y_extra.maxchanends), __interface_client_call_y_other
	.max_reduce _i.startkit_adc_acquire_if._client_call_y.max.maxchanends, _i.startkit_adc_acquire_if._client_call_y.maxchanends.group, 0
	.weak _i.startkit_adc_acquire_if._client_call_y.maxcores.group
	.add_to_set _i.startkit_adc_acquire_if._client_call_y.maxcores.group, (__interface_client_call_y_other.maxcores + __interface_client_call_y_extra.maxcores), __interface_client_call_y_other
	.max_reduce _i.startkit_adc_acquire_if._client_call_y.max.maxcores, _i.startkit_adc_acquire_if._client_call_y.maxcores.group, 0
	.weak _i.startkit_adc_acquire_if._client_call_y.maxtimers.group
	.add_to_set _i.startkit_adc_acquire_if._client_call_y.maxtimers.group, (__interface_client_call_y_other.maxtimers + __interface_client_call_y_extra.maxtimers), __interface_client_call_y_other
	.max_reduce _i.startkit_adc_acquire_if._client_call_y.max.maxtimers, _i.startkit_adc_acquire_if._client_call_y.maxtimers.group, 0
	.weak _i.startkit_adc_acquire_if._client_call_y.nstackwords.group
	.globl _i.startkit_adc_acquire_if._client_call_y.nstackwords.group
	.weak _i.startkit_adc_acquire_if._client_call_y.fns.group
	.globl _i.startkit_adc_acquire_if._client_call_y.fns.group
	.add_to_set _i.startkit_adc_acquire_if._client_call_y.nstackwords.group, (__interface_client_call_y_other.nstackwords + __interface_client_call_y_extra.nstackwords), __interface_client_call_y_other
	.add_to_set _i.startkit_adc_acquire_if._client_call_y.fns.group, __interface_client_call_y_other
	.max_reduce _i.startkit_adc_acquire_if._client_call_y.max.nstackwords, _i.startkit_adc_acquire_if._client_call_y.nstackwords.group, 0
	.max_reduce _i.startkit_adc_acquire_if._client_call_y.fns, _i.startkit_adc_acquire_if._client_call_y.fns.group, 0
	.set usage.anon.0,0
	.set usage.anon.1,0
	.set usage.anon.2,0
	.call System_Task,writeToDisplay_i2c_all_buffer
	.call System_Task,sprintf
	.call System_Task,random_create_generator_from_hw_seed
	.call System_Task,printf
	.call System_Task,chronodot_registers_to_datetime
	.call System_Task,RR_12V_24V_To_String_Ok
	.call System_Task,Handle_Real_Or_Clocked_Buttons
	.call System_Task,Handle_Light_Sunrise_Sunset_Etc
	.call System_Task,Clear_All_Pixels_In_Buffer
	.call System_Task,Adafruit_SSD1306_i2c_begin
	.call System_Task,Adafruit_GFX_constructor
	.call Handle_Real_Or_Clocked_Buttons,writeToDisplay_i2c_all_buffer
	.call Handle_Real_Or_Clocked_Buttons,printf
	.call Handle_Real_Or_Clocked_Buttons,Handle_Real_Or_Clocked_Button_Actions
	.call Handle_Real_Or_Clocked_Buttons,Clear_All_Pixels_In_Buffer
	.call Handle_Real_Or_Clocked_Button_Actions,writeToDisplay_i2c_all_buffer
	.call Handle_Real_Or_Clocked_Button_Actions,sprintf
	.call Handle_Real_Or_Clocked_Button_Actions,setTextSize
	.call Handle_Real_Or_Clocked_Button_Actions,setTextColor
	.call Handle_Real_Or_Clocked_Button_Actions,setCursor
	.call Handle_Real_Or_Clocked_Button_Actions,printf
	.call Handle_Real_Or_Clocked_Button_Actions,fillRoundRect
	.call Handle_Real_Or_Clocked_Button_Actions,drawRoundRect
	.call Handle_Real_Or_Clocked_Button_Actions,display_print
	.call Handle_Real_Or_Clocked_Button_Actions,datetime_to_chronodot_registers
	.call Handle_Real_Or_Clocked_Button_Actions,TC1047_Raw_DegC_To_String_Ok
	.call Handle_Real_Or_Clocked_Button_Actions,RR_12V_24V_To_String_Ok
	.call Handle_Real_Or_Clocked_Button_Actions,Clear_All_Pixels_In_Buffer
	.call Handle_Real_Or_Clocked_Button_Actions,Ambient_Light_Sensor_ALS_PDIC243_To_String_Ok
	.call usage.anon.2,delay_ticks_longlong
	.call usage.anon.1,delay_ticks_longlong
	.call usage.anon.0,delay_ticks_longlong
	.set Handle_Real_Or_Clocked_Button_Actions.locnoside, 0
	.set Handle_Real_Or_Clocked_Buttons.locnoside, 0
	.set System_Task.locnoside, 0
	.set Handle_Real_Or_Clocked_Button_Actions.locnointerfaceaccess, 0
	.set System_Task.locnointerfaceaccess, 0
	.set System_Task.locnonotificationselect, 0


	.text
	.weak	_i.startkit_adc_acquire_if._chan.read
	.align	4
	.type	_i.startkit_adc_acquire_if._chan.read,@function
	.cc_top _i.startkit_adc_acquire_if._chan.read.function,_i.startkit_adc_acquire_if._chan.read
_i.startkit_adc_acquire_if._chan.read:
	.cfi_startproc
	entsp 5
.Ltmp0:
	.cfi_def_cfa_offset 20
.Ltmp1:
	.cfi_offset 15, 0
	stw r4, sp[4]
.Ltmp2:
	.cfi_offset 4, -4
	stw r5, sp[3]
.Ltmp3:
	.cfi_offset 5, -8
	stw r6, sp[2]
.Ltmp4:
	.cfi_offset 6, -12
	mov r4, r2
	mov r5, r1
	getr r6, 2
	setd res[r6], r0
	add r0, r6, 1
	out res[r6], r0
	outct res[r6], 2
	ldc r1, 0
	mov r0, r6
	bl __interface_wait_and_yield
	chkct res[r6], 1
	out res[r6], r5
	stw r4, sp[1]
	outct res[r6], 2
	ldaw r1, sp[1]
	mov r0, r6
	bl __interface_client_call
	in r0, res[r6]
	chkct res[r6], 1
	freer res[r6]
	ldw r6, sp[2]
	ldw r5, sp[3]
	ldw r4, sp[4]
	retsp 5
	# RETURN_REG_HOLDER
	.cc_bottom _i.startkit_adc_acquire_if._chan.read.function
	.set	_i.startkit_adc_acquire_if._chan.read.nstackwords,((_i.startkit_adc_acquire_if._client_call_y.max.nstackwords $M ($D __interface_wait_and_yield.nstackwords ? __interface_wait_and_yield.nstackwords $: _i.startkit_adc_acquire_if._client_call_y.max.nstackwords) $M __interface_client_call.nstackwords) + 5)
	.globl	_i.startkit_adc_acquire_if._chan.read.nstackwords
	.weak	_i.startkit_adc_acquire_if._chan.read.nstackwords
	.set	_i.startkit_adc_acquire_if._chan.read.maxcores,__interface_client_call.maxcores $M ($D __interface_wait_and_yield.maxcores ? __interface_wait_and_yield.maxcores $: _i.startkit_adc_acquire_if._client_call_y.max.maxcores) $M 1
	.globl	_i.startkit_adc_acquire_if._chan.read.maxcores
	.weak	_i.startkit_adc_acquire_if._chan.read.maxcores
	.set	_i.startkit_adc_acquire_if._chan.read.maxtimers,__interface_client_call.maxtimers $M ($D __interface_wait_and_yield.maxtimers ? __interface_wait_and_yield.maxtimers $: _i.startkit_adc_acquire_if._client_call_y.max.maxtimers) $M 0
	.globl	_i.startkit_adc_acquire_if._chan.read.maxtimers
	.weak	_i.startkit_adc_acquire_if._chan.read.maxtimers
	.set	_i.startkit_adc_acquire_if._chan.read.maxchanends,(1 + __interface_client_call.maxchanends) $M (1 + ($D __interface_wait_and_yield.maxchanends ? __interface_wait_and_yield.maxchanends $: _i.startkit_adc_acquire_if._client_call_y.max.maxchanends)) $M 1
	.globl	_i.startkit_adc_acquire_if._chan.read.maxchanends
	.weak	_i.startkit_adc_acquire_if._chan.read.maxchanends
.Ltmp5:
	.size	_i.startkit_adc_acquire_if._chan.read, .Ltmp5-_i.startkit_adc_acquire_if._chan.read
	.cfi_endproc

	.weak	_i.startkit_adc_acquire_if._chan.trigger
	.align	4
	.type	_i.startkit_adc_acquire_if._chan.trigger,@function
	.cc_top _i.startkit_adc_acquire_if._chan.trigger.function,_i.startkit_adc_acquire_if._chan.trigger
_i.startkit_adc_acquire_if._chan.trigger:
	.cfi_startproc
	entsp 2
.Ltmp6:
	.cfi_def_cfa_offset 8
.Ltmp7:
	.cfi_offset 15, 0
	stw r4, sp[1]
.Ltmp8:
	.cfi_offset 4, -4
	getr r4, 2
	setd res[r4], r0
	out res[r4], r4
	outct res[r4], 2
	ldc r1, 0
	mov r0, r4
	bl __interface_wait_and_yield
	in r0, res[r4]
	chkct res[r4], 1
	freer res[r4]
	ldw r4, sp[1]
	retsp 2
	# RETURN_REG_HOLDER
	.cc_bottom _i.startkit_adc_acquire_if._chan.trigger.function
	.set	_i.startkit_adc_acquire_if._chan.trigger.nstackwords,((_i.startkit_adc_acquire_if._client_call_y.max.nstackwords $M ($D __interface_wait_and_yield.nstackwords ? __interface_wait_and_yield.nstackwords $: _i.startkit_adc_acquire_if._client_call_y.max.nstackwords)) + 2)
	.globl	_i.startkit_adc_acquire_if._chan.trigger.nstackwords
	.weak	_i.startkit_adc_acquire_if._chan.trigger.nstackwords
	.set	_i.startkit_adc_acquire_if._chan.trigger.maxcores,($D __interface_wait_and_yield.maxcores ? __interface_wait_and_yield.maxcores $: _i.startkit_adc_acquire_if._client_call_y.max.maxcores) $M 1
	.globl	_i.startkit_adc_acquire_if._chan.trigger.maxcores
	.weak	_i.startkit_adc_acquire_if._chan.trigger.maxcores
	.set	_i.startkit_adc_acquire_if._chan.trigger.maxtimers,($D __interface_wait_and_yield.maxtimers ? __interface_wait_and_yield.maxtimers $: _i.startkit_adc_acquire_if._client_call_y.max.maxtimers) $M 0
	.globl	_i.startkit_adc_acquire_if._chan.trigger.maxtimers
	.weak	_i.startkit_adc_acquire_if._chan.trigger.maxtimers
	.set	_i.startkit_adc_acquire_if._chan.trigger.maxchanends,(1 + ($D __interface_wait_and_yield.maxchanends ? __interface_wait_and_yield.maxchanends $: _i.startkit_adc_acquire_if._client_call_y.max.maxchanends)) $M 1
	.globl	_i.startkit_adc_acquire_if._chan.trigger.maxchanends
	.weak	_i.startkit_adc_acquire_if._chan.trigger.maxchanends
.Ltmp9:
	.size	_i.startkit_adc_acquire_if._chan.trigger, .Ltmp9-_i.startkit_adc_acquire_if._chan.trigger
	.cfi_endproc

	.weak	_i.startkit_adc_acquire_if._chan_y.read
	.align	4
	.type	_i.startkit_adc_acquire_if._chan_y.read,@function
	.cc_top _i.startkit_adc_acquire_if._chan_y.read.function,_i.startkit_adc_acquire_if._chan_y.read
_i.startkit_adc_acquire_if._chan_y.read:
	.cfi_startproc
	entsp 6
.Ltmp10:
	.cfi_def_cfa_offset 24
.Ltmp11:
	.cfi_offset 15, 0
	stw r4, sp[5]
.Ltmp12:
	.cfi_offset 4, -4
	stw r5, sp[4]
.Ltmp13:
	.cfi_offset 5, -8
	stw r6, sp[3]
.Ltmp14:
	.cfi_offset 6, -12
	stw r7, sp[2]
.Ltmp15:
	.cfi_offset 7, -16
	mov r4, r2
	mov r5, r1
	ldw r1, r0[0]
	getr r6, 2
	setd res[r6], r1
	add r1, r6, 1
	out res[r6], r1
	outct res[r6], 2
	ldw r7, r0[1]
	mov r0, r6
	mov r1, r7
	bl __interface_wait_and_yield
	chkct res[r6], 1
	out res[r6], r5
	stw r4, sp[1]
	outct res[r6], 2
	ldaw r1, sp[1]
	mov r0, r6
	mov r2, r7
	bl __interface_client_call_y
	in r0, res[r6]
	chkct res[r6], 1
	freer res[r6]
	ldw r7, sp[2]
	ldw r6, sp[3]
	ldw r5, sp[4]
	ldw r4, sp[5]
	retsp 6
	# RETURN_REG_HOLDER
	.cc_bottom _i.startkit_adc_acquire_if._chan_y.read.function
	.set	_i.startkit_adc_acquire_if._chan_y.read.nstackwords,((($D __interface_wait_and_yield.nstackwords ? __interface_wait_and_yield.nstackwords $: _i.startkit_adc_acquire_if._client_call_y.max.nstackwords) $M _i.startkit_adc_acquire_if._client_call_y.max.nstackwords $M ($D __interface_client_call_y.nstackwords ? __interface_client_call_y.nstackwords $: _i.startkit_adc_acquire_if._client_call_y.max.nstackwords)) + 6)
	.globl	_i.startkit_adc_acquire_if._chan_y.read.nstackwords
	.weak	_i.startkit_adc_acquire_if._chan_y.read.nstackwords
	.set	_i.startkit_adc_acquire_if._chan_y.read.maxcores,($D __interface_client_call_y.maxcores ? __interface_client_call_y.maxcores $: _i.startkit_adc_acquire_if._client_call_y.max.maxcores) $M ($D __interface_wait_and_yield.maxcores ? __interface_wait_and_yield.maxcores $: _i.startkit_adc_acquire_if._client_call_y.max.maxcores) $M 1
	.globl	_i.startkit_adc_acquire_if._chan_y.read.maxcores
	.weak	_i.startkit_adc_acquire_if._chan_y.read.maxcores
	.set	_i.startkit_adc_acquire_if._chan_y.read.maxtimers,($D __interface_client_call_y.maxtimers ? __interface_client_call_y.maxtimers $: _i.startkit_adc_acquire_if._client_call_y.max.maxtimers) $M ($D __interface_wait_and_yield.maxtimers ? __interface_wait_and_yield.maxtimers $: _i.startkit_adc_acquire_if._client_call_y.max.maxtimers) $M 0
	.globl	_i.startkit_adc_acquire_if._chan_y.read.maxtimers
	.weak	_i.startkit_adc_acquire_if._chan_y.read.maxtimers
	.set	_i.startkit_adc_acquire_if._chan_y.read.maxchanends,(1 + ($D __interface_client_call_y.maxchanends ? __interface_client_call_y.maxchanends $: _i.startkit_adc_acquire_if._client_call_y.max.maxchanends)) $M (1 + ($D __interface_wait_and_yield.maxchanends ? __interface_wait_and_yield.maxchanends $: _i.startkit_adc_acquire_if._client_call_y.max.maxchanends)) $M 1
	.globl	_i.startkit_adc_acquire_if._chan_y.read.maxchanends
	.weak	_i.startkit_adc_acquire_if._chan_y.read.maxchanends
.Ltmp16:
	.size	_i.startkit_adc_acquire_if._chan_y.read, .Ltmp16-_i.startkit_adc_acquire_if._chan_y.read
	.cfi_endproc

	.weak	_i.startkit_adc_acquire_if._chan_y.trigger
	.align	4
	.type	_i.startkit_adc_acquire_if._chan_y.trigger,@function
	.cc_top _i.startkit_adc_acquire_if._chan_y.trigger.function,_i.startkit_adc_acquire_if._chan_y.trigger
_i.startkit_adc_acquire_if._chan_y.trigger:
	.cfi_startproc
	entsp 3
.Ltmp17:
	.cfi_def_cfa_offset 12
.Ltmp18:
	.cfi_offset 15, 0
	stw r4, sp[2]
.Ltmp19:
	.cfi_offset 4, -4
	stw r5, sp[1]
.Ltmp20:
	.cfi_offset 5, -8
	ldw r1, r0[0]
	getr r4, 2
	setd res[r4], r1
	out res[r4], r4
	outct res[r4], 2
	ldw r5, r0[1]
	mov r0, r4
	mov r1, r5
	bl __interface_wait_and_yield
	ldc r1, 0
	mov r0, r4
	mov r2, r5
	bl __interface_client_call_y
	chkct res[r4], 1
	freer res[r4]
	ldw r5, sp[1]
	ldw r4, sp[2]
	retsp 3
	# RETURN_REG_HOLDER
	.cc_bottom _i.startkit_adc_acquire_if._chan_y.trigger.function
	.set	_i.startkit_adc_acquire_if._chan_y.trigger.nstackwords,((($D __interface_wait_and_yield.nstackwords ? __interface_wait_and_yield.nstackwords $: _i.startkit_adc_acquire_if._client_call_y.max.nstackwords) $M _i.startkit_adc_acquire_if._client_call_y.max.nstackwords $M ($D __interface_client_call_y.nstackwords ? __interface_client_call_y.nstackwords $: _i.startkit_adc_acquire_if._client_call_y.max.nstackwords)) + 3)
	.globl	_i.startkit_adc_acquire_if._chan_y.trigger.nstackwords
	.weak	_i.startkit_adc_acquire_if._chan_y.trigger.nstackwords
	.set	_i.startkit_adc_acquire_if._chan_y.trigger.maxcores,($D __interface_client_call_y.maxcores ? __interface_client_call_y.maxcores $: _i.startkit_adc_acquire_if._client_call_y.max.maxcores) $M ($D __interface_wait_and_yield.maxcores ? __interface_wait_and_yield.maxcores $: _i.startkit_adc_acquire_if._client_call_y.max.maxcores) $M 1
	.globl	_i.startkit_adc_acquire_if._chan_y.trigger.maxcores
	.weak	_i.startkit_adc_acquire_if._chan_y.trigger.maxcores
	.set	_i.startkit_adc_acquire_if._chan_y.trigger.maxtimers,($D __interface_client_call_y.maxtimers ? __interface_client_call_y.maxtimers $: _i.startkit_adc_acquire_if._client_call_y.max.maxtimers) $M ($D __interface_wait_and_yield.maxtimers ? __interface_wait_and_yield.maxtimers $: _i.startkit_adc_acquire_if._client_call_y.max.maxtimers) $M 0
	.globl	_i.startkit_adc_acquire_if._chan_y.trigger.maxtimers
	.weak	_i.startkit_adc_acquire_if._chan_y.trigger.maxtimers
	.set	_i.startkit_adc_acquire_if._chan_y.trigger.maxchanends,(1 + ($D __interface_client_call_y.maxchanends ? __interface_client_call_y.maxchanends $: _i.startkit_adc_acquire_if._client_call_y.max.maxchanends)) $M (1 + ($D __interface_wait_and_yield.maxchanends ? __interface_wait_and_yield.maxchanends $: _i.startkit_adc_acquire_if._client_call_y.max.maxchanends)) $M 1
	.globl	_i.startkit_adc_acquire_if._chan_y.trigger.maxchanends
	.weak	_i.startkit_adc_acquire_if._chan_y.trigger.maxchanends
.Ltmp21:
	.size	_i.startkit_adc_acquire_if._chan_y.trigger, .Ltmp21-_i.startkit_adc_acquire_if._chan_y.trigger
	.cfi_endproc

	.weak	_i.i2c_internal_commands_if._chan.write_chronodot_ok
	.align	4
	.type	_i.i2c_internal_commands_if._chan.write_chronodot_ok,@function
	.cc_top _i.i2c_internal_commands_if._chan.write_chronodot_ok.function,_i.i2c_internal_commands_if._chan.write_chronodot_ok
_i.i2c_internal_commands_if._chan.write_chronodot_ok:
	.cfi_startproc
	entsp 11
.Ltmp22:
	.cfi_def_cfa_offset 44
.Ltmp23:
	.cfi_offset 15, 0
	stw r4, sp[10]
.Ltmp24:
	.cfi_offset 4, -4
	stw r5, sp[9]
.Ltmp25:
	.cfi_offset 5, -8
	stw r6, sp[8]
.Ltmp26:
	.cfi_offset 6, -12
	stw r7, sp[7]
.Ltmp27:
	.cfi_offset 7, -16
	stw r8, sp[6]
.Ltmp28:
	.cfi_offset 8, -20
	mov r4, r1
	mov r5, r0
	ldaw r6, sp[1]
	ldc r7, 19
	mov r0, r6
	mov r1, r2
	mov r2, r7
	bl memcpy
	getr r8, 2
	setd res[r8], r5
	add r0, r8, 2
	out res[r8], r0
	outct res[r8], 2
	chkct res[r8], 1
	outt res[r8], r4
	mov r0, r8
	mov r1, r6
	mov r2, r7
	bl sout_char_array
	outct res[r8], 2
	in r0, res[r8]
	in r0, res[r8]
	chkct res[r8], 1
	freer res[r8]
	ldw r8, sp[6]
	ldw r7, sp[7]
	ldw r6, sp[8]
	ldw r5, sp[9]
	ldw r4, sp[10]
	retsp 11
	# RETURN_REG_HOLDER
	.cc_bottom _i.i2c_internal_commands_if._chan.write_chronodot_ok.function
	.set	_i.i2c_internal_commands_if._chan.write_chronodot_ok.nstackwords,((memcpy.nstackwords $M sout_char_array.nstackwords) + 11)
	.globl	_i.i2c_internal_commands_if._chan.write_chronodot_ok.nstackwords
	.weak	_i.i2c_internal_commands_if._chan.write_chronodot_ok.nstackwords
	.set	_i.i2c_internal_commands_if._chan.write_chronodot_ok.maxcores,sout_char_array.maxcores $M 1
	.globl	_i.i2c_internal_commands_if._chan.write_chronodot_ok.maxcores
	.weak	_i.i2c_internal_commands_if._chan.write_chronodot_ok.maxcores
	.set	_i.i2c_internal_commands_if._chan.write_chronodot_ok.maxtimers,sout_char_array.maxtimers $M 0
	.globl	_i.i2c_internal_commands_if._chan.write_chronodot_ok.maxtimers
	.weak	_i.i2c_internal_commands_if._chan.write_chronodot_ok.maxtimers
	.set	_i.i2c_internal_commands_if._chan.write_chronodot_ok.maxchanends,(1 + sout_char_array.maxchanends) $M 1
	.globl	_i.i2c_internal_commands_if._chan.write_chronodot_ok.maxchanends
	.weak	_i.i2c_internal_commands_if._chan.write_chronodot_ok.maxchanends
.Ltmp29:
	.size	_i.i2c_internal_commands_if._chan.write_chronodot_ok, .Ltmp29-_i.i2c_internal_commands_if._chan.write_chronodot_ok
	.cfi_endproc

	.weak	_i.i2c_internal_commands_if._chan.read_chronodot_ok
	.align	4
	.type	_i.i2c_internal_commands_if._chan.read_chronodot_ok,@function
	.cc_top _i.i2c_internal_commands_if._chan.read_chronodot_ok.function,_i.i2c_internal_commands_if._chan.read_chronodot_ok
_i.i2c_internal_commands_if._chan.read_chronodot_ok:
	.cfi_startproc
	entsp 11
.Ltmp30:
	.cfi_def_cfa_offset 44
.Ltmp31:
	.cfi_offset 15, 0
	stw r4, sp[10]
.Ltmp32:
	.cfi_offset 4, -4
	stw r5, sp[9]
.Ltmp33:
	.cfi_offset 5, -8
	stw r6, sp[8]
.Ltmp34:
	.cfi_offset 6, -12
	stw r7, sp[7]
.Ltmp35:
	.cfi_offset 7, -16
	stw r8, sp[6]
.Ltmp36:
	.cfi_offset 8, -20
	mov r5, r0
	getr r4, 2
	setd res[r4], r1
	add r0, r4, 1
	out res[r4], r0
	outct res[r4], 2
	chkct res[r4], 1
	outt res[r4], r2
	outct res[r4], 2
	in r0, res[r4]
	ldaw r6, sp[1]
	ldc r7, 19
	mov r0, r4
	mov r1, r6
	mov r2, r7
	bl sin_char_array
	in r8, res[r4]
	chkct res[r4], 1
	mov r0, r5
	mov r1, r6
	mov r2, r7
	bl memcpy
	freer res[r4]
	mov r0, r8
	ldw r8, sp[6]
	ldw r7, sp[7]
	ldw r6, sp[8]
	ldw r5, sp[9]
	ldw r4, sp[10]
	retsp 11
	# RETURN_REG_HOLDER
	.cc_bottom _i.i2c_internal_commands_if._chan.read_chronodot_ok.function
	.set	_i.i2c_internal_commands_if._chan.read_chronodot_ok.nstackwords,((sin_char_array.nstackwords $M memcpy.nstackwords) + 11)
	.globl	_i.i2c_internal_commands_if._chan.read_chronodot_ok.nstackwords
	.weak	_i.i2c_internal_commands_if._chan.read_chronodot_ok.nstackwords
	.set	_i.i2c_internal_commands_if._chan.read_chronodot_ok.maxcores,sin_char_array.maxcores $M 1
	.globl	_i.i2c_internal_commands_if._chan.read_chronodot_ok.maxcores
	.weak	_i.i2c_internal_commands_if._chan.read_chronodot_ok.maxcores
	.set	_i.i2c_internal_commands_if._chan.read_chronodot_ok.maxtimers,sin_char_array.maxtimers $M 0
	.globl	_i.i2c_internal_commands_if._chan.read_chronodot_ok.maxtimers
	.weak	_i.i2c_internal_commands_if._chan.read_chronodot_ok.maxtimers
	.set	_i.i2c_internal_commands_if._chan.read_chronodot_ok.maxchanends,(1 + sin_char_array.maxchanends) $M 1
	.globl	_i.i2c_internal_commands_if._chan.read_chronodot_ok.maxchanends
	.weak	_i.i2c_internal_commands_if._chan.read_chronodot_ok.maxchanends
.Ltmp37:
	.size	_i.i2c_internal_commands_if._chan.read_chronodot_ok, .Ltmp37-_i.i2c_internal_commands_if._chan.read_chronodot_ok
	.cfi_endproc

	.weak	_i.i2c_internal_commands_if._chan.write_display_ok
	.align	4
	.type	_i.i2c_internal_commands_if._chan.write_display_ok,@function
	.cc_top _i.i2c_internal_commands_if._chan.write_display_ok.function,_i.i2c_internal_commands_if._chan.write_display_ok
_i.i2c_internal_commands_if._chan.write_display_ok:
	.cfi_startproc
	entsp 4
.Ltmp38:
	.cfi_def_cfa_offset 16
.Ltmp39:
	.cfi_offset 15, 0
	stw r4, sp[3]
.Ltmp40:
	.cfi_offset 4, -4
	stw r5, sp[2]
.Ltmp41:
	.cfi_offset 5, -8
	ldw r11, sp[5]
	ldw r5, sp[6]
	getr r4, 2
	setd res[r4], r0
	out res[r4], r4
	outct res[r4], 2
	chkct res[r4], 1
	outt res[r4], r1
	outt res[r4], r2
	out res[r4], r5
	stw r3, sp[1]
	out res[r4], r11
	outct res[r4], 2
	ldaw r1, sp[1]
	mov r0, r4
	bl __interface_client_call
	in r0, res[r4]
	chkct res[r4], 1
	freer res[r4]
	ldw r5, sp[2]
	ldw r4, sp[3]
	retsp 4
	# RETURN_REG_HOLDER
	.cc_bottom _i.i2c_internal_commands_if._chan.write_display_ok.function
	.set	_i.i2c_internal_commands_if._chan.write_display_ok.nstackwords,(__interface_client_call.nstackwords + 4)
	.globl	_i.i2c_internal_commands_if._chan.write_display_ok.nstackwords
	.weak	_i.i2c_internal_commands_if._chan.write_display_ok.nstackwords
	.set	_i.i2c_internal_commands_if._chan.write_display_ok.maxcores,__interface_client_call.maxcores $M 1
	.globl	_i.i2c_internal_commands_if._chan.write_display_ok.maxcores
	.weak	_i.i2c_internal_commands_if._chan.write_display_ok.maxcores
	.set	_i.i2c_internal_commands_if._chan.write_display_ok.maxtimers,__interface_client_call.maxtimers $M 0
	.globl	_i.i2c_internal_commands_if._chan.write_display_ok.maxtimers
	.weak	_i.i2c_internal_commands_if._chan.write_display_ok.maxtimers
	.set	_i.i2c_internal_commands_if._chan.write_display_ok.maxchanends,(1 + __interface_client_call.maxchanends) $M 1
	.globl	_i.i2c_internal_commands_if._chan.write_display_ok.maxchanends
	.weak	_i.i2c_internal_commands_if._chan.write_display_ok.maxchanends
.Ltmp42:
	.size	_i.i2c_internal_commands_if._chan.write_display_ok, .Ltmp42-_i.i2c_internal_commands_if._chan.write_display_ok
	.cfi_endproc

	.weak	_i.i2c_internal_commands_if._chan_y.write_chronodot_ok
	.align	4
	.type	_i.i2c_internal_commands_if._chan_y.write_chronodot_ok,@function
	.cc_top _i.i2c_internal_commands_if._chan_y.write_chronodot_ok.function,_i.i2c_internal_commands_if._chan_y.write_chronodot_ok
_i.i2c_internal_commands_if._chan_y.write_chronodot_ok:
	.cfi_startproc
	entsp 11
.Ltmp43:
	.cfi_def_cfa_offset 44
.Ltmp44:
	.cfi_offset 15, 0
	stw r4, sp[10]
.Ltmp45:
	.cfi_offset 4, -4
	stw r5, sp[9]
.Ltmp46:
	.cfi_offset 5, -8
	stw r6, sp[8]
.Ltmp47:
	.cfi_offset 6, -12
	stw r7, sp[7]
.Ltmp48:
	.cfi_offset 7, -16
	stw r8, sp[6]
.Ltmp49:
	.cfi_offset 8, -20
	mov r4, r1
	mov r5, r0
	ldaw r6, sp[1]
	ldc r7, 19
	mov r0, r6
	mov r1, r2
	mov r2, r7
	bl memcpy
	ldw r0, r5[0]
	getr r8, 2
	setd res[r8], r0
	add r0, r8, 2
	out res[r8], r0
	outct res[r8], 2
	chkct res[r8], 1
	outt res[r8], r4
	mov r0, r8
	mov r1, r6
	mov r2, r7
	bl sout_char_array
	outct res[r8], 2
	ldw r2, r5[1]
	ldc r1, 0
	mov r0, r8
	bl __interface_client_call_y
	in r0, res[r8]
	chkct res[r8], 1
	freer res[r8]
	ldw r8, sp[6]
	ldw r7, sp[7]
	ldw r6, sp[8]
	ldw r5, sp[9]
	ldw r4, sp[10]
	retsp 11
	# RETURN_REG_HOLDER
	.cc_bottom _i.i2c_internal_commands_if._chan_y.write_chronodot_ok.function
	.set	_i.i2c_internal_commands_if._chan_y.write_chronodot_ok.nstackwords,((memcpy.nstackwords $M sout_char_array.nstackwords $M _i.i2c_internal_commands_if._client_call_y.max.nstackwords $M ($D __interface_client_call_y.nstackwords ? __interface_client_call_y.nstackwords $: _i.i2c_internal_commands_if._client_call_y.max.nstackwords)) + 11)
	.globl	_i.i2c_internal_commands_if._chan_y.write_chronodot_ok.nstackwords
	.weak	_i.i2c_internal_commands_if._chan_y.write_chronodot_ok.nstackwords
	.set	_i.i2c_internal_commands_if._chan_y.write_chronodot_ok.maxcores,($D __interface_client_call_y.maxcores ? __interface_client_call_y.maxcores $: _i.i2c_internal_commands_if._client_call_y.max.maxcores) $M sout_char_array.maxcores $M 1
	.globl	_i.i2c_internal_commands_if._chan_y.write_chronodot_ok.maxcores
	.weak	_i.i2c_internal_commands_if._chan_y.write_chronodot_ok.maxcores
	.set	_i.i2c_internal_commands_if._chan_y.write_chronodot_ok.maxtimers,($D __interface_client_call_y.maxtimers ? __interface_client_call_y.maxtimers $: _i.i2c_internal_commands_if._client_call_y.max.maxtimers) $M sout_char_array.maxtimers $M 0
	.globl	_i.i2c_internal_commands_if._chan_y.write_chronodot_ok.maxtimers
	.weak	_i.i2c_internal_commands_if._chan_y.write_chronodot_ok.maxtimers
	.set	_i.i2c_internal_commands_if._chan_y.write_chronodot_ok.maxchanends,(1 + ($D __interface_client_call_y.maxchanends ? __interface_client_call_y.maxchanends $: _i.i2c_internal_commands_if._client_call_y.max.maxchanends)) $M (1 + sout_char_array.maxchanends) $M 1
	.globl	_i.i2c_internal_commands_if._chan_y.write_chronodot_ok.maxchanends
	.weak	_i.i2c_internal_commands_if._chan_y.write_chronodot_ok.maxchanends
.Ltmp50:
	.size	_i.i2c_internal_commands_if._chan_y.write_chronodot_ok, .Ltmp50-_i.i2c_internal_commands_if._chan_y.write_chronodot_ok
	.cfi_endproc

	.weak	_i.i2c_internal_commands_if._chan_y.read_chronodot_ok
	.align	4
	.type	_i.i2c_internal_commands_if._chan_y.read_chronodot_ok,@function
	.cc_top _i.i2c_internal_commands_if._chan_y.read_chronodot_ok.function,_i.i2c_internal_commands_if._chan_y.read_chronodot_ok
_i.i2c_internal_commands_if._chan_y.read_chronodot_ok:
	.cfi_startproc
	entsp 11
.Ltmp51:
	.cfi_def_cfa_offset 44
.Ltmp52:
	.cfi_offset 15, 0
	stw r4, sp[10]
.Ltmp53:
	.cfi_offset 4, -4
	stw r5, sp[9]
.Ltmp54:
	.cfi_offset 5, -8
	stw r6, sp[8]
.Ltmp55:
	.cfi_offset 6, -12
	stw r7, sp[7]
.Ltmp56:
	.cfi_offset 7, -16
	stw r8, sp[6]
.Ltmp57:
	.cfi_offset 8, -20
	mov r5, r0
	ldw r0, r1[0]
	getr r4, 2
	setd res[r4], r0
	add r0, r4, 1
	out res[r4], r0
	outct res[r4], 2
	chkct res[r4], 1
	outt res[r4], r2
	outct res[r4], 2
	ldw r2, r1[1]
	ldc r1, 0
	mov r0, r4
	bl __interface_client_call_y
	ldaw r6, sp[1]
	ldc r7, 19
	mov r0, r4
	mov r1, r6
	mov r2, r7
	bl sin_char_array
	in r8, res[r4]
	chkct res[r4], 1
	mov r0, r5
	mov r1, r6
	mov r2, r7
	bl memcpy
	freer res[r4]
	mov r0, r8
	ldw r8, sp[6]
	ldw r7, sp[7]
	ldw r6, sp[8]
	ldw r5, sp[9]
	ldw r4, sp[10]
	retsp 11
	# RETURN_REG_HOLDER
	.cc_bottom _i.i2c_internal_commands_if._chan_y.read_chronodot_ok.function
	.set	_i.i2c_internal_commands_if._chan_y.read_chronodot_ok.nstackwords,((_i.i2c_internal_commands_if._client_call_y.max.nstackwords $M ($D __interface_client_call_y.nstackwords ? __interface_client_call_y.nstackwords $: _i.i2c_internal_commands_if._client_call_y.max.nstackwords) $M sin_char_array.nstackwords $M memcpy.nstackwords) + 11)
	.globl	_i.i2c_internal_commands_if._chan_y.read_chronodot_ok.nstackwords
	.weak	_i.i2c_internal_commands_if._chan_y.read_chronodot_ok.nstackwords
	.set	_i.i2c_internal_commands_if._chan_y.read_chronodot_ok.maxcores,($D __interface_client_call_y.maxcores ? __interface_client_call_y.maxcores $: _i.i2c_internal_commands_if._client_call_y.max.maxcores) $M sin_char_array.maxcores $M 1
	.globl	_i.i2c_internal_commands_if._chan_y.read_chronodot_ok.maxcores
	.weak	_i.i2c_internal_commands_if._chan_y.read_chronodot_ok.maxcores
	.set	_i.i2c_internal_commands_if._chan_y.read_chronodot_ok.maxtimers,($D __interface_client_call_y.maxtimers ? __interface_client_call_y.maxtimers $: _i.i2c_internal_commands_if._client_call_y.max.maxtimers) $M sin_char_array.maxtimers $M 0
	.globl	_i.i2c_internal_commands_if._chan_y.read_chronodot_ok.maxtimers
	.weak	_i.i2c_internal_commands_if._chan_y.read_chronodot_ok.maxtimers
	.set	_i.i2c_internal_commands_if._chan_y.read_chronodot_ok.maxchanends,(1 + ($D __interface_client_call_y.maxchanends ? __interface_client_call_y.maxchanends $: _i.i2c_internal_commands_if._client_call_y.max.maxchanends)) $M (1 + sin_char_array.maxchanends) $M 1
	.globl	_i.i2c_internal_commands_if._chan_y.read_chronodot_ok.maxchanends
	.weak	_i.i2c_internal_commands_if._chan_y.read_chronodot_ok.maxchanends
.Ltmp58:
	.size	_i.i2c_internal_commands_if._chan_y.read_chronodot_ok, .Ltmp58-_i.i2c_internal_commands_if._chan_y.read_chronodot_ok
	.cfi_endproc

	.weak	_i.i2c_internal_commands_if._chan_y.write_display_ok
	.align	4
	.type	_i.i2c_internal_commands_if._chan_y.write_display_ok,@function
	.cc_top _i.i2c_internal_commands_if._chan_y.write_display_ok.function,_i.i2c_internal_commands_if._chan_y.write_display_ok
_i.i2c_internal_commands_if._chan_y.write_display_ok:
	.cfi_startproc
	entsp 5
.Ltmp59:
	.cfi_def_cfa_offset 20
.Ltmp60:
	.cfi_offset 15, 0
	stw r4, sp[4]
.Ltmp61:
	.cfi_offset 4, -4
	stw r5, sp[3]
.Ltmp62:
	.cfi_offset 5, -8
	stw r6, sp[2]
.Ltmp63:
	.cfi_offset 6, -12
	ldw r11, sp[6]
	ldw r5, sp[7]
	ldw r6, r0[0]
	getr r4, 2
	setd res[r4], r6
	out res[r4], r4
	outct res[r4], 2
	chkct res[r4], 1
	outt res[r4], r1
	outt res[r4], r2
	out res[r4], r5
	stw r3, sp[1]
	out res[r4], r11
	outct res[r4], 2
	ldw r2, r0[1]
	ldaw r1, sp[1]
	mov r0, r4
	bl __interface_client_call_y
	in r0, res[r4]
	chkct res[r4], 1
	freer res[r4]
	ldw r6, sp[2]
	ldw r5, sp[3]
	ldw r4, sp[4]
	retsp 5
	# RETURN_REG_HOLDER
	.cc_bottom _i.i2c_internal_commands_if._chan_y.write_display_ok.function
	.set	_i.i2c_internal_commands_if._chan_y.write_display_ok.nstackwords,((_i.i2c_internal_commands_if._client_call_y.max.nstackwords $M ($D __interface_client_call_y.nstackwords ? __interface_client_call_y.nstackwords $: _i.i2c_internal_commands_if._client_call_y.max.nstackwords)) + 5)
	.globl	_i.i2c_internal_commands_if._chan_y.write_display_ok.nstackwords
	.weak	_i.i2c_internal_commands_if._chan_y.write_display_ok.nstackwords
	.set	_i.i2c_internal_commands_if._chan_y.write_display_ok.maxcores,($D __interface_client_call_y.maxcores ? __interface_client_call_y.maxcores $: _i.i2c_internal_commands_if._client_call_y.max.maxcores) $M 1
	.globl	_i.i2c_internal_commands_if._chan_y.write_display_ok.maxcores
	.weak	_i.i2c_internal_commands_if._chan_y.write_display_ok.maxcores
	.set	_i.i2c_internal_commands_if._chan_y.write_display_ok.maxtimers,($D __interface_client_call_y.maxtimers ? __interface_client_call_y.maxtimers $: _i.i2c_internal_commands_if._client_call_y.max.maxtimers) $M 0
	.globl	_i.i2c_internal_commands_if._chan_y.write_display_ok.maxtimers
	.weak	_i.i2c_internal_commands_if._chan_y.write_display_ok.maxtimers
	.set	_i.i2c_internal_commands_if._chan_y.write_display_ok.maxchanends,(1 + ($D __interface_client_call_y.maxchanends ? __interface_client_call_y.maxchanends $: _i.i2c_internal_commands_if._client_call_y.max.maxchanends)) $M 1
	.globl	_i.i2c_internal_commands_if._chan_y.write_display_ok.maxchanends
	.weak	_i.i2c_internal_commands_if._chan_y.write_display_ok.maxchanends
.Ltmp64:
	.size	_i.i2c_internal_commands_if._chan_y.write_display_ok, .Ltmp64-_i.i2c_internal_commands_if._chan_y.write_display_ok
	.cfi_endproc

	.weak	_i.chronodot_ds3231_if._chan.set_time_ok
	.align	4
	.type	_i.chronodot_ds3231_if._chan.set_time_ok,@function
	.cc_top _i.chronodot_ds3231_if._chan.set_time_ok.function,_i.chronodot_ds3231_if._chan.set_time_ok
_i.chronodot_ds3231_if._chan.set_time_ok:
	.cfi_startproc
	entsp 11
.Ltmp65:
	.cfi_def_cfa_offset 44
.Ltmp66:
	.cfi_offset 15, 0
	stw r4, sp[10]
.Ltmp67:
	.cfi_offset 4, -4
	stw r5, sp[9]
.Ltmp68:
	.cfi_offset 5, -8
	stw r6, sp[8]
.Ltmp69:
	.cfi_offset 6, -12
	stw r7, sp[7]
.Ltmp70:
	.cfi_offset 7, -16
	mov r4, r0
	ldaw r5, sp[1]
	ldc r6, 24
	mov r0, r5
	mov r2, r6
	bl __memcpy_4
	getr r7, 2
	setd res[r7], r4
	add r0, r7, 1
	out res[r7], r0
	outct res[r7], 2
	chkct res[r7], 1
	mov r0, r7
	mov r1, r5
	mov r2, r6
	bl sout_char_array
	outct res[r7], 2
	in r0, res[r7]
	in r0, res[r7]
	chkct res[r7], 1
	freer res[r7]
	ldw r7, sp[7]
	ldw r6, sp[8]
	ldw r5, sp[9]
	ldw r4, sp[10]
	retsp 11
	# RETURN_REG_HOLDER
	.cc_bottom _i.chronodot_ds3231_if._chan.set_time_ok.function
	.set	_i.chronodot_ds3231_if._chan.set_time_ok.nstackwords,((__memcpy_4.nstackwords $M sout_char_array.nstackwords) + 11)
	.globl	_i.chronodot_ds3231_if._chan.set_time_ok.nstackwords
	.weak	_i.chronodot_ds3231_if._chan.set_time_ok.nstackwords
	.set	_i.chronodot_ds3231_if._chan.set_time_ok.maxcores,sout_char_array.maxcores $M 1
	.globl	_i.chronodot_ds3231_if._chan.set_time_ok.maxcores
	.weak	_i.chronodot_ds3231_if._chan.set_time_ok.maxcores
	.set	_i.chronodot_ds3231_if._chan.set_time_ok.maxtimers,sout_char_array.maxtimers $M 0
	.globl	_i.chronodot_ds3231_if._chan.set_time_ok.maxtimers
	.weak	_i.chronodot_ds3231_if._chan.set_time_ok.maxtimers
	.set	_i.chronodot_ds3231_if._chan.set_time_ok.maxchanends,(1 + sout_char_array.maxchanends) $M 1
	.globl	_i.chronodot_ds3231_if._chan.set_time_ok.maxchanends
	.weak	_i.chronodot_ds3231_if._chan.set_time_ok.maxchanends
.Ltmp71:
	.size	_i.chronodot_ds3231_if._chan.set_time_ok, .Ltmp71-_i.chronodot_ds3231_if._chan.set_time_ok
	.cfi_endproc

	.weak	_i.chronodot_ds3231_if._chan.get_time_ok
	.align	4
	.type	_i.chronodot_ds3231_if._chan.get_time_ok,@function
	.cc_top _i.chronodot_ds3231_if._chan.get_time_ok.function,_i.chronodot_ds3231_if._chan.get_time_ok
_i.chronodot_ds3231_if._chan.get_time_ok:
	.cfi_startproc
	entsp 12
.Ltmp72:
	.cfi_def_cfa_offset 48
.Ltmp73:
	.cfi_offset 15, 0
	stw r4, sp[11]
.Ltmp74:
	.cfi_offset 4, -4
	stw r5, sp[10]
.Ltmp75:
	.cfi_offset 5, -8
	stw r6, sp[9]
.Ltmp76:
	.cfi_offset 6, -12
	stw r7, sp[8]
.Ltmp77:
	.cfi_offset 7, -16
	stw r8, sp[7]
.Ltmp78:
	.cfi_offset 8, -20
	mov r4, r0
	getr r5, 2
	setd res[r5], r1
	out res[r5], r5
	outct res[r5], 2
	in r0, res[r5]
	ldaw r6, sp[1]
	ldc r7, 24
	mov r0, r5
	mov r1, r6
	mov r2, r7
	bl sin_char_array
	in r8, res[r5]
	chkct res[r5], 1
	mov r0, r4
	mov r1, r6
	mov r2, r7
	bl __memcpy_4
	freer res[r5]
	mov r0, r8
	ldw r8, sp[7]
	ldw r7, sp[8]
	ldw r6, sp[9]
	ldw r5, sp[10]
	ldw r4, sp[11]
	retsp 12
	# RETURN_REG_HOLDER
	.cc_bottom _i.chronodot_ds3231_if._chan.get_time_ok.function
	.set	_i.chronodot_ds3231_if._chan.get_time_ok.nstackwords,((sin_char_array.nstackwords $M __memcpy_4.nstackwords) + 12)
	.globl	_i.chronodot_ds3231_if._chan.get_time_ok.nstackwords
	.weak	_i.chronodot_ds3231_if._chan.get_time_ok.nstackwords
	.set	_i.chronodot_ds3231_if._chan.get_time_ok.maxcores,sin_char_array.maxcores $M 1
	.globl	_i.chronodot_ds3231_if._chan.get_time_ok.maxcores
	.weak	_i.chronodot_ds3231_if._chan.get_time_ok.maxcores
	.set	_i.chronodot_ds3231_if._chan.get_time_ok.maxtimers,sin_char_array.maxtimers $M 0
	.globl	_i.chronodot_ds3231_if._chan.get_time_ok.maxtimers
	.weak	_i.chronodot_ds3231_if._chan.get_time_ok.maxtimers
	.set	_i.chronodot_ds3231_if._chan.get_time_ok.maxchanends,(1 + sin_char_array.maxchanends) $M 1
	.globl	_i.chronodot_ds3231_if._chan.get_time_ok.maxchanends
	.weak	_i.chronodot_ds3231_if._chan.get_time_ok.maxchanends
.Ltmp79:
	.size	_i.chronodot_ds3231_if._chan.get_time_ok, .Ltmp79-_i.chronodot_ds3231_if._chan.get_time_ok
	.cfi_endproc

	.weak	_i.chronodot_ds3231_if._chan_y.set_time_ok
	.align	4
	.type	_i.chronodot_ds3231_if._chan_y.set_time_ok,@function
	.cc_top _i.chronodot_ds3231_if._chan_y.set_time_ok.function,_i.chronodot_ds3231_if._chan_y.set_time_ok
_i.chronodot_ds3231_if._chan_y.set_time_ok:
	.cfi_startproc
	entsp 11
.Ltmp80:
	.cfi_def_cfa_offset 44
.Ltmp81:
	.cfi_offset 15, 0
	stw r4, sp[10]
.Ltmp82:
	.cfi_offset 4, -4
	stw r5, sp[9]
.Ltmp83:
	.cfi_offset 5, -8
	stw r6, sp[8]
.Ltmp84:
	.cfi_offset 6, -12
	stw r7, sp[7]
.Ltmp85:
	.cfi_offset 7, -16
	mov r4, r0
	ldaw r5, sp[1]
	ldc r6, 24
	mov r0, r5
	mov r2, r6
	bl __memcpy_4
	ldw r0, r4[0]
	getr r7, 2
	setd res[r7], r0
	add r0, r7, 1
	out res[r7], r0
	outct res[r7], 2
	chkct res[r7], 1
	mov r0, r7
	mov r1, r5
	mov r2, r6
	bl sout_char_array
	outct res[r7], 2
	ldw r2, r4[1]
	ldc r1, 0
	mov r0, r7
	bl __interface_client_call_y
	in r0, res[r7]
	chkct res[r7], 1
	freer res[r7]
	ldw r7, sp[7]
	ldw r6, sp[8]
	ldw r5, sp[9]
	ldw r4, sp[10]
	retsp 11
	# RETURN_REG_HOLDER
	.cc_bottom _i.chronodot_ds3231_if._chan_y.set_time_ok.function
	.set	_i.chronodot_ds3231_if._chan_y.set_time_ok.nstackwords,((__memcpy_4.nstackwords $M sout_char_array.nstackwords $M _i.chronodot_ds3231_if._client_call_y.max.nstackwords $M ($D __interface_client_call_y.nstackwords ? __interface_client_call_y.nstackwords $: _i.chronodot_ds3231_if._client_call_y.max.nstackwords)) + 11)
	.globl	_i.chronodot_ds3231_if._chan_y.set_time_ok.nstackwords
	.weak	_i.chronodot_ds3231_if._chan_y.set_time_ok.nstackwords
	.set	_i.chronodot_ds3231_if._chan_y.set_time_ok.maxcores,($D __interface_client_call_y.maxcores ? __interface_client_call_y.maxcores $: _i.chronodot_ds3231_if._client_call_y.max.maxcores) $M sout_char_array.maxcores $M 1
	.globl	_i.chronodot_ds3231_if._chan_y.set_time_ok.maxcores
	.weak	_i.chronodot_ds3231_if._chan_y.set_time_ok.maxcores
	.set	_i.chronodot_ds3231_if._chan_y.set_time_ok.maxtimers,($D __interface_client_call_y.maxtimers ? __interface_client_call_y.maxtimers $: _i.chronodot_ds3231_if._client_call_y.max.maxtimers) $M sout_char_array.maxtimers $M 0
	.globl	_i.chronodot_ds3231_if._chan_y.set_time_ok.maxtimers
	.weak	_i.chronodot_ds3231_if._chan_y.set_time_ok.maxtimers
	.set	_i.chronodot_ds3231_if._chan_y.set_time_ok.maxchanends,(1 + ($D __interface_client_call_y.maxchanends ? __interface_client_call_y.maxchanends $: _i.chronodot_ds3231_if._client_call_y.max.maxchanends)) $M (1 + sout_char_array.maxchanends) $M 1
	.globl	_i.chronodot_ds3231_if._chan_y.set_time_ok.maxchanends
	.weak	_i.chronodot_ds3231_if._chan_y.set_time_ok.maxchanends
.Ltmp86:
	.size	_i.chronodot_ds3231_if._chan_y.set_time_ok, .Ltmp86-_i.chronodot_ds3231_if._chan_y.set_time_ok
	.cfi_endproc

	.weak	_i.chronodot_ds3231_if._chan_y.get_time_ok
	.align	4
	.type	_i.chronodot_ds3231_if._chan_y.get_time_ok,@function
	.cc_top _i.chronodot_ds3231_if._chan_y.get_time_ok.function,_i.chronodot_ds3231_if._chan_y.get_time_ok
_i.chronodot_ds3231_if._chan_y.get_time_ok:
	.cfi_startproc
	entsp 12
.Ltmp87:
	.cfi_def_cfa_offset 48
.Ltmp88:
	.cfi_offset 15, 0
	stw r4, sp[11]
.Ltmp89:
	.cfi_offset 4, -4
	stw r5, sp[10]
.Ltmp90:
	.cfi_offset 5, -8
	stw r6, sp[9]
.Ltmp91:
	.cfi_offset 6, -12
	stw r7, sp[8]
.Ltmp92:
	.cfi_offset 7, -16
	stw r8, sp[7]
.Ltmp93:
	.cfi_offset 8, -20
	mov r5, r0
	ldw r0, r1[0]
	getr r4, 2
	setd res[r4], r0
	out res[r4], r4
	outct res[r4], 2
	ldw r2, r1[1]
	ldc r1, 0
	mov r0, r4
	bl __interface_client_call_y
	ldaw r6, sp[1]
	ldc r7, 24
	mov r0, r4
	mov r1, r6
	mov r2, r7
	bl sin_char_array
	in r8, res[r4]
	chkct res[r4], 1
	mov r0, r5
	mov r1, r6
	mov r2, r7
	bl __memcpy_4
	freer res[r4]
	mov r0, r8
	ldw r8, sp[7]
	ldw r7, sp[8]
	ldw r6, sp[9]
	ldw r5, sp[10]
	ldw r4, sp[11]
	retsp 12
	# RETURN_REG_HOLDER
	.cc_bottom _i.chronodot_ds3231_if._chan_y.get_time_ok.function
	.set	_i.chronodot_ds3231_if._chan_y.get_time_ok.nstackwords,((_i.chronodot_ds3231_if._client_call_y.max.nstackwords $M ($D __interface_client_call_y.nstackwords ? __interface_client_call_y.nstackwords $: _i.chronodot_ds3231_if._client_call_y.max.nstackwords) $M sin_char_array.nstackwords $M __memcpy_4.nstackwords) + 12)
	.globl	_i.chronodot_ds3231_if._chan_y.get_time_ok.nstackwords
	.weak	_i.chronodot_ds3231_if._chan_y.get_time_ok.nstackwords
	.set	_i.chronodot_ds3231_if._chan_y.get_time_ok.maxcores,($D __interface_client_call_y.maxcores ? __interface_client_call_y.maxcores $: _i.chronodot_ds3231_if._client_call_y.max.maxcores) $M sin_char_array.maxcores $M 1
	.globl	_i.chronodot_ds3231_if._chan_y.get_time_ok.maxcores
	.weak	_i.chronodot_ds3231_if._chan_y.get_time_ok.maxcores
	.set	_i.chronodot_ds3231_if._chan_y.get_time_ok.maxtimers,($D __interface_client_call_y.maxtimers ? __interface_client_call_y.maxtimers $: _i.chronodot_ds3231_if._client_call_y.max.maxtimers) $M sin_char_array.maxtimers $M 0
	.globl	_i.chronodot_ds3231_if._chan_y.get_time_ok.maxtimers
	.weak	_i.chronodot_ds3231_if._chan_y.get_time_ok.maxtimers
	.set	_i.chronodot_ds3231_if._chan_y.get_time_ok.maxchanends,(1 + ($D __interface_client_call_y.maxchanends ? __interface_client_call_y.maxchanends $: _i.chronodot_ds3231_if._client_call_y.max.maxchanends)) $M (1 + sin_char_array.maxchanends) $M 1
	.globl	_i.chronodot_ds3231_if._chan_y.get_time_ok.maxchanends
	.weak	_i.chronodot_ds3231_if._chan_y.get_time_ok.maxchanends
.Ltmp94:
	.size	_i.chronodot_ds3231_if._chan_y.get_time_ok, .Ltmp94-_i.chronodot_ds3231_if._chan_y.get_time_ok
	.cfi_endproc

	.weak	_i.i2c_external_commands_if._chan.command
	.align	4
	.type	_i.i2c_external_commands_if._chan.command,@function
	.cc_top _i.i2c_external_commands_if._chan.command.function,_i.i2c_external_commands_if._chan.command
_i.i2c_external_commands_if._chan.command:
	.cfi_startproc
	getr r2, 2
	setd res[r2], r0
	add r0, r2, 1
	out res[r2], r0
	outct res[r2], 2
	chkct res[r2], 1
	out res[r2], r1
	outct res[r2], 2
	in r0, res[r2]
	chkct res[r2], 1
	freer res[r2]
	retsp 0
	# RETURN_REG_HOLDER
	.cc_bottom _i.i2c_external_commands_if._chan.command.function
	.set	_i.i2c_external_commands_if._chan.command.nstackwords,0
	.globl	_i.i2c_external_commands_if._chan.command.nstackwords
	.weak	_i.i2c_external_commands_if._chan.command.nstackwords
	.set	_i.i2c_external_commands_if._chan.command.maxcores,1
	.globl	_i.i2c_external_commands_if._chan.command.maxcores
	.weak	_i.i2c_external_commands_if._chan.command.maxcores
	.set	_i.i2c_external_commands_if._chan.command.maxtimers,0
	.globl	_i.i2c_external_commands_if._chan.command.maxtimers
	.weak	_i.i2c_external_commands_if._chan.command.maxtimers
	.set	_i.i2c_external_commands_if._chan.command.maxchanends,1
	.globl	_i.i2c_external_commands_if._chan.command.maxchanends
	.weak	_i.i2c_external_commands_if._chan.command.maxchanends
.Ltmp95:
	.size	_i.i2c_external_commands_if._chan.command, .Ltmp95-_i.i2c_external_commands_if._chan.command
	.cfi_endproc

	.weak	_i.i2c_external_commands_if._chan.read_temperature_ok
	.align	4
	.type	_i.i2c_external_commands_if._chan.read_temperature_ok,@function
	.cc_top _i.i2c_external_commands_if._chan.read_temperature_ok.function,_i.i2c_external_commands_if._chan.read_temperature_ok
_i.i2c_external_commands_if._chan.read_temperature_ok:
	.cfi_startproc
	entsp 2
.Ltmp96:
	.cfi_def_cfa_offset 8
.Ltmp97:
	.cfi_offset 15, 0
	stw r4, sp[1]
.Ltmp98:
	.cfi_offset 4, -4
	mov r3, r0
	getr r4, 2
	setd res[r4], r1
	out res[r4], r4
	outct res[r4], 2
	chkct res[r4], 1
	out res[r4], r2
	outct res[r4], 2
	in r0, res[r4]
	ldc r2, 20
	mov r0, r4
	mov r1, r3
	bl sin_char_array
	chkct res[r4], 1
	freer res[r4]
	ldw r4, sp[1]
	retsp 2
	# RETURN_REG_HOLDER
	.cc_bottom _i.i2c_external_commands_if._chan.read_temperature_ok.function
	.set	_i.i2c_external_commands_if._chan.read_temperature_ok.nstackwords,(sin_char_array.nstackwords + 2)
	.globl	_i.i2c_external_commands_if._chan.read_temperature_ok.nstackwords
	.weak	_i.i2c_external_commands_if._chan.read_temperature_ok.nstackwords
	.set	_i.i2c_external_commands_if._chan.read_temperature_ok.maxcores,sin_char_array.maxcores $M 1
	.globl	_i.i2c_external_commands_if._chan.read_temperature_ok.maxcores
	.weak	_i.i2c_external_commands_if._chan.read_temperature_ok.maxcores
	.set	_i.i2c_external_commands_if._chan.read_temperature_ok.maxtimers,sin_char_array.maxtimers $M 0
	.globl	_i.i2c_external_commands_if._chan.read_temperature_ok.maxtimers
	.weak	_i.i2c_external_commands_if._chan.read_temperature_ok.maxtimers
	.set	_i.i2c_external_commands_if._chan.read_temperature_ok.maxchanends,(1 + sin_char_array.maxchanends) $M 1
	.globl	_i.i2c_external_commands_if._chan.read_temperature_ok.maxchanends
	.weak	_i.i2c_external_commands_if._chan.read_temperature_ok.maxchanends
.Ltmp99:
	.size	_i.i2c_external_commands_if._chan.read_temperature_ok, .Ltmp99-_i.i2c_external_commands_if._chan.read_temperature_ok
	.cfi_endproc

	.weak	_i.i2c_external_commands_if._chan_y.command
	.align	4
	.type	_i.i2c_external_commands_if._chan_y.command,@function
	.cc_top _i.i2c_external_commands_if._chan_y.command.function,_i.i2c_external_commands_if._chan_y.command
_i.i2c_external_commands_if._chan_y.command:
	.cfi_startproc
	entsp 2
.Ltmp100:
	.cfi_def_cfa_offset 8
.Ltmp101:
	.cfi_offset 15, 0
	stw r4, sp[1]
.Ltmp102:
	.cfi_offset 4, -4
	ldw r2, r0[0]
	getr r4, 2
	setd res[r4], r2
	add r2, r4, 1
	out res[r4], r2
	outct res[r4], 2
	chkct res[r4], 1
	out res[r4], r1
	outct res[r4], 2
	ldw r2, r0[1]
	ldc r1, 0
	mov r0, r4
	bl __interface_client_call_y
	chkct res[r4], 1
	freer res[r4]
	ldw r4, sp[1]
	retsp 2
	# RETURN_REG_HOLDER
	.cc_bottom _i.i2c_external_commands_if._chan_y.command.function
	.set	_i.i2c_external_commands_if._chan_y.command.nstackwords,((_i.i2c_external_commands_if._client_call_y.max.nstackwords $M ($D __interface_client_call_y.nstackwords ? __interface_client_call_y.nstackwords $: _i.i2c_external_commands_if._client_call_y.max.nstackwords)) + 2)
	.globl	_i.i2c_external_commands_if._chan_y.command.nstackwords
	.weak	_i.i2c_external_commands_if._chan_y.command.nstackwords
	.set	_i.i2c_external_commands_if._chan_y.command.maxcores,($D __interface_client_call_y.maxcores ? __interface_client_call_y.maxcores $: _i.i2c_external_commands_if._client_call_y.max.maxcores) $M 1
	.globl	_i.i2c_external_commands_if._chan_y.command.maxcores
	.weak	_i.i2c_external_commands_if._chan_y.command.maxcores
	.set	_i.i2c_external_commands_if._chan_y.command.maxtimers,($D __interface_client_call_y.maxtimers ? __interface_client_call_y.maxtimers $: _i.i2c_external_commands_if._client_call_y.max.maxtimers) $M 0
	.globl	_i.i2c_external_commands_if._chan_y.command.maxtimers
	.weak	_i.i2c_external_commands_if._chan_y.command.maxtimers
	.set	_i.i2c_external_commands_if._chan_y.command.maxchanends,(1 + ($D __interface_client_call_y.maxchanends ? __interface_client_call_y.maxchanends $: _i.i2c_external_commands_if._client_call_y.max.maxchanends)) $M 1
	.globl	_i.i2c_external_commands_if._chan_y.command.maxchanends
	.weak	_i.i2c_external_commands_if._chan_y.command.maxchanends
.Ltmp103:
	.size	_i.i2c_external_commands_if._chan_y.command, .Ltmp103-_i.i2c_external_commands_if._chan_y.command
	.cfi_endproc

	.weak	_i.i2c_external_commands_if._chan_y.read_temperature_ok
	.align	4
	.type	_i.i2c_external_commands_if._chan_y.read_temperature_ok,@function
	.cc_top _i.i2c_external_commands_if._chan_y.read_temperature_ok.function,_i.i2c_external_commands_if._chan_y.read_temperature_ok
_i.i2c_external_commands_if._chan_y.read_temperature_ok:
	.cfi_startproc
	entsp 3
.Ltmp104:
	.cfi_def_cfa_offset 12
.Ltmp105:
	.cfi_offset 15, 0
	stw r4, sp[2]
.Ltmp106:
	.cfi_offset 4, -4
	stw r5, sp[1]
.Ltmp107:
	.cfi_offset 5, -8
	mov r4, r0
	ldw r0, r1[0]
	getr r5, 2
	setd res[r5], r0
	out res[r5], r5
	outct res[r5], 2
	chkct res[r5], 1
	out res[r5], r2
	outct res[r5], 2
	ldw r2, r1[1]
	ldc r1, 0
	mov r0, r5
	bl __interface_client_call_y
	ldc r2, 20
	mov r0, r5
	mov r1, r4
	bl sin_char_array
	chkct res[r5], 1
	freer res[r5]
	ldw r5, sp[1]
	ldw r4, sp[2]
	retsp 3
	# RETURN_REG_HOLDER
	.cc_bottom _i.i2c_external_commands_if._chan_y.read_temperature_ok.function
	.set	_i.i2c_external_commands_if._chan_y.read_temperature_ok.nstackwords,((_i.i2c_external_commands_if._client_call_y.max.nstackwords $M ($D __interface_client_call_y.nstackwords ? __interface_client_call_y.nstackwords $: _i.i2c_external_commands_if._client_call_y.max.nstackwords) $M sin_char_array.nstackwords) + 3)
	.globl	_i.i2c_external_commands_if._chan_y.read_temperature_ok.nstackwords
	.weak	_i.i2c_external_commands_if._chan_y.read_temperature_ok.nstackwords
	.set	_i.i2c_external_commands_if._chan_y.read_temperature_ok.maxcores,($D __interface_client_call_y.maxcores ? __interface_client_call_y.maxcores $: _i.i2c_external_commands_if._client_call_y.max.maxcores) $M sin_char_array.maxcores $M 1
	.globl	_i.i2c_external_commands_if._chan_y.read_temperature_ok.maxcores
	.weak	_i.i2c_external_commands_if._chan_y.read_temperature_ok.maxcores
	.set	_i.i2c_external_commands_if._chan_y.read_temperature_ok.maxtimers,($D __interface_client_call_y.maxtimers ? __interface_client_call_y.maxtimers $: _i.i2c_external_commands_if._client_call_y.max.maxtimers) $M sin_char_array.maxtimers $M 0
	.globl	_i.i2c_external_commands_if._chan_y.read_temperature_ok.maxtimers
	.weak	_i.i2c_external_commands_if._chan_y.read_temperature_ok.maxtimers
	.set	_i.i2c_external_commands_if._chan_y.read_temperature_ok.maxchanends,(1 + ($D __interface_client_call_y.maxchanends ? __interface_client_call_y.maxchanends $: _i.i2c_external_commands_if._client_call_y.max.maxchanends)) $M (1 + sin_char_array.maxchanends) $M 1
	.globl	_i.i2c_external_commands_if._chan_y.read_temperature_ok.maxchanends
	.weak	_i.i2c_external_commands_if._chan_y.read_temperature_ok.maxchanends
.Ltmp108:
	.size	_i.i2c_external_commands_if._chan_y.read_temperature_ok, .Ltmp108-_i.i2c_external_commands_if._chan_y.read_temperature_ok
	.cfi_endproc

	.weak	_i.port_heat_light_commands_if._chan.heat_cables_command
	.align	4
	.type	_i.port_heat_light_commands_if._chan.heat_cables_command,@function
	.cc_top _i.port_heat_light_commands_if._chan.heat_cables_command.function,_i.port_heat_light_commands_if._chan.heat_cables_command
_i.port_heat_light_commands_if._chan.heat_cables_command:
	.cfi_startproc
	getr r2, 2
	setd res[r2], r0
	add r0, r2, 5
	out res[r2], r0
	outct res[r2], 2
	chkct res[r2], 1
	out res[r2], r1
	outct res[r2], 2
	in r0, res[r2]
	chkct res[r2], 1
	freer res[r2]
	retsp 0
	# RETURN_REG_HOLDER
	.cc_bottom _i.port_heat_light_commands_if._chan.heat_cables_command.function
	.set	_i.port_heat_light_commands_if._chan.heat_cables_command.nstackwords,0
	.globl	_i.port_heat_light_commands_if._chan.heat_cables_command.nstackwords
	.weak	_i.port_heat_light_commands_if._chan.heat_cables_command.nstackwords
	.set	_i.port_heat_light_commands_if._chan.heat_cables_command.maxcores,1
	.globl	_i.port_heat_light_commands_if._chan.heat_cables_command.maxcores
	.weak	_i.port_heat_light_commands_if._chan.heat_cables_command.maxcores
	.set	_i.port_heat_light_commands_if._chan.heat_cables_command.maxtimers,0
	.globl	_i.port_heat_light_commands_if._chan.heat_cables_command.maxtimers
	.weak	_i.port_heat_light_commands_if._chan.heat_cables_command.maxtimers
	.set	_i.port_heat_light_commands_if._chan.heat_cables_command.maxchanends,1
	.globl	_i.port_heat_light_commands_if._chan.heat_cables_command.maxchanends
	.weak	_i.port_heat_light_commands_if._chan.heat_cables_command.maxchanends
.Ltmp109:
	.size	_i.port_heat_light_commands_if._chan.heat_cables_command, .Ltmp109-_i.port_heat_light_commands_if._chan.heat_cables_command
	.cfi_endproc

	.weak	_i.port_heat_light_commands_if._chan.beeper_blip_command
	.align	4
	.type	_i.port_heat_light_commands_if._chan.beeper_blip_command,@function
	.cc_top _i.port_heat_light_commands_if._chan.beeper_blip_command.function,_i.port_heat_light_commands_if._chan.beeper_blip_command
_i.port_heat_light_commands_if._chan.beeper_blip_command:
	.cfi_startproc
	getr r2, 2
	setd res[r2], r0
	add r0, r2, 4
	out res[r2], r0
	outct res[r2], 2
	chkct res[r2], 1
	out res[r2], r1
	outct res[r2], 2
	in r0, res[r2]
	chkct res[r2], 1
	freer res[r2]
	retsp 0
	# RETURN_REG_HOLDER
	.cc_bottom _i.port_heat_light_commands_if._chan.beeper_blip_command.function
	.set	_i.port_heat_light_commands_if._chan.beeper_blip_command.nstackwords,0
	.globl	_i.port_heat_light_commands_if._chan.beeper_blip_command.nstackwords
	.weak	_i.port_heat_light_commands_if._chan.beeper_blip_command.nstackwords
	.set	_i.port_heat_light_commands_if._chan.beeper_blip_command.maxcores,1
	.globl	_i.port_heat_light_commands_if._chan.beeper_blip_command.maxcores
	.weak	_i.port_heat_light_commands_if._chan.beeper_blip_command.maxcores
	.set	_i.port_heat_light_commands_if._chan.beeper_blip_command.maxtimers,0
	.globl	_i.port_heat_light_commands_if._chan.beeper_blip_command.maxtimers
	.weak	_i.port_heat_light_commands_if._chan.beeper_blip_command.maxtimers
	.set	_i.port_heat_light_commands_if._chan.beeper_blip_command.maxchanends,1
	.globl	_i.port_heat_light_commands_if._chan.beeper_blip_command.maxchanends
	.weak	_i.port_heat_light_commands_if._chan.beeper_blip_command.maxchanends
.Ltmp110:
	.size	_i.port_heat_light_commands_if._chan.beeper_blip_command, .Ltmp110-_i.port_heat_light_commands_if._chan.beeper_blip_command
	.cfi_endproc

	.weak	_i.port_heat_light_commands_if._chan.beeper_on_command
	.align	4
	.type	_i.port_heat_light_commands_if._chan.beeper_on_command,@function
	.cc_top _i.port_heat_light_commands_if._chan.beeper_on_command.function,_i.port_heat_light_commands_if._chan.beeper_on_command
_i.port_heat_light_commands_if._chan.beeper_on_command:
	.cfi_startproc
	getr r2, 2
	setd res[r2], r0
	add r0, r2, 3
	out res[r2], r0
	outct res[r2], 2
	chkct res[r2], 1
	out res[r2], r1
	outct res[r2], 2
	in r0, res[r2]
	chkct res[r2], 1
	freer res[r2]
	retsp 0
	# RETURN_REG_HOLDER
	.cc_bottom _i.port_heat_light_commands_if._chan.beeper_on_command.function
	.set	_i.port_heat_light_commands_if._chan.beeper_on_command.nstackwords,0
	.globl	_i.port_heat_light_commands_if._chan.beeper_on_command.nstackwords
	.weak	_i.port_heat_light_commands_if._chan.beeper_on_command.nstackwords
	.set	_i.port_heat_light_commands_if._chan.beeper_on_command.maxcores,1
	.globl	_i.port_heat_light_commands_if._chan.beeper_on_command.maxcores
	.weak	_i.port_heat_light_commands_if._chan.beeper_on_command.maxcores
	.set	_i.port_heat_light_commands_if._chan.beeper_on_command.maxtimers,0
	.globl	_i.port_heat_light_commands_if._chan.beeper_on_command.maxtimers
	.weak	_i.port_heat_light_commands_if._chan.beeper_on_command.maxtimers
	.set	_i.port_heat_light_commands_if._chan.beeper_on_command.maxchanends,1
	.globl	_i.port_heat_light_commands_if._chan.beeper_on_command.maxchanends
	.weak	_i.port_heat_light_commands_if._chan.beeper_on_command.maxchanends
.Ltmp111:
	.size	_i.port_heat_light_commands_if._chan.beeper_on_command, .Ltmp111-_i.port_heat_light_commands_if._chan.beeper_on_command
	.cfi_endproc

	.weak	_i.port_heat_light_commands_if._chan.set_light_composition
	.align	4
	.type	_i.port_heat_light_commands_if._chan.set_light_composition,@function
	.cc_top _i.port_heat_light_commands_if._chan.set_light_composition.function,_i.port_heat_light_commands_if._chan.set_light_composition
_i.port_heat_light_commands_if._chan.set_light_composition:
	.cfi_startproc
	getr r11, 2
	setd res[r11], r0
	add r0, r11, 2
	out res[r11], r0
	outct res[r11], 2
	chkct res[r11], 1
	out res[r11], r1
	out res[r11], r2
	out res[r11], r3
	outct res[r11], 2
	in r0, res[r11]
	chkct res[r11], 1
	freer res[r11]
	retsp 0
	# RETURN_REG_HOLDER
	.cc_bottom _i.port_heat_light_commands_if._chan.set_light_composition.function
	.set	_i.port_heat_light_commands_if._chan.set_light_composition.nstackwords,0
	.globl	_i.port_heat_light_commands_if._chan.set_light_composition.nstackwords
	.weak	_i.port_heat_light_commands_if._chan.set_light_composition.nstackwords
	.set	_i.port_heat_light_commands_if._chan.set_light_composition.maxcores,1
	.globl	_i.port_heat_light_commands_if._chan.set_light_composition.maxcores
	.weak	_i.port_heat_light_commands_if._chan.set_light_composition.maxcores
	.set	_i.port_heat_light_commands_if._chan.set_light_composition.maxtimers,0
	.globl	_i.port_heat_light_commands_if._chan.set_light_composition.maxtimers
	.weak	_i.port_heat_light_commands_if._chan.set_light_composition.maxtimers
	.set	_i.port_heat_light_commands_if._chan.set_light_composition.maxchanends,1
	.globl	_i.port_heat_light_commands_if._chan.set_light_composition.maxchanends
	.weak	_i.port_heat_light_commands_if._chan.set_light_composition.maxchanends
.Ltmp112:
	.size	_i.port_heat_light_commands_if._chan.set_light_composition, .Ltmp112-_i.port_heat_light_commands_if._chan.set_light_composition
	.cfi_endproc

	.weak	_i.port_heat_light_commands_if._chan.get_light_composition_etc
	.align	4
	.type	_i.port_heat_light_commands_if._chan.get_light_composition_etc,@function
	.cc_top _i.port_heat_light_commands_if._chan.get_light_composition_etc.function,_i.port_heat_light_commands_if._chan.get_light_composition_etc
_i.port_heat_light_commands_if._chan.get_light_composition_etc:
	.cfi_startproc
	entsp 3
.Ltmp113:
	.cfi_def_cfa_offset 12
.Ltmp114:
	.cfi_offset 15, 0
	stw r4, sp[2]
.Ltmp115:
	.cfi_offset 4, -4
	getr r4, 2
	setd res[r4], r0
	add r0, r4, 1
	out res[r4], r0
	outct res[r4], 2
	chkct res[r4], 1
	stw r1, sp[1]
	outct res[r4], 2
	ldaw r1, sp[1]
	mov r0, r4
	bl __interface_client_call
	in r0, res[r4]
	in r1, res[r4]
	in r2, res[r4]
	chkct res[r4], 1
	freer res[r4]
	ldw r4, sp[2]
	retsp 3
	# RETURN_REG_HOLDER
	.cc_bottom _i.port_heat_light_commands_if._chan.get_light_composition_etc.function
	.set	_i.port_heat_light_commands_if._chan.get_light_composition_etc.nstackwords,(__interface_client_call.nstackwords + 3)
	.globl	_i.port_heat_light_commands_if._chan.get_light_composition_etc.nstackwords
	.weak	_i.port_heat_light_commands_if._chan.get_light_composition_etc.nstackwords
	.set	_i.port_heat_light_commands_if._chan.get_light_composition_etc.maxcores,__interface_client_call.maxcores $M 1
	.globl	_i.port_heat_light_commands_if._chan.get_light_composition_etc.maxcores
	.weak	_i.port_heat_light_commands_if._chan.get_light_composition_etc.maxcores
	.set	_i.port_heat_light_commands_if._chan.get_light_composition_etc.maxtimers,__interface_client_call.maxtimers $M 0
	.globl	_i.port_heat_light_commands_if._chan.get_light_composition_etc.maxtimers
	.weak	_i.port_heat_light_commands_if._chan.get_light_composition_etc.maxtimers
	.set	_i.port_heat_light_commands_if._chan.get_light_composition_etc.maxchanends,(1 + __interface_client_call.maxchanends) $M 1
	.globl	_i.port_heat_light_commands_if._chan.get_light_composition_etc.maxchanends
	.weak	_i.port_heat_light_commands_if._chan.get_light_composition_etc.maxchanends
.Ltmp116:
	.size	_i.port_heat_light_commands_if._chan.get_light_composition_etc, .Ltmp116-_i.port_heat_light_commands_if._chan.get_light_composition_etc
	.cfi_endproc

	.weak	_i.port_heat_light_commands_if._chan.get_light_composition
	.align	4
	.type	_i.port_heat_light_commands_if._chan.get_light_composition,@function
	.cc_top _i.port_heat_light_commands_if._chan.get_light_composition.function,_i.port_heat_light_commands_if._chan.get_light_composition
_i.port_heat_light_commands_if._chan.get_light_composition:
	.cfi_startproc
	getr r1, 2
	setd res[r1], r0
	out res[r1], r1
	outct res[r1], 2
	in r0, res[r1]
	in r0, res[r1]
	chkct res[r1], 1
	freer res[r1]
	retsp 0
	# RETURN_REG_HOLDER
	.cc_bottom _i.port_heat_light_commands_if._chan.get_light_composition.function
	.set	_i.port_heat_light_commands_if._chan.get_light_composition.nstackwords,0
	.globl	_i.port_heat_light_commands_if._chan.get_light_composition.nstackwords
	.weak	_i.port_heat_light_commands_if._chan.get_light_composition.nstackwords
	.set	_i.port_heat_light_commands_if._chan.get_light_composition.maxcores,1
	.globl	_i.port_heat_light_commands_if._chan.get_light_composition.maxcores
	.weak	_i.port_heat_light_commands_if._chan.get_light_composition.maxcores
	.set	_i.port_heat_light_commands_if._chan.get_light_composition.maxtimers,0
	.globl	_i.port_heat_light_commands_if._chan.get_light_composition.maxtimers
	.weak	_i.port_heat_light_commands_if._chan.get_light_composition.maxtimers
	.set	_i.port_heat_light_commands_if._chan.get_light_composition.maxchanends,1
	.globl	_i.port_heat_light_commands_if._chan.get_light_composition.maxchanends
	.weak	_i.port_heat_light_commands_if._chan.get_light_composition.maxchanends
.Ltmp117:
	.size	_i.port_heat_light_commands_if._chan.get_light_composition, .Ltmp117-_i.port_heat_light_commands_if._chan.get_light_composition
	.cfi_endproc

	.weak	_i.port_heat_light_commands_if._chan_y.heat_cables_command
	.align	4
	.type	_i.port_heat_light_commands_if._chan_y.heat_cables_command,@function
	.cc_top _i.port_heat_light_commands_if._chan_y.heat_cables_command.function,_i.port_heat_light_commands_if._chan_y.heat_cables_command
_i.port_heat_light_commands_if._chan_y.heat_cables_command:
	.cfi_startproc
	entsp 2
.Ltmp118:
	.cfi_def_cfa_offset 8
.Ltmp119:
	.cfi_offset 15, 0
	stw r4, sp[1]
.Ltmp120:
	.cfi_offset 4, -4
	ldw r2, r0[0]
	getr r4, 2
	setd res[r4], r2
	add r2, r4, 5
	out res[r4], r2
	outct res[r4], 2
	chkct res[r4], 1
	out res[r4], r1
	outct res[r4], 2
	ldw r2, r0[1]
	ldc r1, 0
	mov r0, r4
	bl __interface_client_call_y
	chkct res[r4], 1
	freer res[r4]
	ldw r4, sp[1]
	retsp 2
	# RETURN_REG_HOLDER
	.cc_bottom _i.port_heat_light_commands_if._chan_y.heat_cables_command.function
	.set	_i.port_heat_light_commands_if._chan_y.heat_cables_command.nstackwords,((_i.port_heat_light_commands_if._client_call_y.max.nstackwords $M ($D __interface_client_call_y.nstackwords ? __interface_client_call_y.nstackwords $: _i.port_heat_light_commands_if._client_call_y.max.nstackwords)) + 2)
	.globl	_i.port_heat_light_commands_if._chan_y.heat_cables_command.nstackwords
	.weak	_i.port_heat_light_commands_if._chan_y.heat_cables_command.nstackwords
	.set	_i.port_heat_light_commands_if._chan_y.heat_cables_command.maxcores,($D __interface_client_call_y.maxcores ? __interface_client_call_y.maxcores $: _i.port_heat_light_commands_if._client_call_y.max.maxcores) $M 1
	.globl	_i.port_heat_light_commands_if._chan_y.heat_cables_command.maxcores
	.weak	_i.port_heat_light_commands_if._chan_y.heat_cables_command.maxcores
	.set	_i.port_heat_light_commands_if._chan_y.heat_cables_command.maxtimers,($D __interface_client_call_y.maxtimers ? __interface_client_call_y.maxtimers $: _i.port_heat_light_commands_if._client_call_y.max.maxtimers) $M 0
	.globl	_i.port_heat_light_commands_if._chan_y.heat_cables_command.maxtimers
	.weak	_i.port_heat_light_commands_if._chan_y.heat_cables_command.maxtimers
	.set	_i.port_heat_light_commands_if._chan_y.heat_cables_command.maxchanends,(1 + ($D __interface_client_call_y.maxchanends ? __interface_client_call_y.maxchanends $: _i.port_heat_light_commands_if._client_call_y.max.maxchanends)) $M 1
	.globl	_i.port_heat_light_commands_if._chan_y.heat_cables_command.maxchanends
	.weak	_i.port_heat_light_commands_if._chan_y.heat_cables_command.maxchanends
.Ltmp121:
	.size	_i.port_heat_light_commands_if._chan_y.heat_cables_command, .Ltmp121-_i.port_heat_light_commands_if._chan_y.heat_cables_command
	.cfi_endproc

	.weak	_i.port_heat_light_commands_if._chan_y.beeper_blip_command
	.align	4
	.type	_i.port_heat_light_commands_if._chan_y.beeper_blip_command,@function
	.cc_top _i.port_heat_light_commands_if._chan_y.beeper_blip_command.function,_i.port_heat_light_commands_if._chan_y.beeper_blip_command
_i.port_heat_light_commands_if._chan_y.beeper_blip_command:
	.cfi_startproc
	entsp 2
.Ltmp122:
	.cfi_def_cfa_offset 8
.Ltmp123:
	.cfi_offset 15, 0
	stw r4, sp[1]
.Ltmp124:
	.cfi_offset 4, -4
	ldw r2, r0[0]
	getr r4, 2
	setd res[r4], r2
	add r2, r4, 4
	out res[r4], r2
	outct res[r4], 2
	chkct res[r4], 1
	out res[r4], r1
	outct res[r4], 2
	ldw r2, r0[1]
	ldc r1, 0
	mov r0, r4
	bl __interface_client_call_y
	chkct res[r4], 1
	freer res[r4]
	ldw r4, sp[1]
	retsp 2
	# RETURN_REG_HOLDER
	.cc_bottom _i.port_heat_light_commands_if._chan_y.beeper_blip_command.function
	.set	_i.port_heat_light_commands_if._chan_y.beeper_blip_command.nstackwords,((_i.port_heat_light_commands_if._client_call_y.max.nstackwords $M ($D __interface_client_call_y.nstackwords ? __interface_client_call_y.nstackwords $: _i.port_heat_light_commands_if._client_call_y.max.nstackwords)) + 2)
	.globl	_i.port_heat_light_commands_if._chan_y.beeper_blip_command.nstackwords
	.weak	_i.port_heat_light_commands_if._chan_y.beeper_blip_command.nstackwords
	.set	_i.port_heat_light_commands_if._chan_y.beeper_blip_command.maxcores,($D __interface_client_call_y.maxcores ? __interface_client_call_y.maxcores $: _i.port_heat_light_commands_if._client_call_y.max.maxcores) $M 1
	.globl	_i.port_heat_light_commands_if._chan_y.beeper_blip_command.maxcores
	.weak	_i.port_heat_light_commands_if._chan_y.beeper_blip_command.maxcores
	.set	_i.port_heat_light_commands_if._chan_y.beeper_blip_command.maxtimers,($D __interface_client_call_y.maxtimers ? __interface_client_call_y.maxtimers $: _i.port_heat_light_commands_if._client_call_y.max.maxtimers) $M 0
	.globl	_i.port_heat_light_commands_if._chan_y.beeper_blip_command.maxtimers
	.weak	_i.port_heat_light_commands_if._chan_y.beeper_blip_command.maxtimers
	.set	_i.port_heat_light_commands_if._chan_y.beeper_blip_command.maxchanends,(1 + ($D __interface_client_call_y.maxchanends ? __interface_client_call_y.maxchanends $: _i.port_heat_light_commands_if._client_call_y.max.maxchanends)) $M 1
	.globl	_i.port_heat_light_commands_if._chan_y.beeper_blip_command.maxchanends
	.weak	_i.port_heat_light_commands_if._chan_y.beeper_blip_command.maxchanends
.Ltmp125:
	.size	_i.port_heat_light_commands_if._chan_y.beeper_blip_command, .Ltmp125-_i.port_heat_light_commands_if._chan_y.beeper_blip_command
	.cfi_endproc

	.weak	_i.port_heat_light_commands_if._chan_y.beeper_on_command
	.align	4
	.type	_i.port_heat_light_commands_if._chan_y.beeper_on_command,@function
	.cc_top _i.port_heat_light_commands_if._chan_y.beeper_on_command.function,_i.port_heat_light_commands_if._chan_y.beeper_on_command
_i.port_heat_light_commands_if._chan_y.beeper_on_command:
	.cfi_startproc
	entsp 2
.Ltmp126:
	.cfi_def_cfa_offset 8
.Ltmp127:
	.cfi_offset 15, 0
	stw r4, sp[1]
.Ltmp128:
	.cfi_offset 4, -4
	ldw r2, r0[0]
	getr r4, 2
	setd res[r4], r2
	add r2, r4, 3
	out res[r4], r2
	outct res[r4], 2
	chkct res[r4], 1
	out res[r4], r1
	outct res[r4], 2
	ldw r2, r0[1]
	ldc r1, 0
	mov r0, r4
	bl __interface_client_call_y
	chkct res[r4], 1
	freer res[r4]
	ldw r4, sp[1]
	retsp 2
	# RETURN_REG_HOLDER
	.cc_bottom _i.port_heat_light_commands_if._chan_y.beeper_on_command.function
	.set	_i.port_heat_light_commands_if._chan_y.beeper_on_command.nstackwords,((_i.port_heat_light_commands_if._client_call_y.max.nstackwords $M ($D __interface_client_call_y.nstackwords ? __interface_client_call_y.nstackwords $: _i.port_heat_light_commands_if._client_call_y.max.nstackwords)) + 2)
	.globl	_i.port_heat_light_commands_if._chan_y.beeper_on_command.nstackwords
	.weak	_i.port_heat_light_commands_if._chan_y.beeper_on_command.nstackwords
	.set	_i.port_heat_light_commands_if._chan_y.beeper_on_command.maxcores,($D __interface_client_call_y.maxcores ? __interface_client_call_y.maxcores $: _i.port_heat_light_commands_if._client_call_y.max.maxcores) $M 1
	.globl	_i.port_heat_light_commands_if._chan_y.beeper_on_command.maxcores
	.weak	_i.port_heat_light_commands_if._chan_y.beeper_on_command.maxcores
	.set	_i.port_heat_light_commands_if._chan_y.beeper_on_command.maxtimers,($D __interface_client_call_y.maxtimers ? __interface_client_call_y.maxtimers $: _i.port_heat_light_commands_if._client_call_y.max.maxtimers) $M 0
	.globl	_i.port_heat_light_commands_if._chan_y.beeper_on_command.maxtimers
	.weak	_i.port_heat_light_commands_if._chan_y.beeper_on_command.maxtimers
	.set	_i.port_heat_light_commands_if._chan_y.beeper_on_command.maxchanends,(1 + ($D __interface_client_call_y.maxchanends ? __interface_client_call_y.maxchanends $: _i.port_heat_light_commands_if._client_call_y.max.maxchanends)) $M 1
	.globl	_i.port_heat_light_commands_if._chan_y.beeper_on_command.maxchanends
	.weak	_i.port_heat_light_commands_if._chan_y.beeper_on_command.maxchanends
.Ltmp129:
	.size	_i.port_heat_light_commands_if._chan_y.beeper_on_command, .Ltmp129-_i.port_heat_light_commands_if._chan_y.beeper_on_command
	.cfi_endproc

	.weak	_i.port_heat_light_commands_if._chan_y.set_light_composition
	.align	4
	.type	_i.port_heat_light_commands_if._chan_y.set_light_composition,@function
	.cc_top _i.port_heat_light_commands_if._chan_y.set_light_composition.function,_i.port_heat_light_commands_if._chan_y.set_light_composition
_i.port_heat_light_commands_if._chan_y.set_light_composition:
	.cfi_startproc
	entsp 2
.Ltmp130:
	.cfi_def_cfa_offset 8
.Ltmp131:
	.cfi_offset 15, 0
	stw r4, sp[1]
.Ltmp132:
	.cfi_offset 4, -4
	ldw r11, r0[0]
	getr r4, 2
	setd res[r4], r11
	add r11, r4, 2
	out res[r4], r11
	outct res[r4], 2
	chkct res[r4], 1
	out res[r4], r1
	out res[r4], r2
	out res[r4], r3
	outct res[r4], 2
	ldw r2, r0[1]
	ldc r1, 0
	mov r0, r4
	bl __interface_client_call_y
	chkct res[r4], 1
	freer res[r4]
	ldw r4, sp[1]
	retsp 2
	# RETURN_REG_HOLDER
	.cc_bottom _i.port_heat_light_commands_if._chan_y.set_light_composition.function
	.set	_i.port_heat_light_commands_if._chan_y.set_light_composition.nstackwords,((_i.port_heat_light_commands_if._client_call_y.max.nstackwords $M ($D __interface_client_call_y.nstackwords ? __interface_client_call_y.nstackwords $: _i.port_heat_light_commands_if._client_call_y.max.nstackwords)) + 2)
	.globl	_i.port_heat_light_commands_if._chan_y.set_light_composition.nstackwords
	.weak	_i.port_heat_light_commands_if._chan_y.set_light_composition.nstackwords
	.set	_i.port_heat_light_commands_if._chan_y.set_light_composition.maxcores,($D __interface_client_call_y.maxcores ? __interface_client_call_y.maxcores $: _i.port_heat_light_commands_if._client_call_y.max.maxcores) $M 1
	.globl	_i.port_heat_light_commands_if._chan_y.set_light_composition.maxcores
	.weak	_i.port_heat_light_commands_if._chan_y.set_light_composition.maxcores
	.set	_i.port_heat_light_commands_if._chan_y.set_light_composition.maxtimers,($D __interface_client_call_y.maxtimers ? __interface_client_call_y.maxtimers $: _i.port_heat_light_commands_if._client_call_y.max.maxtimers) $M 0
	.globl	_i.port_heat_light_commands_if._chan_y.set_light_composition.maxtimers
	.weak	_i.port_heat_light_commands_if._chan_y.set_light_composition.maxtimers
	.set	_i.port_heat_light_commands_if._chan_y.set_light_composition.maxchanends,(1 + ($D __interface_client_call_y.maxchanends ? __interface_client_call_y.maxchanends $: _i.port_heat_light_commands_if._client_call_y.max.maxchanends)) $M 1
	.globl	_i.port_heat_light_commands_if._chan_y.set_light_composition.maxchanends
	.weak	_i.port_heat_light_commands_if._chan_y.set_light_composition.maxchanends
.Ltmp133:
	.size	_i.port_heat_light_commands_if._chan_y.set_light_composition, .Ltmp133-_i.port_heat_light_commands_if._chan_y.set_light_composition
	.cfi_endproc

	.weak	_i.port_heat_light_commands_if._chan_y.get_light_composition_etc
	.align	4
	.type	_i.port_heat_light_commands_if._chan_y.get_light_composition_etc,@function
	.cc_top _i.port_heat_light_commands_if._chan_y.get_light_composition_etc.function,_i.port_heat_light_commands_if._chan_y.get_light_composition_etc
_i.port_heat_light_commands_if._chan_y.get_light_composition_etc:
	.cfi_startproc
	entsp 3
.Ltmp134:
	.cfi_def_cfa_offset 12
.Ltmp135:
	.cfi_offset 15, 0
	stw r4, sp[2]
.Ltmp136:
	.cfi_offset 4, -4
	ldw r2, r0[0]
	getr r4, 2
	setd res[r4], r2
	add r2, r4, 1
	out res[r4], r2
	outct res[r4], 2
	chkct res[r4], 1
	stw r1, sp[1]
	outct res[r4], 2
	ldw r2, r0[1]
	ldaw r1, sp[1]
	mov r0, r4
	bl __interface_client_call_y
	in r0, res[r4]
	in r1, res[r4]
	in r2, res[r4]
	chkct res[r4], 1
	freer res[r4]
	ldw r4, sp[2]
	retsp 3
	# RETURN_REG_HOLDER
	.cc_bottom _i.port_heat_light_commands_if._chan_y.get_light_composition_etc.function
	.set	_i.port_heat_light_commands_if._chan_y.get_light_composition_etc.nstackwords,((_i.port_heat_light_commands_if._client_call_y.max.nstackwords $M ($D __interface_client_call_y.nstackwords ? __interface_client_call_y.nstackwords $: _i.port_heat_light_commands_if._client_call_y.max.nstackwords)) + 3)
	.globl	_i.port_heat_light_commands_if._chan_y.get_light_composition_etc.nstackwords
	.weak	_i.port_heat_light_commands_if._chan_y.get_light_composition_etc.nstackwords
	.set	_i.port_heat_light_commands_if._chan_y.get_light_composition_etc.maxcores,($D __interface_client_call_y.maxcores ? __interface_client_call_y.maxcores $: _i.port_heat_light_commands_if._client_call_y.max.maxcores) $M 1
	.globl	_i.port_heat_light_commands_if._chan_y.get_light_composition_etc.maxcores
	.weak	_i.port_heat_light_commands_if._chan_y.get_light_composition_etc.maxcores
	.set	_i.port_heat_light_commands_if._chan_y.get_light_composition_etc.maxtimers,($D __interface_client_call_y.maxtimers ? __interface_client_call_y.maxtimers $: _i.port_heat_light_commands_if._client_call_y.max.maxtimers) $M 0
	.globl	_i.port_heat_light_commands_if._chan_y.get_light_composition_etc.maxtimers
	.weak	_i.port_heat_light_commands_if._chan_y.get_light_composition_etc.maxtimers
	.set	_i.port_heat_light_commands_if._chan_y.get_light_composition_etc.maxchanends,(1 + ($D __interface_client_call_y.maxchanends ? __interface_client_call_y.maxchanends $: _i.port_heat_light_commands_if._client_call_y.max.maxchanends)) $M 1
	.globl	_i.port_heat_light_commands_if._chan_y.get_light_composition_etc.maxchanends
	.weak	_i.port_heat_light_commands_if._chan_y.get_light_composition_etc.maxchanends
.Ltmp137:
	.size	_i.port_heat_light_commands_if._chan_y.get_light_composition_etc, .Ltmp137-_i.port_heat_light_commands_if._chan_y.get_light_composition_etc
	.cfi_endproc

	.weak	_i.port_heat_light_commands_if._chan_y.get_light_composition
	.align	4
	.type	_i.port_heat_light_commands_if._chan_y.get_light_composition,@function
	.cc_top _i.port_heat_light_commands_if._chan_y.get_light_composition.function,_i.port_heat_light_commands_if._chan_y.get_light_composition
_i.port_heat_light_commands_if._chan_y.get_light_composition:
	.cfi_startproc
	entsp 2
.Ltmp138:
	.cfi_def_cfa_offset 8
.Ltmp139:
	.cfi_offset 15, 0
	stw r4, sp[1]
.Ltmp140:
	.cfi_offset 4, -4
	ldw r1, r0[0]
	getr r4, 2
	setd res[r4], r1
	out res[r4], r4
	outct res[r4], 2
	ldw r2, r0[1]
	ldc r1, 0
	mov r0, r4
	bl __interface_client_call_y
	in r0, res[r4]
	chkct res[r4], 1
	freer res[r4]
	ldw r4, sp[1]
	retsp 2
	# RETURN_REG_HOLDER
	.cc_bottom _i.port_heat_light_commands_if._chan_y.get_light_composition.function
	.set	_i.port_heat_light_commands_if._chan_y.get_light_composition.nstackwords,((_i.port_heat_light_commands_if._client_call_y.max.nstackwords $M ($D __interface_client_call_y.nstackwords ? __interface_client_call_y.nstackwords $: _i.port_heat_light_commands_if._client_call_y.max.nstackwords)) + 2)
	.globl	_i.port_heat_light_commands_if._chan_y.get_light_composition.nstackwords
	.weak	_i.port_heat_light_commands_if._chan_y.get_light_composition.nstackwords
	.set	_i.port_heat_light_commands_if._chan_y.get_light_composition.maxcores,($D __interface_client_call_y.maxcores ? __interface_client_call_y.maxcores $: _i.port_heat_light_commands_if._client_call_y.max.maxcores) $M 1
	.globl	_i.port_heat_light_commands_if._chan_y.get_light_composition.maxcores
	.weak	_i.port_heat_light_commands_if._chan_y.get_light_composition.maxcores
	.set	_i.port_heat_light_commands_if._chan_y.get_light_composition.maxtimers,($D __interface_client_call_y.maxtimers ? __interface_client_call_y.maxtimers $: _i.port_heat_light_commands_if._client_call_y.max.maxtimers) $M 0
	.globl	_i.port_heat_light_commands_if._chan_y.get_light_composition.maxtimers
	.weak	_i.port_heat_light_commands_if._chan_y.get_light_composition.maxtimers
	.set	_i.port_heat_light_commands_if._chan_y.get_light_composition.maxchanends,(1 + ($D __interface_client_call_y.maxchanends ? __interface_client_call_y.maxchanends $: _i.port_heat_light_commands_if._client_call_y.max.maxchanends)) $M 1
	.globl	_i.port_heat_light_commands_if._chan_y.get_light_composition.maxchanends
	.weak	_i.port_heat_light_commands_if._chan_y.get_light_composition.maxchanends
.Ltmp141:
	.size	_i.port_heat_light_commands_if._chan_y.get_light_composition, .Ltmp141-_i.port_heat_light_commands_if._chan_y.get_light_composition
	.cfi_endproc

	.weak	_i.temperature_heater_commands_if._chan.get_regulator_data
	.align	4
	.type	_i.temperature_heater_commands_if._chan.get_regulator_data,@function
	.cc_top _i.temperature_heater_commands_if._chan.get_regulator_data.function,_i.temperature_heater_commands_if._chan.get_regulator_data
_i.temperature_heater_commands_if._chan.get_regulator_data:
	.cfi_startproc
	entsp 3
.Ltmp142:
	.cfi_def_cfa_offset 12
.Ltmp143:
	.cfi_offset 15, 0
	stw r4, sp[2]
.Ltmp144:
	.cfi_offset 4, -4
	stw r5, sp[1]
.Ltmp145:
	.cfi_offset 5, -8
	mov r4, r1
	getr r5, 2
	setd res[r5], r0
	add r0, r5, 4
	out res[r5], r0
	outct res[r5], 2
	ldc r1, 0
	mov r0, r5
	bl __interface_wait_and_yield
	chkct res[r5], 1
	out res[r5], r4
	outct res[r5], 2
	in r0, res[r5]
	in r0, res[r5]
	in r1, res[r5]
	chkct res[r5], 1
	freer res[r5]
	ldw r5, sp[1]
	ldw r4, sp[2]
	retsp 3
	# RETURN_REG_HOLDER
	.cc_bottom _i.temperature_heater_commands_if._chan.get_regulator_data.function
	.set	_i.temperature_heater_commands_if._chan.get_regulator_data.nstackwords,((_i.temperature_heater_commands_if._client_call_y.max.nstackwords $M ($D __interface_wait_and_yield.nstackwords ? __interface_wait_and_yield.nstackwords $: _i.temperature_heater_commands_if._client_call_y.max.nstackwords)) + 3)
	.globl	_i.temperature_heater_commands_if._chan.get_regulator_data.nstackwords
	.weak	_i.temperature_heater_commands_if._chan.get_regulator_data.nstackwords
	.set	_i.temperature_heater_commands_if._chan.get_regulator_data.maxcores,($D __interface_wait_and_yield.maxcores ? __interface_wait_and_yield.maxcores $: _i.temperature_heater_commands_if._client_call_y.max.maxcores) $M 1
	.globl	_i.temperature_heater_commands_if._chan.get_regulator_data.maxcores
	.weak	_i.temperature_heater_commands_if._chan.get_regulator_data.maxcores
	.set	_i.temperature_heater_commands_if._chan.get_regulator_data.maxtimers,($D __interface_wait_and_yield.maxtimers ? __interface_wait_and_yield.maxtimers $: _i.temperature_heater_commands_if._client_call_y.max.maxtimers) $M 0
	.globl	_i.temperature_heater_commands_if._chan.get_regulator_data.maxtimers
	.weak	_i.temperature_heater_commands_if._chan.get_regulator_data.maxtimers
	.set	_i.temperature_heater_commands_if._chan.get_regulator_data.maxchanends,(1 + ($D __interface_wait_and_yield.maxchanends ? __interface_wait_and_yield.maxchanends $: _i.temperature_heater_commands_if._client_call_y.max.maxchanends)) $M 1
	.globl	_i.temperature_heater_commands_if._chan.get_regulator_data.maxchanends
	.weak	_i.temperature_heater_commands_if._chan.get_regulator_data.maxchanends
.Ltmp146:
	.size	_i.temperature_heater_commands_if._chan.get_regulator_data, .Ltmp146-_i.temperature_heater_commands_if._chan.get_regulator_data
	.cfi_endproc

	.weak	_i.temperature_heater_commands_if._chan.get_temp_degC_string
	.align	4
	.type	_i.temperature_heater_commands_if._chan.get_temp_degC_string,@function
	.cc_top _i.temperature_heater_commands_if._chan.get_temp_degC_string.function,_i.temperature_heater_commands_if._chan.get_temp_degC_string
_i.temperature_heater_commands_if._chan.get_temp_degC_string:
	.cfi_startproc
	entsp 5
.Ltmp147:
	.cfi_def_cfa_offset 20
.Ltmp148:
	.cfi_offset 15, 0
	stw r4, sp[4]
.Ltmp149:
	.cfi_offset 4, -4
	stw r5, sp[3]
.Ltmp150:
	.cfi_offset 5, -8
	stw r6, sp[2]
.Ltmp151:
	.cfi_offset 6, -12
	mov r4, r2
	mov r5, r1
	getr r6, 2
	setd res[r6], r0
	add r0, r6, 3
	out res[r6], r0
	outct res[r6], 2
	ldc r1, 0
	mov r0, r6
	bl __interface_wait_and_yield
	chkct res[r6], 1
	out res[r6], r5
	stw r4, sp[1]
	outct res[r6], 2
	ldaw r1, sp[1]
	mov r0, r6
	bl __interface_client_call
	chkct res[r6], 1
	freer res[r6]
	ldw r6, sp[2]
	ldw r5, sp[3]
	ldw r4, sp[4]
	retsp 5
	# RETURN_REG_HOLDER
	.cc_bottom _i.temperature_heater_commands_if._chan.get_temp_degC_string.function
	.set	_i.temperature_heater_commands_if._chan.get_temp_degC_string.nstackwords,((_i.temperature_heater_commands_if._client_call_y.max.nstackwords $M ($D __interface_wait_and_yield.nstackwords ? __interface_wait_and_yield.nstackwords $: _i.temperature_heater_commands_if._client_call_y.max.nstackwords) $M __interface_client_call.nstackwords) + 5)
	.globl	_i.temperature_heater_commands_if._chan.get_temp_degC_string.nstackwords
	.weak	_i.temperature_heater_commands_if._chan.get_temp_degC_string.nstackwords
	.set	_i.temperature_heater_commands_if._chan.get_temp_degC_string.maxcores,__interface_client_call.maxcores $M ($D __interface_wait_and_yield.maxcores ? __interface_wait_and_yield.maxcores $: _i.temperature_heater_commands_if._client_call_y.max.maxcores) $M 1
	.globl	_i.temperature_heater_commands_if._chan.get_temp_degC_string.maxcores
	.weak	_i.temperature_heater_commands_if._chan.get_temp_degC_string.maxcores
	.set	_i.temperature_heater_commands_if._chan.get_temp_degC_string.maxtimers,__interface_client_call.maxtimers $M ($D __interface_wait_and_yield.maxtimers ? __interface_wait_and_yield.maxtimers $: _i.temperature_heater_commands_if._client_call_y.max.maxtimers) $M 0
	.globl	_i.temperature_heater_commands_if._chan.get_temp_degC_string.maxtimers
	.weak	_i.temperature_heater_commands_if._chan.get_temp_degC_string.maxtimers
	.set	_i.temperature_heater_commands_if._chan.get_temp_degC_string.maxchanends,(1 + __interface_client_call.maxchanends) $M (1 + ($D __interface_wait_and_yield.maxchanends ? __interface_wait_and_yield.maxchanends $: _i.temperature_heater_commands_if._client_call_y.max.maxchanends)) $M 1
	.globl	_i.temperature_heater_commands_if._chan.get_temp_degC_string.maxchanends
	.weak	_i.temperature_heater_commands_if._chan.get_temp_degC_string.maxchanends
.Ltmp152:
	.size	_i.temperature_heater_commands_if._chan.get_temp_degC_string, .Ltmp152-_i.temperature_heater_commands_if._chan.get_temp_degC_string
	.cfi_endproc

	.weak	_i.temperature_heater_commands_if._chan.get_temps
	.align	4
	.type	_i.temperature_heater_commands_if._chan.get_temps,@function
	.cc_top _i.temperature_heater_commands_if._chan.get_temps.function,_i.temperature_heater_commands_if._chan.get_temps
_i.temperature_heater_commands_if._chan.get_temps:
	.cfi_startproc
	entsp 4
.Ltmp153:
	.cfi_def_cfa_offset 16
.Ltmp154:
	.cfi_offset 15, 0
	stw r4, sp[3]
.Ltmp155:
	.cfi_offset 4, -4
	stw r5, sp[2]
.Ltmp156:
	.cfi_offset 5, -8
	mov r4, r1
	getr r5, 2
	setd res[r5], r0
	add r0, r5, 2
	out res[r5], r0
	outct res[r5], 2
	ldc r1, 0
	mov r0, r5
	bl __interface_wait_and_yield
	chkct res[r5], 1
	stw r4, sp[1]
	outct res[r5], 2
	ldaw r1, sp[1]
	mov r0, r5
	bl __interface_client_call
	chkct res[r5], 1
	freer res[r5]
	ldw r5, sp[2]
	ldw r4, sp[3]
	retsp 4
	# RETURN_REG_HOLDER
	.cc_bottom _i.temperature_heater_commands_if._chan.get_temps.function
	.set	_i.temperature_heater_commands_if._chan.get_temps.nstackwords,((_i.temperature_heater_commands_if._client_call_y.max.nstackwords $M ($D __interface_wait_and_yield.nstackwords ? __interface_wait_and_yield.nstackwords $: _i.temperature_heater_commands_if._client_call_y.max.nstackwords) $M __interface_client_call.nstackwords) + 4)
	.globl	_i.temperature_heater_commands_if._chan.get_temps.nstackwords
	.weak	_i.temperature_heater_commands_if._chan.get_temps.nstackwords
	.set	_i.temperature_heater_commands_if._chan.get_temps.maxcores,__interface_client_call.maxcores $M ($D __interface_wait_and_yield.maxcores ? __interface_wait_and_yield.maxcores $: _i.temperature_heater_commands_if._client_call_y.max.maxcores) $M 1
	.globl	_i.temperature_heater_commands_if._chan.get_temps.maxcores
	.weak	_i.temperature_heater_commands_if._chan.get_temps.maxcores
	.set	_i.temperature_heater_commands_if._chan.get_temps.maxtimers,__interface_client_call.maxtimers $M ($D __interface_wait_and_yield.maxtimers ? __interface_wait_and_yield.maxtimers $: _i.temperature_heater_commands_if._client_call_y.max.maxtimers) $M 0
	.globl	_i.temperature_heater_commands_if._chan.get_temps.maxtimers
	.weak	_i.temperature_heater_commands_if._chan.get_temps.maxtimers
	.set	_i.temperature_heater_commands_if._chan.get_temps.maxchanends,(1 + __interface_client_call.maxchanends) $M (1 + ($D __interface_wait_and_yield.maxchanends ? __interface_wait_and_yield.maxchanends $: _i.temperature_heater_commands_if._client_call_y.max.maxchanends)) $M 1
	.globl	_i.temperature_heater_commands_if._chan.get_temps.maxchanends
	.weak	_i.temperature_heater_commands_if._chan.get_temps.maxchanends
.Ltmp157:
	.size	_i.temperature_heater_commands_if._chan.get_temps, .Ltmp157-_i.temperature_heater_commands_if._chan.get_temps
	.cfi_endproc

	.weak	_i.temperature_heater_commands_if._chan.heater_set_temp_degC
	.align	4
	.type	_i.temperature_heater_commands_if._chan.heater_set_temp_degC,@function
	.cc_top _i.temperature_heater_commands_if._chan.heater_set_temp_degC.function,_i.temperature_heater_commands_if._chan.heater_set_temp_degC
_i.temperature_heater_commands_if._chan.heater_set_temp_degC:
	.cfi_startproc
	entsp 4
.Ltmp158:
	.cfi_def_cfa_offset 16
.Ltmp159:
	.cfi_offset 15, 0
	stw r4, sp[3]
.Ltmp160:
	.cfi_offset 4, -4
	stw r5, sp[2]
.Ltmp161:
	.cfi_offset 5, -8
	stw r6, sp[1]
.Ltmp162:
	.cfi_offset 6, -12
	mov r4, r2
	mov r5, r1
	getr r6, 2
	setd res[r6], r0
	add r0, r6, 1
	out res[r6], r0
	outct res[r6], 2
	ldc r1, 0
	mov r0, r6
	bl __interface_wait_and_yield
	chkct res[r6], 1
	out res[r6], r5
	out res[r6], r4
	outct res[r6], 2
	in r0, res[r6]
	chkct res[r6], 1
	freer res[r6]
	ldw r6, sp[1]
	ldw r5, sp[2]
	ldw r4, sp[3]
	retsp 4
	# RETURN_REG_HOLDER
	.cc_bottom _i.temperature_heater_commands_if._chan.heater_set_temp_degC.function
	.set	_i.temperature_heater_commands_if._chan.heater_set_temp_degC.nstackwords,((_i.temperature_heater_commands_if._client_call_y.max.nstackwords $M ($D __interface_wait_and_yield.nstackwords ? __interface_wait_and_yield.nstackwords $: _i.temperature_heater_commands_if._client_call_y.max.nstackwords)) + 4)
	.globl	_i.temperature_heater_commands_if._chan.heater_set_temp_degC.nstackwords
	.weak	_i.temperature_heater_commands_if._chan.heater_set_temp_degC.nstackwords
	.set	_i.temperature_heater_commands_if._chan.heater_set_temp_degC.maxcores,($D __interface_wait_and_yield.maxcores ? __interface_wait_and_yield.maxcores $: _i.temperature_heater_commands_if._client_call_y.max.maxcores) $M 1
	.globl	_i.temperature_heater_commands_if._chan.heater_set_temp_degC.maxcores
	.weak	_i.temperature_heater_commands_if._chan.heater_set_temp_degC.maxcores
	.set	_i.temperature_heater_commands_if._chan.heater_set_temp_degC.maxtimers,($D __interface_wait_and_yield.maxtimers ? __interface_wait_and_yield.maxtimers $: _i.temperature_heater_commands_if._client_call_y.max.maxtimers) $M 0
	.globl	_i.temperature_heater_commands_if._chan.heater_set_temp_degC.maxtimers
	.weak	_i.temperature_heater_commands_if._chan.heater_set_temp_degC.maxtimers
	.set	_i.temperature_heater_commands_if._chan.heater_set_temp_degC.maxchanends,(1 + ($D __interface_wait_and_yield.maxchanends ? __interface_wait_and_yield.maxchanends $: _i.temperature_heater_commands_if._client_call_y.max.maxchanends)) $M 1
	.globl	_i.temperature_heater_commands_if._chan.heater_set_temp_degC.maxchanends
	.weak	_i.temperature_heater_commands_if._chan.heater_set_temp_degC.maxchanends
.Ltmp163:
	.size	_i.temperature_heater_commands_if._chan.heater_set_temp_degC, .Ltmp163-_i.temperature_heater_commands_if._chan.heater_set_temp_degC
	.cfi_endproc

	.weak	_i.temperature_heater_commands_if._chan.heater_set_proportional
	.align	4
	.type	_i.temperature_heater_commands_if._chan.heater_set_proportional,@function
	.cc_top _i.temperature_heater_commands_if._chan.heater_set_proportional.function,_i.temperature_heater_commands_if._chan.heater_set_proportional
_i.temperature_heater_commands_if._chan.heater_set_proportional:
	.cfi_startproc
	entsp 4
.Ltmp164:
	.cfi_def_cfa_offset 16
.Ltmp165:
	.cfi_offset 15, 0
	stw r4, sp[3]
.Ltmp166:
	.cfi_offset 4, -4
	stw r5, sp[2]
.Ltmp167:
	.cfi_offset 5, -8
	stw r6, sp[1]
.Ltmp168:
	.cfi_offset 6, -12
	mov r4, r2
	mov r5, r1
	getr r6, 2
	setd res[r6], r0
	out res[r6], r6
	outct res[r6], 2
	ldc r1, 0
	mov r0, r6
	bl __interface_wait_and_yield
	chkct res[r6], 1
	out res[r6], r5
	out res[r6], r4
	outct res[r6], 2
	in r0, res[r6]
	chkct res[r6], 1
	freer res[r6]
	ldw r6, sp[1]
	ldw r5, sp[2]
	ldw r4, sp[3]
	retsp 4
	# RETURN_REG_HOLDER
	.cc_bottom _i.temperature_heater_commands_if._chan.heater_set_proportional.function
	.set	_i.temperature_heater_commands_if._chan.heater_set_proportional.nstackwords,((_i.temperature_heater_commands_if._client_call_y.max.nstackwords $M ($D __interface_wait_and_yield.nstackwords ? __interface_wait_and_yield.nstackwords $: _i.temperature_heater_commands_if._client_call_y.max.nstackwords)) + 4)
	.globl	_i.temperature_heater_commands_if._chan.heater_set_proportional.nstackwords
	.weak	_i.temperature_heater_commands_if._chan.heater_set_proportional.nstackwords
	.set	_i.temperature_heater_commands_if._chan.heater_set_proportional.maxcores,($D __interface_wait_and_yield.maxcores ? __interface_wait_and_yield.maxcores $: _i.temperature_heater_commands_if._client_call_y.max.maxcores) $M 1
	.globl	_i.temperature_heater_commands_if._chan.heater_set_proportional.maxcores
	.weak	_i.temperature_heater_commands_if._chan.heater_set_proportional.maxcores
	.set	_i.temperature_heater_commands_if._chan.heater_set_proportional.maxtimers,($D __interface_wait_and_yield.maxtimers ? __interface_wait_and_yield.maxtimers $: _i.temperature_heater_commands_if._client_call_y.max.maxtimers) $M 0
	.globl	_i.temperature_heater_commands_if._chan.heater_set_proportional.maxtimers
	.weak	_i.temperature_heater_commands_if._chan.heater_set_proportional.maxtimers
	.set	_i.temperature_heater_commands_if._chan.heater_set_proportional.maxchanends,(1 + ($D __interface_wait_and_yield.maxchanends ? __interface_wait_and_yield.maxchanends $: _i.temperature_heater_commands_if._client_call_y.max.maxchanends)) $M 1
	.globl	_i.temperature_heater_commands_if._chan.heater_set_proportional.maxchanends
	.weak	_i.temperature_heater_commands_if._chan.heater_set_proportional.maxchanends
.Ltmp169:
	.size	_i.temperature_heater_commands_if._chan.heater_set_proportional, .Ltmp169-_i.temperature_heater_commands_if._chan.heater_set_proportional
	.cfi_endproc

	.weak	_i.temperature_heater_commands_if._chan_y.get_regulator_data
	.align	4
	.type	_i.temperature_heater_commands_if._chan_y.get_regulator_data,@function
	.cc_top _i.temperature_heater_commands_if._chan_y.get_regulator_data.function,_i.temperature_heater_commands_if._chan_y.get_regulator_data
_i.temperature_heater_commands_if._chan_y.get_regulator_data:
	.cfi_startproc
	entsp 4
.Ltmp170:
	.cfi_def_cfa_offset 16
.Ltmp171:
	.cfi_offset 15, 0
	stw r4, sp[3]
.Ltmp172:
	.cfi_offset 4, -4
	stw r5, sp[2]
.Ltmp173:
	.cfi_offset 5, -8
	stw r6, sp[1]
.Ltmp174:
	.cfi_offset 6, -12
	mov r4, r1
	ldw r1, r0[0]
	getr r5, 2
	setd res[r5], r1
	add r1, r5, 4
	out res[r5], r1
	outct res[r5], 2
	ldw r6, r0[1]
	mov r0, r5
	mov r1, r6
	bl __interface_wait_and_yield
	chkct res[r5], 1
	out res[r5], r4
	outct res[r5], 2
	ldc r1, 0
	mov r0, r5
	mov r2, r6
	bl __interface_client_call_y
	in r0, res[r5]
	in r1, res[r5]
	chkct res[r5], 1
	freer res[r5]
	ldw r6, sp[1]
	ldw r5, sp[2]
	ldw r4, sp[3]
	retsp 4
	# RETURN_REG_HOLDER
	.cc_bottom _i.temperature_heater_commands_if._chan_y.get_regulator_data.function
	.set	_i.temperature_heater_commands_if._chan_y.get_regulator_data.nstackwords,((($D __interface_wait_and_yield.nstackwords ? __interface_wait_and_yield.nstackwords $: _i.temperature_heater_commands_if._client_call_y.max.nstackwords) $M _i.temperature_heater_commands_if._client_call_y.max.nstackwords $M ($D __interface_client_call_y.nstackwords ? __interface_client_call_y.nstackwords $: _i.temperature_heater_commands_if._client_call_y.max.nstackwords)) + 4)
	.globl	_i.temperature_heater_commands_if._chan_y.get_regulator_data.nstackwords
	.weak	_i.temperature_heater_commands_if._chan_y.get_regulator_data.nstackwords
	.set	_i.temperature_heater_commands_if._chan_y.get_regulator_data.maxcores,($D __interface_client_call_y.maxcores ? __interface_client_call_y.maxcores $: _i.temperature_heater_commands_if._client_call_y.max.maxcores) $M ($D __interface_wait_and_yield.maxcores ? __interface_wait_and_yield.maxcores $: _i.temperature_heater_commands_if._client_call_y.max.maxcores) $M 1
	.globl	_i.temperature_heater_commands_if._chan_y.get_regulator_data.maxcores
	.weak	_i.temperature_heater_commands_if._chan_y.get_regulator_data.maxcores
	.set	_i.temperature_heater_commands_if._chan_y.get_regulator_data.maxtimers,($D __interface_client_call_y.maxtimers ? __interface_client_call_y.maxtimers $: _i.temperature_heater_commands_if._client_call_y.max.maxtimers) $M ($D __interface_wait_and_yield.maxtimers ? __interface_wait_and_yield.maxtimers $: _i.temperature_heater_commands_if._client_call_y.max.maxtimers) $M 0
	.globl	_i.temperature_heater_commands_if._chan_y.get_regulator_data.maxtimers
	.weak	_i.temperature_heater_commands_if._chan_y.get_regulator_data.maxtimers
	.set	_i.temperature_heater_commands_if._chan_y.get_regulator_data.maxchanends,(1 + ($D __interface_client_call_y.maxchanends ? __interface_client_call_y.maxchanends $: _i.temperature_heater_commands_if._client_call_y.max.maxchanends)) $M (1 + ($D __interface_wait_and_yield.maxchanends ? __interface_wait_and_yield.maxchanends $: _i.temperature_heater_commands_if._client_call_y.max.maxchanends)) $M 1
	.globl	_i.temperature_heater_commands_if._chan_y.get_regulator_data.maxchanends
	.weak	_i.temperature_heater_commands_if._chan_y.get_regulator_data.maxchanends
.Ltmp175:
	.size	_i.temperature_heater_commands_if._chan_y.get_regulator_data, .Ltmp175-_i.temperature_heater_commands_if._chan_y.get_regulator_data
	.cfi_endproc

	.weak	_i.temperature_heater_commands_if._chan_y.get_temp_degC_string
	.align	4
	.type	_i.temperature_heater_commands_if._chan_y.get_temp_degC_string,@function
	.cc_top _i.temperature_heater_commands_if._chan_y.get_temp_degC_string.function,_i.temperature_heater_commands_if._chan_y.get_temp_degC_string
_i.temperature_heater_commands_if._chan_y.get_temp_degC_string:
	.cfi_startproc
	entsp 6
.Ltmp176:
	.cfi_def_cfa_offset 24
.Ltmp177:
	.cfi_offset 15, 0
	stw r4, sp[5]
.Ltmp178:
	.cfi_offset 4, -4
	stw r5, sp[4]
.Ltmp179:
	.cfi_offset 5, -8
	stw r6, sp[3]
.Ltmp180:
	.cfi_offset 6, -12
	stw r7, sp[2]
.Ltmp181:
	.cfi_offset 7, -16
	mov r4, r2
	mov r5, r1
	ldw r1, r0[0]
	getr r6, 2
	setd res[r6], r1
	add r1, r6, 3
	out res[r6], r1
	outct res[r6], 2
	ldw r7, r0[1]
	mov r0, r6
	mov r1, r7
	bl __interface_wait_and_yield
	chkct res[r6], 1
	out res[r6], r5
	stw r4, sp[1]
	outct res[r6], 2
	ldaw r1, sp[1]
	mov r0, r6
	mov r2, r7
	bl __interface_client_call_y
	chkct res[r6], 1
	freer res[r6]
	ldw r7, sp[2]
	ldw r6, sp[3]
	ldw r5, sp[4]
	ldw r4, sp[5]
	retsp 6
	# RETURN_REG_HOLDER
	.cc_bottom _i.temperature_heater_commands_if._chan_y.get_temp_degC_string.function
	.set	_i.temperature_heater_commands_if._chan_y.get_temp_degC_string.nstackwords,((($D __interface_wait_and_yield.nstackwords ? __interface_wait_and_yield.nstackwords $: _i.temperature_heater_commands_if._client_call_y.max.nstackwords) $M _i.temperature_heater_commands_if._client_call_y.max.nstackwords $M ($D __interface_client_call_y.nstackwords ? __interface_client_call_y.nstackwords $: _i.temperature_heater_commands_if._client_call_y.max.nstackwords)) + 6)
	.globl	_i.temperature_heater_commands_if._chan_y.get_temp_degC_string.nstackwords
	.weak	_i.temperature_heater_commands_if._chan_y.get_temp_degC_string.nstackwords
	.set	_i.temperature_heater_commands_if._chan_y.get_temp_degC_string.maxcores,($D __interface_client_call_y.maxcores ? __interface_client_call_y.maxcores $: _i.temperature_heater_commands_if._client_call_y.max.maxcores) $M ($D __interface_wait_and_yield.maxcores ? __interface_wait_and_yield.maxcores $: _i.temperature_heater_commands_if._client_call_y.max.maxcores) $M 1
	.globl	_i.temperature_heater_commands_if._chan_y.get_temp_degC_string.maxcores
	.weak	_i.temperature_heater_commands_if._chan_y.get_temp_degC_string.maxcores
	.set	_i.temperature_heater_commands_if._chan_y.get_temp_degC_string.maxtimers,($D __interface_client_call_y.maxtimers ? __interface_client_call_y.maxtimers $: _i.temperature_heater_commands_if._client_call_y.max.maxtimers) $M ($D __interface_wait_and_yield.maxtimers ? __interface_wait_and_yield.maxtimers $: _i.temperature_heater_commands_if._client_call_y.max.maxtimers) $M 0
	.globl	_i.temperature_heater_commands_if._chan_y.get_temp_degC_string.maxtimers
	.weak	_i.temperature_heater_commands_if._chan_y.get_temp_degC_string.maxtimers
	.set	_i.temperature_heater_commands_if._chan_y.get_temp_degC_string.maxchanends,(1 + ($D __interface_client_call_y.maxchanends ? __interface_client_call_y.maxchanends $: _i.temperature_heater_commands_if._client_call_y.max.maxchanends)) $M (1 + ($D __interface_wait_and_yield.maxchanends ? __interface_wait_and_yield.maxchanends $: _i.temperature_heater_commands_if._client_call_y.max.maxchanends)) $M 1
	.globl	_i.temperature_heater_commands_if._chan_y.get_temp_degC_string.maxchanends
	.weak	_i.temperature_heater_commands_if._chan_y.get_temp_degC_string.maxchanends
.Ltmp182:
	.size	_i.temperature_heater_commands_if._chan_y.get_temp_degC_string, .Ltmp182-_i.temperature_heater_commands_if._chan_y.get_temp_degC_string
	.cfi_endproc

	.weak	_i.temperature_heater_commands_if._chan_y.get_temps
	.align	4
	.type	_i.temperature_heater_commands_if._chan_y.get_temps,@function
	.cc_top _i.temperature_heater_commands_if._chan_y.get_temps.function,_i.temperature_heater_commands_if._chan_y.get_temps
_i.temperature_heater_commands_if._chan_y.get_temps:
	.cfi_startproc
	entsp 5
.Ltmp183:
	.cfi_def_cfa_offset 20
.Ltmp184:
	.cfi_offset 15, 0
	stw r4, sp[4]
.Ltmp185:
	.cfi_offset 4, -4
	stw r5, sp[3]
.Ltmp186:
	.cfi_offset 5, -8
	stw r6, sp[2]
.Ltmp187:
	.cfi_offset 6, -12
	mov r4, r1
	ldw r1, r0[0]
	getr r5, 2
	setd res[r5], r1
	add r1, r5, 2
	out res[r5], r1
	outct res[r5], 2
	ldw r6, r0[1]
	mov r0, r5
	mov r1, r6
	bl __interface_wait_and_yield
	chkct res[r5], 1
	stw r4, sp[1]
	outct res[r5], 2
	ldaw r1, sp[1]
	mov r0, r5
	mov r2, r6
	bl __interface_client_call_y
	chkct res[r5], 1
	freer res[r5]
	ldw r6, sp[2]
	ldw r5, sp[3]
	ldw r4, sp[4]
	retsp 5
	# RETURN_REG_HOLDER
	.cc_bottom _i.temperature_heater_commands_if._chan_y.get_temps.function
	.set	_i.temperature_heater_commands_if._chan_y.get_temps.nstackwords,((($D __interface_wait_and_yield.nstackwords ? __interface_wait_and_yield.nstackwords $: _i.temperature_heater_commands_if._client_call_y.max.nstackwords) $M _i.temperature_heater_commands_if._client_call_y.max.nstackwords $M ($D __interface_client_call_y.nstackwords ? __interface_client_call_y.nstackwords $: _i.temperature_heater_commands_if._client_call_y.max.nstackwords)) + 5)
	.globl	_i.temperature_heater_commands_if._chan_y.get_temps.nstackwords
	.weak	_i.temperature_heater_commands_if._chan_y.get_temps.nstackwords
	.set	_i.temperature_heater_commands_if._chan_y.get_temps.maxcores,($D __interface_client_call_y.maxcores ? __interface_client_call_y.maxcores $: _i.temperature_heater_commands_if._client_call_y.max.maxcores) $M ($D __interface_wait_and_yield.maxcores ? __interface_wait_and_yield.maxcores $: _i.temperature_heater_commands_if._client_call_y.max.maxcores) $M 1
	.globl	_i.temperature_heater_commands_if._chan_y.get_temps.maxcores
	.weak	_i.temperature_heater_commands_if._chan_y.get_temps.maxcores
	.set	_i.temperature_heater_commands_if._chan_y.get_temps.maxtimers,($D __interface_client_call_y.maxtimers ? __interface_client_call_y.maxtimers $: _i.temperature_heater_commands_if._client_call_y.max.maxtimers) $M ($D __interface_wait_and_yield.maxtimers ? __interface_wait_and_yield.maxtimers $: _i.temperature_heater_commands_if._client_call_y.max.maxtimers) $M 0
	.globl	_i.temperature_heater_commands_if._chan_y.get_temps.maxtimers
	.weak	_i.temperature_heater_commands_if._chan_y.get_temps.maxtimers
	.set	_i.temperature_heater_commands_if._chan_y.get_temps.maxchanends,(1 + ($D __interface_client_call_y.maxchanends ? __interface_client_call_y.maxchanends $: _i.temperature_heater_commands_if._client_call_y.max.maxchanends)) $M (1 + ($D __interface_wait_and_yield.maxchanends ? __interface_wait_and_yield.maxchanends $: _i.temperature_heater_commands_if._client_call_y.max.maxchanends)) $M 1
	.globl	_i.temperature_heater_commands_if._chan_y.get_temps.maxchanends
	.weak	_i.temperature_heater_commands_if._chan_y.get_temps.maxchanends
.Ltmp188:
	.size	_i.temperature_heater_commands_if._chan_y.get_temps, .Ltmp188-_i.temperature_heater_commands_if._chan_y.get_temps
	.cfi_endproc

	.weak	_i.temperature_heater_commands_if._chan_y.heater_set_temp_degC
	.align	4
	.type	_i.temperature_heater_commands_if._chan_y.heater_set_temp_degC,@function
	.cc_top _i.temperature_heater_commands_if._chan_y.heater_set_temp_degC.function,_i.temperature_heater_commands_if._chan_y.heater_set_temp_degC
_i.temperature_heater_commands_if._chan_y.heater_set_temp_degC:
	.cfi_startproc
	entsp 5
.Ltmp189:
	.cfi_def_cfa_offset 20
.Ltmp190:
	.cfi_offset 15, 0
	stw r4, sp[4]
.Ltmp191:
	.cfi_offset 4, -4
	stw r5, sp[3]
.Ltmp192:
	.cfi_offset 5, -8
	stw r6, sp[2]
.Ltmp193:
	.cfi_offset 6, -12
	stw r7, sp[1]
.Ltmp194:
	.cfi_offset 7, -16
	mov r4, r2
	mov r5, r1
	ldw r1, r0[0]
	getr r6, 2
	setd res[r6], r1
	add r1, r6, 1
	out res[r6], r1
	outct res[r6], 2
	ldw r7, r0[1]
	mov r0, r6
	mov r1, r7
	bl __interface_wait_and_yield
	chkct res[r6], 1
	out res[r6], r5
	out res[r6], r4
	outct res[r6], 2
	ldc r1, 0
	mov r0, r6
	mov r2, r7
	bl __interface_client_call_y
	chkct res[r6], 1
	freer res[r6]
	ldw r7, sp[1]
	ldw r6, sp[2]
	ldw r5, sp[3]
	ldw r4, sp[4]
	retsp 5
	# RETURN_REG_HOLDER
	.cc_bottom _i.temperature_heater_commands_if._chan_y.heater_set_temp_degC.function
	.set	_i.temperature_heater_commands_if._chan_y.heater_set_temp_degC.nstackwords,((($D __interface_wait_and_yield.nstackwords ? __interface_wait_and_yield.nstackwords $: _i.temperature_heater_commands_if._client_call_y.max.nstackwords) $M _i.temperature_heater_commands_if._client_call_y.max.nstackwords $M ($D __interface_client_call_y.nstackwords ? __interface_client_call_y.nstackwords $: _i.temperature_heater_commands_if._client_call_y.max.nstackwords)) + 5)
	.globl	_i.temperature_heater_commands_if._chan_y.heater_set_temp_degC.nstackwords
	.weak	_i.temperature_heater_commands_if._chan_y.heater_set_temp_degC.nstackwords
	.set	_i.temperature_heater_commands_if._chan_y.heater_set_temp_degC.maxcores,($D __interface_client_call_y.maxcores ? __interface_client_call_y.maxcores $: _i.temperature_heater_commands_if._client_call_y.max.maxcores) $M ($D __interface_wait_and_yield.maxcores ? __interface_wait_and_yield.maxcores $: _i.temperature_heater_commands_if._client_call_y.max.maxcores) $M 1
	.globl	_i.temperature_heater_commands_if._chan_y.heater_set_temp_degC.maxcores
	.weak	_i.temperature_heater_commands_if._chan_y.heater_set_temp_degC.maxcores
	.set	_i.temperature_heater_commands_if._chan_y.heater_set_temp_degC.maxtimers,($D __interface_client_call_y.maxtimers ? __interface_client_call_y.maxtimers $: _i.temperature_heater_commands_if._client_call_y.max.maxtimers) $M ($D __interface_wait_and_yield.maxtimers ? __interface_wait_and_yield.maxtimers $: _i.temperature_heater_commands_if._client_call_y.max.maxtimers) $M 0
	.globl	_i.temperature_heater_commands_if._chan_y.heater_set_temp_degC.maxtimers
	.weak	_i.temperature_heater_commands_if._chan_y.heater_set_temp_degC.maxtimers
	.set	_i.temperature_heater_commands_if._chan_y.heater_set_temp_degC.maxchanends,(1 + ($D __interface_client_call_y.maxchanends ? __interface_client_call_y.maxchanends $: _i.temperature_heater_commands_if._client_call_y.max.maxchanends)) $M (1 + ($D __interface_wait_and_yield.maxchanends ? __interface_wait_and_yield.maxchanends $: _i.temperature_heater_commands_if._client_call_y.max.maxchanends)) $M 1
	.globl	_i.temperature_heater_commands_if._chan_y.heater_set_temp_degC.maxchanends
	.weak	_i.temperature_heater_commands_if._chan_y.heater_set_temp_degC.maxchanends
.Ltmp195:
	.size	_i.temperature_heater_commands_if._chan_y.heater_set_temp_degC, .Ltmp195-_i.temperature_heater_commands_if._chan_y.heater_set_temp_degC
	.cfi_endproc

	.weak	_i.temperature_heater_commands_if._chan_y.heater_set_proportional
	.align	4
	.type	_i.temperature_heater_commands_if._chan_y.heater_set_proportional,@function
	.cc_top _i.temperature_heater_commands_if._chan_y.heater_set_proportional.function,_i.temperature_heater_commands_if._chan_y.heater_set_proportional
_i.temperature_heater_commands_if._chan_y.heater_set_proportional:
	.cfi_startproc
	entsp 5
.Ltmp196:
	.cfi_def_cfa_offset 20
.Ltmp197:
	.cfi_offset 15, 0
	stw r4, sp[4]
.Ltmp198:
	.cfi_offset 4, -4
	stw r5, sp[3]
.Ltmp199:
	.cfi_offset 5, -8
	stw r6, sp[2]
.Ltmp200:
	.cfi_offset 6, -12
	stw r7, sp[1]
.Ltmp201:
	.cfi_offset 7, -16
	mov r4, r2
	mov r5, r1
	ldw r1, r0[0]
	getr r6, 2
	setd res[r6], r1
	out res[r6], r6
	outct res[r6], 2
	ldw r7, r0[1]
	mov r0, r6
	mov r1, r7
	bl __interface_wait_and_yield
	chkct res[r6], 1
	out res[r6], r5
	out res[r6], r4
	outct res[r6], 2
	ldc r1, 0
	mov r0, r6
	mov r2, r7
	bl __interface_client_call_y
	chkct res[r6], 1
	freer res[r6]
	ldw r7, sp[1]
	ldw r6, sp[2]
	ldw r5, sp[3]
	ldw r4, sp[4]
	retsp 5
	# RETURN_REG_HOLDER
	.cc_bottom _i.temperature_heater_commands_if._chan_y.heater_set_proportional.function
	.set	_i.temperature_heater_commands_if._chan_y.heater_set_proportional.nstackwords,((($D __interface_wait_and_yield.nstackwords ? __interface_wait_and_yield.nstackwords $: _i.temperature_heater_commands_if._client_call_y.max.nstackwords) $M _i.temperature_heater_commands_if._client_call_y.max.nstackwords $M ($D __interface_client_call_y.nstackwords ? __interface_client_call_y.nstackwords $: _i.temperature_heater_commands_if._client_call_y.max.nstackwords)) + 5)
	.globl	_i.temperature_heater_commands_if._chan_y.heater_set_proportional.nstackwords
	.weak	_i.temperature_heater_commands_if._chan_y.heater_set_proportional.nstackwords
	.set	_i.temperature_heater_commands_if._chan_y.heater_set_proportional.maxcores,($D __interface_client_call_y.maxcores ? __interface_client_call_y.maxcores $: _i.temperature_heater_commands_if._client_call_y.max.maxcores) $M ($D __interface_wait_and_yield.maxcores ? __interface_wait_and_yield.maxcores $: _i.temperature_heater_commands_if._client_call_y.max.maxcores) $M 1
	.globl	_i.temperature_heater_commands_if._chan_y.heater_set_proportional.maxcores
	.weak	_i.temperature_heater_commands_if._chan_y.heater_set_proportional.maxcores
	.set	_i.temperature_heater_commands_if._chan_y.heater_set_proportional.maxtimers,($D __interface_client_call_y.maxtimers ? __interface_client_call_y.maxtimers $: _i.temperature_heater_commands_if._client_call_y.max.maxtimers) $M ($D __interface_wait_and_yield.maxtimers ? __interface_wait_and_yield.maxtimers $: _i.temperature_heater_commands_if._client_call_y.max.maxtimers) $M 0
	.globl	_i.temperature_heater_commands_if._chan_y.heater_set_proportional.maxtimers
	.weak	_i.temperature_heater_commands_if._chan_y.heater_set_proportional.maxtimers
	.set	_i.temperature_heater_commands_if._chan_y.heater_set_proportional.maxchanends,(1 + ($D __interface_client_call_y.maxchanends ? __interface_client_call_y.maxchanends $: _i.temperature_heater_commands_if._client_call_y.max.maxchanends)) $M (1 + ($D __interface_wait_and_yield.maxchanends ? __interface_wait_and_yield.maxchanends $: _i.temperature_heater_commands_if._client_call_y.max.maxchanends)) $M 1
	.globl	_i.temperature_heater_commands_if._chan_y.heater_set_proportional.maxchanends
	.weak	_i.temperature_heater_commands_if._chan_y.heater_set_proportional.maxchanends
.Ltmp202:
	.size	_i.temperature_heater_commands_if._chan_y.heater_set_proportional, .Ltmp202-_i.temperature_heater_commands_if._chan_y.heater_set_proportional
	.cfi_endproc

	.weak	_i.temperature_water_commands_if._chan.get_now_regulating_at
	.align	4
	.type	_i.temperature_water_commands_if._chan.get_now_regulating_at,@function
	.cc_top _i.temperature_water_commands_if._chan.get_now_regulating_at.function,_i.temperature_water_commands_if._chan.get_now_regulating_at
_i.temperature_water_commands_if._chan.get_now_regulating_at:
	.cfi_startproc
	getr r1, 2
	setd res[r1], r0
	add r0, r1, 1
	out res[r1], r0
	outct res[r1], 2
	in r0, res[r1]
	in r0, res[r1]
	chkct res[r1], 1
	freer res[r1]
	retsp 0
	# RETURN_REG_HOLDER
	.cc_bottom _i.temperature_water_commands_if._chan.get_now_regulating_at.function
	.set	_i.temperature_water_commands_if._chan.get_now_regulating_at.nstackwords,0
	.globl	_i.temperature_water_commands_if._chan.get_now_regulating_at.nstackwords
	.weak	_i.temperature_water_commands_if._chan.get_now_regulating_at.nstackwords
	.set	_i.temperature_water_commands_if._chan.get_now_regulating_at.maxcores,1
	.globl	_i.temperature_water_commands_if._chan.get_now_regulating_at.maxcores
	.weak	_i.temperature_water_commands_if._chan.get_now_regulating_at.maxcores
	.set	_i.temperature_water_commands_if._chan.get_now_regulating_at.maxtimers,0
	.globl	_i.temperature_water_commands_if._chan.get_now_regulating_at.maxtimers
	.weak	_i.temperature_water_commands_if._chan.get_now_regulating_at.maxtimers
	.set	_i.temperature_water_commands_if._chan.get_now_regulating_at.maxchanends,1
	.globl	_i.temperature_water_commands_if._chan.get_now_regulating_at.maxchanends
	.weak	_i.temperature_water_commands_if._chan.get_now_regulating_at.maxchanends
.Ltmp203:
	.size	_i.temperature_water_commands_if._chan.get_now_regulating_at, .Ltmp203-_i.temperature_water_commands_if._chan.get_now_regulating_at
	.cfi_endproc

	.weak	_i.temperature_water_commands_if._chan.get_temp_degC_string_filtered
	.align	4
	.type	_i.temperature_water_commands_if._chan.get_temp_degC_string_filtered,@function
	.cc_top _i.temperature_water_commands_if._chan.get_temp_degC_string_filtered.function,_i.temperature_water_commands_if._chan.get_temp_degC_string_filtered
_i.temperature_water_commands_if._chan.get_temp_degC_string_filtered:
	.cfi_startproc
	entsp 3
.Ltmp204:
	.cfi_def_cfa_offset 12
.Ltmp205:
	.cfi_offset 15, 0
	stw r4, sp[2]
.Ltmp206:
	.cfi_offset 4, -4
	getr r4, 2
	setd res[r4], r0
	out res[r4], r4
	outct res[r4], 2
	chkct res[r4], 1
	out res[r4], r1
	stw r2, sp[1]
	outct res[r4], 2
	ldaw r1, sp[1]
	mov r0, r4
	bl __interface_client_call
	chkct res[r4], 1
	freer res[r4]
	ldw r4, sp[2]
	retsp 3
	# RETURN_REG_HOLDER
	.cc_bottom _i.temperature_water_commands_if._chan.get_temp_degC_string_filtered.function
	.set	_i.temperature_water_commands_if._chan.get_temp_degC_string_filtered.nstackwords,(__interface_client_call.nstackwords + 3)
	.globl	_i.temperature_water_commands_if._chan.get_temp_degC_string_filtered.nstackwords
	.weak	_i.temperature_water_commands_if._chan.get_temp_degC_string_filtered.nstackwords
	.set	_i.temperature_water_commands_if._chan.get_temp_degC_string_filtered.maxcores,__interface_client_call.maxcores $M 1
	.globl	_i.temperature_water_commands_if._chan.get_temp_degC_string_filtered.maxcores
	.weak	_i.temperature_water_commands_if._chan.get_temp_degC_string_filtered.maxcores
	.set	_i.temperature_water_commands_if._chan.get_temp_degC_string_filtered.maxtimers,__interface_client_call.maxtimers $M 0
	.globl	_i.temperature_water_commands_if._chan.get_temp_degC_string_filtered.maxtimers
	.weak	_i.temperature_water_commands_if._chan.get_temp_degC_string_filtered.maxtimers
	.set	_i.temperature_water_commands_if._chan.get_temp_degC_string_filtered.maxchanends,(1 + __interface_client_call.maxchanends) $M 1
	.globl	_i.temperature_water_commands_if._chan.get_temp_degC_string_filtered.maxchanends
	.weak	_i.temperature_water_commands_if._chan.get_temp_degC_string_filtered.maxchanends
.Ltmp207:
	.size	_i.temperature_water_commands_if._chan.get_temp_degC_string_filtered, .Ltmp207-_i.temperature_water_commands_if._chan.get_temp_degC_string_filtered
	.cfi_endproc

	.weak	_i.temperature_water_commands_if._chan_y.get_now_regulating_at
	.align	4
	.type	_i.temperature_water_commands_if._chan_y.get_now_regulating_at,@function
	.cc_top _i.temperature_water_commands_if._chan_y.get_now_regulating_at.function,_i.temperature_water_commands_if._chan_y.get_now_regulating_at
_i.temperature_water_commands_if._chan_y.get_now_regulating_at:
	.cfi_startproc
	entsp 2
.Ltmp208:
	.cfi_def_cfa_offset 8
.Ltmp209:
	.cfi_offset 15, 0
	stw r4, sp[1]
.Ltmp210:
	.cfi_offset 4, -4
	ldw r1, r0[0]
	getr r4, 2
	setd res[r4], r1
	add r1, r4, 1
	out res[r4], r1
	outct res[r4], 2
	ldw r2, r0[1]
	ldc r1, 0
	mov r0, r4
	bl __interface_client_call_y
	in r0, res[r4]
	chkct res[r4], 1
	freer res[r4]
	ldw r4, sp[1]
	retsp 2
	# RETURN_REG_HOLDER
	.cc_bottom _i.temperature_water_commands_if._chan_y.get_now_regulating_at.function
	.set	_i.temperature_water_commands_if._chan_y.get_now_regulating_at.nstackwords,((_i.temperature_water_commands_if._client_call_y.max.nstackwords $M ($D __interface_client_call_y.nstackwords ? __interface_client_call_y.nstackwords $: _i.temperature_water_commands_if._client_call_y.max.nstackwords)) + 2)
	.globl	_i.temperature_water_commands_if._chan_y.get_now_regulating_at.nstackwords
	.weak	_i.temperature_water_commands_if._chan_y.get_now_regulating_at.nstackwords
	.set	_i.temperature_water_commands_if._chan_y.get_now_regulating_at.maxcores,($D __interface_client_call_y.maxcores ? __interface_client_call_y.maxcores $: _i.temperature_water_commands_if._client_call_y.max.maxcores) $M 1
	.globl	_i.temperature_water_commands_if._chan_y.get_now_regulating_at.maxcores
	.weak	_i.temperature_water_commands_if._chan_y.get_now_regulating_at.maxcores
	.set	_i.temperature_water_commands_if._chan_y.get_now_regulating_at.maxtimers,($D __interface_client_call_y.maxtimers ? __interface_client_call_y.maxtimers $: _i.temperature_water_commands_if._client_call_y.max.maxtimers) $M 0
	.globl	_i.temperature_water_commands_if._chan_y.get_now_regulating_at.maxtimers
	.weak	_i.temperature_water_commands_if._chan_y.get_now_regulating_at.maxtimers
	.set	_i.temperature_water_commands_if._chan_y.get_now_regulating_at.maxchanends,(1 + ($D __interface_client_call_y.maxchanends ? __interface_client_call_y.maxchanends $: _i.temperature_water_commands_if._client_call_y.max.maxchanends)) $M 1
	.globl	_i.temperature_water_commands_if._chan_y.get_now_regulating_at.maxchanends
	.weak	_i.temperature_water_commands_if._chan_y.get_now_regulating_at.maxchanends
.Ltmp211:
	.size	_i.temperature_water_commands_if._chan_y.get_now_regulating_at, .Ltmp211-_i.temperature_water_commands_if._chan_y.get_now_regulating_at
	.cfi_endproc

	.weak	_i.temperature_water_commands_if._chan_y.get_temp_degC_string_filtered
	.align	4
	.type	_i.temperature_water_commands_if._chan_y.get_temp_degC_string_filtered,@function
	.cc_top _i.temperature_water_commands_if._chan_y.get_temp_degC_string_filtered.function,_i.temperature_water_commands_if._chan_y.get_temp_degC_string_filtered
_i.temperature_water_commands_if._chan_y.get_temp_degC_string_filtered:
	.cfi_startproc
	entsp 3
.Ltmp212:
	.cfi_def_cfa_offset 12
.Ltmp213:
	.cfi_offset 15, 0
	stw r4, sp[2]
.Ltmp214:
	.cfi_offset 4, -4
	ldw r3, r0[0]
	getr r4, 2
	setd res[r4], r3
	out res[r4], r4
	outct res[r4], 2
	chkct res[r4], 1
	out res[r4], r1
	stw r2, sp[1]
	outct res[r4], 2
	ldw r2, r0[1]
	ldaw r1, sp[1]
	mov r0, r4
	bl __interface_client_call_y
	chkct res[r4], 1
	freer res[r4]
	ldw r4, sp[2]
	retsp 3
	# RETURN_REG_HOLDER
	.cc_bottom _i.temperature_water_commands_if._chan_y.get_temp_degC_string_filtered.function
	.set	_i.temperature_water_commands_if._chan_y.get_temp_degC_string_filtered.nstackwords,((_i.temperature_water_commands_if._client_call_y.max.nstackwords $M ($D __interface_client_call_y.nstackwords ? __interface_client_call_y.nstackwords $: _i.temperature_water_commands_if._client_call_y.max.nstackwords)) + 3)
	.globl	_i.temperature_water_commands_if._chan_y.get_temp_degC_string_filtered.nstackwords
	.weak	_i.temperature_water_commands_if._chan_y.get_temp_degC_string_filtered.nstackwords
	.set	_i.temperature_water_commands_if._chan_y.get_temp_degC_string_filtered.maxcores,($D __interface_client_call_y.maxcores ? __interface_client_call_y.maxcores $: _i.temperature_water_commands_if._client_call_y.max.maxcores) $M 1
	.globl	_i.temperature_water_commands_if._chan_y.get_temp_degC_string_filtered.maxcores
	.weak	_i.temperature_water_commands_if._chan_y.get_temp_degC_string_filtered.maxcores
	.set	_i.temperature_water_commands_if._chan_y.get_temp_degC_string_filtered.maxtimers,($D __interface_client_call_y.maxtimers ? __interface_client_call_y.maxtimers $: _i.temperature_water_commands_if._client_call_y.max.maxtimers) $M 0
	.globl	_i.temperature_water_commands_if._chan_y.get_temp_degC_string_filtered.maxtimers
	.weak	_i.temperature_water_commands_if._chan_y.get_temp_degC_string_filtered.maxtimers
	.set	_i.temperature_water_commands_if._chan_y.get_temp_degC_string_filtered.maxchanends,(1 + ($D __interface_client_call_y.maxchanends ? __interface_client_call_y.maxchanends $: _i.temperature_water_commands_if._client_call_y.max.maxchanends)) $M 1
	.globl	_i.temperature_water_commands_if._chan_y.get_temp_degC_string_filtered.maxchanends
	.weak	_i.temperature_water_commands_if._chan_y.get_temp_degC_string_filtered.maxchanends
.Ltmp215:
	.size	_i.temperature_water_commands_if._chan_y.get_temp_degC_string_filtered, .Ltmp215-_i.temperature_water_commands_if._chan_y.get_temp_degC_string_filtered
	.cfi_endproc

	.weak	_i.lib_startkit_adc_commands_if._chan.read
	.align	4
	.type	_i.lib_startkit_adc_commands_if._chan.read,@function
	.cc_top _i.lib_startkit_adc_commands_if._chan.read.function,_i.lib_startkit_adc_commands_if._chan.read
_i.lib_startkit_adc_commands_if._chan.read:
	.cfi_startproc
	entsp 5
.Ltmp216:
	.cfi_def_cfa_offset 20
.Ltmp217:
	.cfi_offset 15, 0
	stw r4, sp[4]
.Ltmp218:
	.cfi_offset 4, -4
	stw r5, sp[3]
.Ltmp219:
	.cfi_offset 5, -8
	stw r6, sp[2]
.Ltmp220:
	.cfi_offset 6, -12
	mov r4, r2
	mov r5, r1
	getr r6, 2
	setd res[r6], r0
	add r0, r6, 1
	out res[r6], r0
	outct res[r6], 2
	ldc r1, 0
	mov r0, r6
	bl __interface_wait_and_yield
	chkct res[r6], 1
	out res[r6], r5
	stw r4, sp[1]
	outct res[r6], 2
	ldaw r1, sp[1]
	mov r0, r6
	bl __interface_client_call
	in r0, res[r6]
	in r1, res[r6]
	chkct res[r6], 1
	freer res[r6]
	ldw r6, sp[2]
	ldw r5, sp[3]
	ldw r4, sp[4]
	retsp 5
	# RETURN_REG_HOLDER
	.cc_bottom _i.lib_startkit_adc_commands_if._chan.read.function
	.set	_i.lib_startkit_adc_commands_if._chan.read.nstackwords,((_i.lib_startkit_adc_commands_if._client_call_y.max.nstackwords $M ($D __interface_wait_and_yield.nstackwords ? __interface_wait_and_yield.nstackwords $: _i.lib_startkit_adc_commands_if._client_call_y.max.nstackwords) $M __interface_client_call.nstackwords) + 5)
	.globl	_i.lib_startkit_adc_commands_if._chan.read.nstackwords
	.weak	_i.lib_startkit_adc_commands_if._chan.read.nstackwords
	.set	_i.lib_startkit_adc_commands_if._chan.read.maxcores,__interface_client_call.maxcores $M ($D __interface_wait_and_yield.maxcores ? __interface_wait_and_yield.maxcores $: _i.lib_startkit_adc_commands_if._client_call_y.max.maxcores) $M 1
	.globl	_i.lib_startkit_adc_commands_if._chan.read.maxcores
	.weak	_i.lib_startkit_adc_commands_if._chan.read.maxcores
	.set	_i.lib_startkit_adc_commands_if._chan.read.maxtimers,__interface_client_call.maxtimers $M ($D __interface_wait_and_yield.maxtimers ? __interface_wait_and_yield.maxtimers $: _i.lib_startkit_adc_commands_if._client_call_y.max.maxtimers) $M 0
	.globl	_i.lib_startkit_adc_commands_if._chan.read.maxtimers
	.weak	_i.lib_startkit_adc_commands_if._chan.read.maxtimers
	.set	_i.lib_startkit_adc_commands_if._chan.read.maxchanends,(1 + __interface_client_call.maxchanends) $M (1 + ($D __interface_wait_and_yield.maxchanends ? __interface_wait_and_yield.maxchanends $: _i.lib_startkit_adc_commands_if._client_call_y.max.maxchanends)) $M 1
	.globl	_i.lib_startkit_adc_commands_if._chan.read.maxchanends
	.weak	_i.lib_startkit_adc_commands_if._chan.read.maxchanends
.Ltmp221:
	.size	_i.lib_startkit_adc_commands_if._chan.read, .Ltmp221-_i.lib_startkit_adc_commands_if._chan.read
	.cfi_endproc

	.weak	_i.lib_startkit_adc_commands_if._chan.trigger
	.align	4
	.type	_i.lib_startkit_adc_commands_if._chan.trigger,@function
	.cc_top _i.lib_startkit_adc_commands_if._chan.trigger.function,_i.lib_startkit_adc_commands_if._chan.trigger
_i.lib_startkit_adc_commands_if._chan.trigger:
	.cfi_startproc
	entsp 2
.Ltmp222:
	.cfi_def_cfa_offset 8
.Ltmp223:
	.cfi_offset 15, 0
	stw r4, sp[1]
.Ltmp224:
	.cfi_offset 4, -4
	getr r4, 2
	setd res[r4], r0
	out res[r4], r4
	outct res[r4], 2
	ldc r1, 0
	mov r0, r4
	bl __interface_wait_and_yield
	in r0, res[r4]
	chkct res[r4], 1
	freer res[r4]
	ldw r4, sp[1]
	retsp 2
	# RETURN_REG_HOLDER
	.cc_bottom _i.lib_startkit_adc_commands_if._chan.trigger.function
	.set	_i.lib_startkit_adc_commands_if._chan.trigger.nstackwords,((_i.lib_startkit_adc_commands_if._client_call_y.max.nstackwords $M ($D __interface_wait_and_yield.nstackwords ? __interface_wait_and_yield.nstackwords $: _i.lib_startkit_adc_commands_if._client_call_y.max.nstackwords)) + 2)
	.globl	_i.lib_startkit_adc_commands_if._chan.trigger.nstackwords
	.weak	_i.lib_startkit_adc_commands_if._chan.trigger.nstackwords
	.set	_i.lib_startkit_adc_commands_if._chan.trigger.maxcores,($D __interface_wait_and_yield.maxcores ? __interface_wait_and_yield.maxcores $: _i.lib_startkit_adc_commands_if._client_call_y.max.maxcores) $M 1
	.globl	_i.lib_startkit_adc_commands_if._chan.trigger.maxcores
	.weak	_i.lib_startkit_adc_commands_if._chan.trigger.maxcores
	.set	_i.lib_startkit_adc_commands_if._chan.trigger.maxtimers,($D __interface_wait_and_yield.maxtimers ? __interface_wait_and_yield.maxtimers $: _i.lib_startkit_adc_commands_if._client_call_y.max.maxtimers) $M 0
	.globl	_i.lib_startkit_adc_commands_if._chan.trigger.maxtimers
	.weak	_i.lib_startkit_adc_commands_if._chan.trigger.maxtimers
	.set	_i.lib_startkit_adc_commands_if._chan.trigger.maxchanends,(1 + ($D __interface_wait_and_yield.maxchanends ? __interface_wait_and_yield.maxchanends $: _i.lib_startkit_adc_commands_if._client_call_y.max.maxchanends)) $M 1
	.globl	_i.lib_startkit_adc_commands_if._chan.trigger.maxchanends
	.weak	_i.lib_startkit_adc_commands_if._chan.trigger.maxchanends
.Ltmp225:
	.size	_i.lib_startkit_adc_commands_if._chan.trigger, .Ltmp225-_i.lib_startkit_adc_commands_if._chan.trigger
	.cfi_endproc

	.weak	_i.lib_startkit_adc_commands_if._chan_y.read
	.align	4
	.type	_i.lib_startkit_adc_commands_if._chan_y.read,@function
	.cc_top _i.lib_startkit_adc_commands_if._chan_y.read.function,_i.lib_startkit_adc_commands_if._chan_y.read
_i.lib_startkit_adc_commands_if._chan_y.read:
	.cfi_startproc
	entsp 6
.Ltmp226:
	.cfi_def_cfa_offset 24
.Ltmp227:
	.cfi_offset 15, 0
	stw r4, sp[5]
.Ltmp228:
	.cfi_offset 4, -4
	stw r5, sp[4]
.Ltmp229:
	.cfi_offset 5, -8
	stw r6, sp[3]
.Ltmp230:
	.cfi_offset 6, -12
	stw r7, sp[2]
.Ltmp231:
	.cfi_offset 7, -16
	mov r5, r2
	mov r6, r1
	ldw r1, r0[0]
	getr r4, 2
	setd res[r4], r1
	add r1, r4, 1
	out res[r4], r1
	outct res[r4], 2
	ldw r7, r0[1]
	mov r0, r4
	mov r1, r7
	bl __interface_wait_and_yield
	chkct res[r4], 1
	out res[r4], r6
	stw r5, sp[1]
	outct res[r4], 2
	ldaw r1, sp[1]
	mov r0, r4
	mov r2, r7
	bl __interface_client_call_y
	in r0, res[r4]
	in r1, res[r4]
	chkct res[r4], 1
	freer res[r4]
	ldw r7, sp[2]
	ldw r6, sp[3]
	ldw r5, sp[4]
	ldw r4, sp[5]
	retsp 6
	# RETURN_REG_HOLDER
	.cc_bottom _i.lib_startkit_adc_commands_if._chan_y.read.function
	.set	_i.lib_startkit_adc_commands_if._chan_y.read.nstackwords,((($D __interface_wait_and_yield.nstackwords ? __interface_wait_and_yield.nstackwords $: _i.lib_startkit_adc_commands_if._client_call_y.max.nstackwords) $M _i.lib_startkit_adc_commands_if._client_call_y.max.nstackwords $M ($D __interface_client_call_y.nstackwords ? __interface_client_call_y.nstackwords $: _i.lib_startkit_adc_commands_if._client_call_y.max.nstackwords)) + 6)
	.globl	_i.lib_startkit_adc_commands_if._chan_y.read.nstackwords
	.weak	_i.lib_startkit_adc_commands_if._chan_y.read.nstackwords
	.set	_i.lib_startkit_adc_commands_if._chan_y.read.maxcores,($D __interface_client_call_y.maxcores ? __interface_client_call_y.maxcores $: _i.lib_startkit_adc_commands_if._client_call_y.max.maxcores) $M ($D __interface_wait_and_yield.maxcores ? __interface_wait_and_yield.maxcores $: _i.lib_startkit_adc_commands_if._client_call_y.max.maxcores) $M 1
	.globl	_i.lib_startkit_adc_commands_if._chan_y.read.maxcores
	.weak	_i.lib_startkit_adc_commands_if._chan_y.read.maxcores
	.set	_i.lib_startkit_adc_commands_if._chan_y.read.maxtimers,($D __interface_client_call_y.maxtimers ? __interface_client_call_y.maxtimers $: _i.lib_startkit_adc_commands_if._client_call_y.max.maxtimers) $M ($D __interface_wait_and_yield.maxtimers ? __interface_wait_and_yield.maxtimers $: _i.lib_startkit_adc_commands_if._client_call_y.max.maxtimers) $M 0
	.globl	_i.lib_startkit_adc_commands_if._chan_y.read.maxtimers
	.weak	_i.lib_startkit_adc_commands_if._chan_y.read.maxtimers
	.set	_i.lib_startkit_adc_commands_if._chan_y.read.maxchanends,(1 + ($D __interface_client_call_y.maxchanends ? __interface_client_call_y.maxchanends $: _i.lib_startkit_adc_commands_if._client_call_y.max.maxchanends)) $M (1 + ($D __interface_wait_and_yield.maxchanends ? __interface_wait_and_yield.maxchanends $: _i.lib_startkit_adc_commands_if._client_call_y.max.maxchanends)) $M 1
	.globl	_i.lib_startkit_adc_commands_if._chan_y.read.maxchanends
	.weak	_i.lib_startkit_adc_commands_if._chan_y.read.maxchanends
.Ltmp232:
	.size	_i.lib_startkit_adc_commands_if._chan_y.read, .Ltmp232-_i.lib_startkit_adc_commands_if._chan_y.read
	.cfi_endproc

	.weak	_i.lib_startkit_adc_commands_if._chan_y.trigger
	.align	4
	.type	_i.lib_startkit_adc_commands_if._chan_y.trigger,@function
	.cc_top _i.lib_startkit_adc_commands_if._chan_y.trigger.function,_i.lib_startkit_adc_commands_if._chan_y.trigger
_i.lib_startkit_adc_commands_if._chan_y.trigger:
	.cfi_startproc
	entsp 3
.Ltmp233:
	.cfi_def_cfa_offset 12
.Ltmp234:
	.cfi_offset 15, 0
	stw r4, sp[2]
.Ltmp235:
	.cfi_offset 4, -4
	stw r5, sp[1]
.Ltmp236:
	.cfi_offset 5, -8
	ldw r1, r0[0]
	getr r4, 2
	setd res[r4], r1
	out res[r4], r4
	outct res[r4], 2
	ldw r5, r0[1]
	mov r0, r4
	mov r1, r5
	bl __interface_wait_and_yield
	ldc r1, 0
	mov r0, r4
	mov r2, r5
	bl __interface_client_call_y
	chkct res[r4], 1
	freer res[r4]
	ldw r5, sp[1]
	ldw r4, sp[2]
	retsp 3
	# RETURN_REG_HOLDER
	.cc_bottom _i.lib_startkit_adc_commands_if._chan_y.trigger.function
	.set	_i.lib_startkit_adc_commands_if._chan_y.trigger.nstackwords,((($D __interface_wait_and_yield.nstackwords ? __interface_wait_and_yield.nstackwords $: _i.lib_startkit_adc_commands_if._client_call_y.max.nstackwords) $M _i.lib_startkit_adc_commands_if._client_call_y.max.nstackwords $M ($D __interface_client_call_y.nstackwords ? __interface_client_call_y.nstackwords $: _i.lib_startkit_adc_commands_if._client_call_y.max.nstackwords)) + 3)
	.globl	_i.lib_startkit_adc_commands_if._chan_y.trigger.nstackwords
	.weak	_i.lib_startkit_adc_commands_if._chan_y.trigger.nstackwords
	.set	_i.lib_startkit_adc_commands_if._chan_y.trigger.maxcores,($D __interface_client_call_y.maxcores ? __interface_client_call_y.maxcores $: _i.lib_startkit_adc_commands_if._client_call_y.max.maxcores) $M ($D __interface_wait_and_yield.maxcores ? __interface_wait_and_yield.maxcores $: _i.lib_startkit_adc_commands_if._client_call_y.max.maxcores) $M 1
	.globl	_i.lib_startkit_adc_commands_if._chan_y.trigger.maxcores
	.weak	_i.lib_startkit_adc_commands_if._chan_y.trigger.maxcores
	.set	_i.lib_startkit_adc_commands_if._chan_y.trigger.maxtimers,($D __interface_client_call_y.maxtimers ? __interface_client_call_y.maxtimers $: _i.lib_startkit_adc_commands_if._client_call_y.max.maxtimers) $M ($D __interface_wait_and_yield.maxtimers ? __interface_wait_and_yield.maxtimers $: _i.lib_startkit_adc_commands_if._client_call_y.max.maxtimers) $M 0
	.globl	_i.lib_startkit_adc_commands_if._chan_y.trigger.maxtimers
	.weak	_i.lib_startkit_adc_commands_if._chan_y.trigger.maxtimers
	.set	_i.lib_startkit_adc_commands_if._chan_y.trigger.maxchanends,(1 + ($D __interface_client_call_y.maxchanends ? __interface_client_call_y.maxchanends $: _i.lib_startkit_adc_commands_if._client_call_y.max.maxchanends)) $M (1 + ($D __interface_wait_and_yield.maxchanends ? __interface_wait_and_yield.maxchanends $: _i.lib_startkit_adc_commands_if._client_call_y.max.maxchanends)) $M 1
	.globl	_i.lib_startkit_adc_commands_if._chan_y.trigger.maxchanends
	.weak	_i.lib_startkit_adc_commands_if._chan_y.trigger.maxchanends
.Ltmp237:
	.size	_i.lib_startkit_adc_commands_if._chan_y.trigger, .Ltmp237-_i.lib_startkit_adc_commands_if._chan_y.trigger
	.cfi_endproc

	.section	.cp.rodata.cst4,"aMc",@progbits,4
	.cc_top .LCPI48_0.data,.LCPI48_0
	.align	4
	.type	.LCPI48_0,@object
	.size	.LCPI48_0, 4
.LCPI48_0:
	.long	100000000
	.cc_bottom .LCPI48_0.data
	.text
	.globl	System_Task
	.align	4
	.type	System_Task,@function
	.cc_top System_Task.function,System_Task
System_Task:
.Lfunc_begin48:
	.loc	1 1007 0
	.cfi_startproc
.Lxtalabel0:
	ENTSP_lu6 193
.Ltmp238:
	.cfi_def_cfa_offset 772
.Ltmp239:
	.cfi_offset 15, 0
	stw r4, sp[192]
.Ltmp240:
	.cfi_offset 4, -4
	stw r5, sp[191]
.Ltmp241:
	.cfi_offset 5, -8
	stw r6, sp[190]
.Ltmp242:
	.cfi_offset 6, -12
	stw r7, sp[189]
.Ltmp243:
	.cfi_offset 7, -16
	stw r8, sp[188]
.Ltmp244:
	.cfi_offset 8, -20
	stw r9, sp[187]
.Ltmp245:
	.cfi_offset 9, -24
	stw r10, sp[186]
.Ltmp246:
	.cfi_offset 10, -28
	stw r3, sp[22]
.Ltmp247:
	stw r2, sp[20]
.Ltmp248:
	stw r1, sp[21]
.Ltmp249:
	mov r4, r0
.Ltmp250:
	stw r4, sp[23]
	ldw r7, sp[196]
	ldc r6, 0
	.loc	1 1017 0 prologue_end
.Ltmp251:
	stw r6, sp[65]
	mkmsk r5, 1
	.loc	1 1018 0
	stw r5, sp[66]
	.loc	1 1019 0
	stw r6, sp[86]
	.loc	1 1020 0
	stw r6, sp[145]
	.loc	1 1021 0
	stw r6, sp[85]
	.loc	1 1023 0
	stw r5, sp[147]
.Ltmp252:
	.loc	1 1026 0
	stw r6, sp[136]
	.loc	1 1027 0
	stw r6, sp[137]
	.loc	1 1028 0
	stw r6, sp[142]
.Ltmp253:
	.loc	1 1026 0
	stw r6, sp[138]
	.loc	1 1027 0
	stw r6, sp[139]
	.loc	1 1028 0
	stw r6, sp[143]
	.loc	1 1026 0
	stw r6, sp[140]
	.loc	1 1027 0
	stw r6, sp[141]
	.loc	1 1028 0
	stw r6, sp[144]
.Ltmp254:
	.loc	1 1032 0
	stw r6, sp[67]
	.loc	1 1033 0
	stw r6, sp[68]
.Ltmp255:
	.loc	1 1032 0
	stw r6, sp[69]
	.loc	1 1033 0
	stw r6, sp[70]
	.loc	1 1032 0
	stw r6, sp[71]
	.loc	1 1033 0
	stw r6, sp[72]
	.loc	1 1032 0
	stw r6, sp[73]
	.loc	1 1033 0
	stw r6, sp[74]
	.loc	1 1032 0
	stw r6, sp[75]
	.loc	1 1033 0
	stw r6, sp[76]
	.loc	1 1032 0
	stw r6, sp[77]
	.loc	1 1033 0
	stw r6, sp[78]
	.loc	1 1032 0
	stw r6, sp[79]
	.loc	1 1033 0
	stw r6, sp[80]
	.loc	1 1032 0
	stw r6, sp[81]
	.loc	1 1033 0
	stw r6, sp[82]
.Ltmp256:
	.loc	1 1035 0
	stw r6, sp[83]
	.loc	1 1037 0
	stw r6, sp[109]
	.loc	1 1038 0
	stw r6, sp[110]
	.loc	1 1039 0
	ldaw r0, sp[111]
	.loc	1 1039 0
	ldaw r11, cp[.str192]
	ldc r2, 11
	mov r1, r11
	bl memcpy
	.loc	1 1040 0
	stw r6, sp[68]
	.loc	1 1042 0
.Lxta.call_labels0:
	bl random_create_generator_from_hw_seed
	.loc	1 1042 0
	stw r0, sp[59]
	.loc	1 1043 0
	stw r5, sp[57]
	.loc	1 1044 0
	stw r5, sp[43]
	.loc	1 1046 0
	ldaw r11, cp[.Lstr]
	mov r0, r11
	bl puts
	ldc r0, 128
	ldc r1, 32
	.loc	1 1049 0
.Lxta.call_labels1:
	bl Adafruit_GFX_constructor
	.loc	1 1050 0
	mov r0, r4
.Lxta.call_labels2:
	bl Adafruit_SSD1306_i2c_begin
	.loc	1 1053 0
.Lxta.call_labels3:
	bl Clear_All_Pixels_In_Buffer
	.loc	1 1054 0
	mov r0, r4
.Ltmp257:
.Lxta.call_labels4:
	bl writeToDisplay_i2c_all_buffer
	.loc	1 1056 0
	get r11, id
	.loc	1 1056 0
	ldaw r0, dp[__timers]
	.loc	1 1056 0
	ldw r0, r0[r11]
	.loc	1 1056 0
	stw r0, sp[25]
	setc res[r0], 1
	.loc	1 1056 0
.Lxta.endpoint_labels0:
	in r0, res[r0]
.Ltmp258:
	.loc	1 1174 0
	stw r0, sp[26]
.Ltmp259:
	.loc	1 1170 0
	ldw r9, r7[0]
	.loc	1 1170 0
	stw r9, sp[19]
	ldw r4, r7[1]
	.loc	1 1170 0
	ldw r0, r7[2]
	stw r0, sp[24]
.Ltmp260:
	bu .LBB48_27
.Ltmp261:
.LBB48_26:
	.loc	1 1165 0
.Lxta.call_labels5:
	bla r2
.Ltmp262:
.LBB48_27:
	mov r3, r6
.Ltmp263:
.LBB48_28:
.Lxtalabel1:
	.loc	1 1059 9
	clre
	.loc	1 1059 9
	ldw r0, sp[26]
	ldw r1, sp[25]
	setd res[r1], r0
	.loc	1 1059 9
	setc res[r1], 9
	ldap r11, .Ltmp264
	.loc	1 1059 9
	setv res[r1], r11
.Ltmp265:
	.loc	1 1059 9
	eeu res[r1]
	ldap r11, .Ltmp266
	mov r0, r11
	.loc	1 1170 0
.Ltmp267:
	setv res[r9], r11
	.loc	1 1170 0
	mov r11, r3
	setev res[r9], r11
.Ltmp268:
	.loc	1 1170 0
	eeu res[r9]
	.loc	1 1170 0
	mov r11, r0
	setv res[r4], r11
	.loc	1 1170 0
	mov r11, r5
	setev res[r4], r11
	.loc	1 1170 0
	eeu res[r4]
	.loc	1 1170 0
	mov r11, r0
	ldw r0, sp[24]
	setv res[r0], r11
	ldc r11, 2
	.loc	1 1170 0
	setev res[r0], r11
	.loc	1 1170 0
	eeu res[r0]
	.loc	1 1209 0
.Ltmp269:

	.xtabranch .LBB48_1, .LBB48_2
	waiteu
.Ltmp270:
.Ltmp266:
.LBB48_2:
.Lxtalabel2:
	.loc	1 1170 0
	get r11, ed
	mov r7, r11
	.loc	1 1170 0
	zext r7, 16
.Ltmp271:
	ldw r0, sp[196]
	.loc	1 1170 0
	ldw r0, r0[r7]
	.loc	1 1170 0
	chkct res[r0], 1
	.loc	1 1170 0
	outct res[r0], 1
	.loc	1 1170 0
.Lxta.endpoint_labels1:
	in r10, res[r0]
.Ltmp272:
	.loc	1 1170 0
	chkct res[r0], 1
	.loc	1 1170 0
	outct res[r0], 1
	.loc	1 1019 0
	ldaw r0, sp[86]
	.loc	1 1172 0
.Ltmp273:
	ldw r6, r0[0]
.Ltmp274:
	.loc	1 1174 0
	ldaw r0, sp[135]
	.loc	1 1174 0
	stw r3, r0[0]
	.loc	1 1176 0
	ldaw r11, cp[.str207]
	mov r0, r11
	mov r1, r7
	mov r2, r10
	mov r8, r3
.Lxta.call_labels6:
	bl iprintf
	mov r3, r8
.Ltmp275:
	.loc	1 1020 0
	ldaw r0, sp[145]
	.loc	1 1177 0
.Ltmp276:
	stw r3, r0[0]
	.loc	1 1179 0
	bf r10, .LBB48_29
.Ltmp277:
.Lxtalabel3:
	eq r0, r10, 1
	bf r0, .LBB48_4
.Ltmp278:
.Lxtalabel4:
	mkmsk r0, 2
	.loc	1 1191 0
	lsu r0, r7, r0
.Ltrap_info0:
	ecallf r0
	.loc	1 1191 0
	shl r0, r7, 3
	ldaw r1, sp[65]
	add r0, r1, r0
	ldc r1, 288
	bu .LBB48_30
.Ltmp279:
.LBB48_29:
.Lxtalabel5:
	mkmsk r0, 2
	.loc	1 1188 0
	lsu r0, r7, r0
.Ltrap_info1:
	ecallf r0
	.loc	1 1188 0
	shl r0, r7, 3
	ldaw r1, sp[65]
	add r0, r1, r0
	ldc r1, 284
.Ltmp280:
.LBB48_30:
.Lxtalabel6:
	add r0, r0, r1
	.loc	1 1188 0
	stw r5, r0[0]
	bu .LBB48_31
.LBB48_4:
.Lxtalabel7:
.Ltmp281:
	eq r0, r10, 2
	bf r0, .LBB48_31
.Ltmp282:
.Lxtalabel8:
	mkmsk r0, 2
	.loc	1 1181 25
	lsu r0, r7, r0
.Ltrap_info2:
	ecallf r0
	.loc	1 1181 25
	shl r0, r7, 3
	ldaw r1, sp[65]
	add r0, r1, r0
	ldc r1, 284
	add r1, r0, r1
	ldc r2, 288
	add r0, r0, r2
	.loc	1 1181 25
	ldw r2, r0[0]
.Ltmp283:
	.loc	1 1184 0
	stw r3, r1[0]
	.loc	1 1185 0
	stw r3, r0[0]
	bt r2, .LBB48_28
.Ltmp284:
.LBB48_31:
.Lxtalabel9:
	.loc	1 1196 0
	stw r3, sp[5]
	mov r8, r3
	stw r10, sp[4]
	stw r7, sp[3]
	ldw r0, sp[194]
	stw r0, sp[2]
	ldw r0, sp[195]
	stw r0, sp[1]
.Ltmp285:
	ldaw r0, sp[65]
	ldaw r1, sp[43]
	ldw r2, sp[23]
.Lxta.call_labels7:
	bl Handle_Real_Or_Clocked_Buttons
.Ltmp286:
	.loc	1 1019 0
	ldaw r0, sp[86]
	.loc	1 1201 21
.Ltmp287:
	ldw r0, r0[0]
	.loc	1 1201 21
	eq r0, r6, r0
	bt r0, .LBB48_33
.Ltmp288:
.Lxtalabel10:
	ldw r1, sp[22]
.Ltmp289:
	.loc	1 1202 0
	ldw r0, r1[0]
	.loc	1 1202 0
	ldw r1, r1[1]
.Ltmp290:
	.loc	1 1202 0
	ldw r2, r1[4]
	ldc r1, 50
	.loc	1 1202 0
.Lxta.call_labels8:
	bla r2
.Ltmp291:
.LBB48_33:
.Lxtalabel11:
	.loc	1 1174 0
	ldaw r0, sp[135]
	.loc	1 1205 21
	ldw r0, r0[0]
	mov r3, r8
	bf r0, .LBB48_28
.Ltmp292:
.Lxtalabel12:
	ldw r1, sp[22]
.Ltmp293:
	.loc	1 1206 0
	ldw r0, r1[0]
	.loc	1 1206 0
	ldw r1, r1[1]
.Ltmp294:
	.loc	1 1206 0
	ldw r2, r1[4]
	ldc r1, 100
	mov r6, r3
	bu .LBB48_26
.Ltmp295:
.Ltmp264:
.LBB48_1:
.Lxtalabel13:
	.loc	1 1060 0
	ldw r0, sp[25]
.Lxta.endpoint_labels2:
	in r0, res[r0]
.Ltmp296:
	.loc	1 1174 0
	ldaw r0, sp[135]
.Ltmp297:
	.loc	1 1069 0
	stw r3, r0[0]
	ldw r0, sp[23]
.Ltmp298:
	.loc	1 1073 0
	ldw r1, r0[0]
	.loc	1 1073 0
	ldw r0, r0[1]
.Ltmp299:
	mov r8, r3
	.loc	1 1073 0
	ldw r3, r0[1]
	ldaw r9, sp[38]
	.loc	1 1073 0
	mov r0, r9
	ldc r2, 104
.Lxta.call_labels9:
	bla r3
	mov r7, r0
	.loc	1 1073 0
	ldaw r6, sp[149]
	.loc	1 1073 0
	mov r0, r6
	mov r1, r9
	ldc r2, 19
	bl memcpy
	.loc	1 1073 0
	ldaw r0, sp[166]
	.loc	1 1073 0
	stw r7, r0[0]
	ldaw r7, sp[32]
	.loc	1 1074 0
	mov r0, r7
	mov r1, r6
.Lxta.call_labels10:
	bl chronodot_registers_to_datetime
	.loc	1 1074 0
	ldaw r0, sp[154]
	.loc	1 1074 0
	mov r1, r7
	ldc r2, 24
	bl __memcpy_4
	ldw r6, sp[21]
.Ltmp300:
	.loc	1 1075 0
	ldw r0, r6[0]
	.loc	1 1075 0
	ldw r1, r6[3]
	.loc	1 1075 0
	ldw r2, r1[1]
	.loc	1 1075 0
	mov r1, r5
.Lxta.call_labels11:
	bla r2
	ldw r10, sp[20]
.Ltmp301:
	.loc	1 1076 0
	ldw r0, r10[0]
	.loc	1 1076 0
	ldw r1, r10[3]
	.loc	1 1076 0
	ldw r1, r1[0]
	.loc	1 1076 0
.Lxta.call_labels12:
	bla r1
	ldw r0, sp[195]
	mov r1, r0
.Ltmp302:
	.loc	1 1077 0
	ldw r0, r1[0]
	.loc	1 1077 0
	ldw r1, r1[1]
.Ltmp303:
	.loc	1 1077 0
	ldw r1, r1[1]
	.loc	1 1077 0
.Lxta.call_labels13:
	bla r1
	mov r9, r6
.Ltmp304:
	.loc	1 1077 0
	ldaw r1, sp[185]
	.loc	1 1077 0
	stw r0, r1[0]
	.loc	1 1080 22
	clre
	.loc	1 1080 22
	ldw r0, r9[1]
	ldap r11, .Ltmp305
	.loc	1 1080 22
	setv res[r0], r11
	.loc	1 1080 22
	eeu res[r0]
	.loc	1 1080 22
	ldw r1, r10[1]
	ldap r11, .Ltmp306
	.loc	1 1080 22
	setv res[r1], r11
	.loc	1 1080 22
	eeu res[r1]
	mov r6, r8
	mov r7, r8
	.loc	1 1091 0

	.xtabranch .LBB48_6, .LBB48_7
	waiteu
.Ltmp307:
.Ltmp305:
.LBB48_6:
.Lxtalabel14:
	.loc	1 1081 0
	chkct res[r0], 1
	.loc	1 1081 0
	stw r5, r9[2]
	.loc	1 1082 0
	ldw r1, r9[0]
	.loc	1 1082 0
	ldw r0, r9[3]
	.loc	1 1082 0
	ldw r3, r0[0]
	ldaw r7, sp[27]
	.loc	1 1082 0
	mov r0, r7
	mov r2, r5
.Lxta.call_labels14:
	bla r3
	.loc	1 1082 0
	ldw r0, r9[1]
	.loc	1 1082 0
	chkct res[r0], 1
	.loc	1 1082 0
	stw r8, r9[2]
	.loc	1 1082 0
	ldaw r0, sp[167]
	.loc	1 1082 0
	mov r1, r7
	ldc r2, 20
	bl __memcpy_4
.Ltmp308:
	mov r7, r5
	bu .LBB48_8
.Ltmp309:
.Ltmp306:
.LBB48_7:
.Lxtalabel15:
	.loc	1 1086 0
	chkct res[r1], 1
	.loc	1 1086 0
	stw r5, r10[2]
	.loc	1 1087 0
	ldw r0, r10[0]
	.loc	1 1087 0
	ldw r1, r10[3]
	.loc	1 1087 0
	ldw r3, r1[1]
	.loc	1 1087 0
	mov r1, r5
	.loc	1 1087 0
	ldaw r6, sp[179]
	.loc	1 1087 0
	mov r2, r6
.Lxta.call_labels15:
	bla r3
	.loc	1 1087 0
	ldw r2, r10[1]
	.loc	1 1087 0
	chkct res[r2], 1
	mov r2, r8
	.loc	1 1087 0
	stw r2, r10[2]
	.loc	1 1087 0
	ldaw r3, sp[177]
	.loc	1 1087 0
	stw r0, r3[0]
	.loc	1 1087 0
	ldaw r0, sp[178]
	.loc	1 1087 0
	stw r1, r0[0]
	.loc	1 1088 0
	ld16s r0, r6[r2]
	zext r0, 16
	.loc	1 1088 0
	mov r1, r2
.Lxta.call_labels16:
	bl RR_12V_24V_To_String_Ok
	mov r2, r0
	.loc	1 1088 0
	ldaw r0, sp[183]
	.loc	1 1088 0
	stw r2, r0[0]
	.loc	1 1088 0
	ldaw r0, sp[184]
	.loc	1 1088 0
	stw r1, r0[0]
	ldw r0, sp[194]
	mov r1, r0
.Ltmp310:
	.loc	1 1089 0
	ldw r0, r1[0]
	.loc	1 1089 0
	ldw r1, r1[1]
.Ltmp311:
	.loc	1 1089 0
	ldw r3, r1[4]
	.loc	1 1089 0
	mov r1, r2
.Lxta.call_labels17:
	bla r3
	.loc	1 1089 0
	ldaw r2, sp[181]
	.loc	1 1089 0
	stw r0, r2[0]
.Ltmp312:
	.loc	1 1089 0
	ldaw r0, sp[182]
	.loc	1 1089 0
	stw r1, r0[0]
	mov r6, r5
.Ltmp313:
.LBB48_8:
	.loc	1 1079 17
	bf r7, .LBB48_9
.Ltmp314:
	bt r6, .LBB48_11
.Ltmp315:
.LBB48_9:
.Lxtalabel16:
	.loc	1 1080 22
	clre
	.loc	1 1080 22
	ldw r0, r9[1]
	ldap r11, .Ltmp305
	.loc	1 1080 22
	setv res[r0], r11
	.loc	1 1080 22
	eeu res[r0]
	.loc	1 1080 22
	ldw r1, r10[1]
	ldap r11, .Ltmp306
	.loc	1 1080 22
	setv res[r1], r11
	.loc	1 1080 22
	eeu res[r1]
	.loc	1 1091 0

	.xtabranch .LBB48_6, .LBB48_7
	waiteu
.Ltmp316:
.LBB48_11:
.Lxtalabel17:
	stw r9, sp[21]
.Ltmp317:
	.loc	1 1095 0
	ldaw r0, sp[170]
	.loc	1 1095 0
	ldw r2, r0[0]
	.loc	1 1082 0
	ldaw r0, sp[167]
	.loc	1 1095 0
	ldw r3, r0[0]
	.loc	1 1095 0
	ashr r0, r2, 16
	.loc	1 1095 0
	sext r2, 16
	.loc	1 1095 0
	ldaw r1, sp[168]
	.loc	1 1095 0
	ldw r1, r1[0]
	.loc	1 1095 0
	ldaw r11, sp[171]
	.loc	1 1095 0
	ld16s r11, r11[r8]
	.loc	1 1095 0
	ldaw r6, sp[169]
	.loc	1 1095 0
	ldw r6, r6[0]
	.loc	1 1095 0
	stw r11, sp[3]
	stw r6, sp[4]
	stw r1, sp[2]
	stw r0, sp[1]
	ldaw r11, cp[.str200]
.Ltmp318:
	.loc	1 1039 0
	ldaw r0, sp[111]
	.loc	1 1095 0
.Ltmp319:
	mov r1, r11
.Lxta.call_labels18:
	bl siprintf
.Ltmp320:
	ldc r1, 85
	.loc	1 1099 17
	lsu r1, r1, r0
	bf r1, .LBB48_12
.Ltmp321:
.Lxtalabel18:
	ldaw r11, cp[.str202+4]
	.loc	1 1100 0
	ld8u r0, r11[r8]
.Ltmp322:
	.loc	1 1039 0
	ldaw r1, sp[111]
	ldc r2, 4
	.loc	1 1100 0
.Ltmp323:
	st8 r0, r1[r2]
	ldw r0, cp[.str202]
	stw r0, r1[0]
	mov r0, r2
.Ltmp324:
.LBB48_12:
.Lxtalabel19:
	.loc	1 1037 0
	ldaw r7, sp[109]
	.loc	1 1103 0
.Ltmp325:
	stw r0, r7[0]
	.loc	1 1106 0
	ldaw r0, sp[45]
	.loc	1 1074 0
	ldaw r6, sp[154]
	.loc	1 1106 0
	mov r1, r6
	ldc r9, 24
	mov r2, r9
	bl __memcpy_4
.Ltmp326:
	.loc	1 1043 0
	ldaw r1, sp[57]
	.loc	1 1108 17
.Ltmp327:
	ldw r0, r1[0]
	.loc	1 1115 0
	ldaw r7, sp[51]
	bf r0, .LBB48_14
.Ltmp328:
.Lxtalabel20:
	.loc	1 1109 0
	stw r8, r1[0]
	.loc	1 1110 0
	mov r0, r7
	mov r1, r6
	mov r2, r9
	bl __memcpy_4
.Ltmp329:
.LBB48_14:
.Lxtalabel21:
	.loc	1 1071 0
	ldw r0, sp[26]
	ldw r1, cp[.LCPI48_0]
	add r0, r0, r1
.Ltmp330:
	.loc	1 1113 0
	stw r0, sp[26]
	ldaw r0, sp[43]
	mov r9, r6
	ldw r6, sp[22]
.Ltmp331:
	mov r1, r6
.Lxta.call_labels19:
	bl Handle_Light_Sunrise_Sunset_Etc
.Ltmp332:
	.loc	1 1174 0
	ldaw r10, sp[135]
.Ltmp333:
	.loc	1 1113 0
	stw r0, r10[0]
	.loc	1 1115 0
	mov r0, r7
	mov r1, r9
	ldc r2, 24
	bl __memcpy_4
	.loc	1 1117 0
	ldw r0, r6[0]
	.loc	1 1117 0
	ldw r1, r6[1]
.Ltmp334:
	.loc	1 1117 0
	ldw r2, r1[1]
	.loc	1 1117 0
	ldaw r1, sp[173]
	.loc	1 1117 0
.Lxta.call_labels20:
	bla r2
	.loc	1 1117 0
	ldaw r3, sp[172]
	.loc	1 1117 0
	stw r0, r3[0]
	.loc	1 1117 0
	ldaw r0, sp[176]
	.loc	1 1117 0
	stw r1, r0[0]
	.loc	1 1117 0
	ldaw r0, sp[148]
	.loc	1 1117 0
	stw r2, r0[0]
.Ltmp335:
	.loc	1 1038 0
	ldaw r2, sp[110]
	.loc	1 1120 17
.Ltmp336:
	ldw r1, r2[0]
.Ltmp337:
	.loc	1 1037 0
	ldaw r0, sp[109]
	.loc	1 1120 17
.Ltmp338:
	ldw r0, r0[0]
	.loc	1 1120 17
	eq r1, r1, r0
	.loc	1 1120 17
	bf r1, .LBB48_15
.Ltmp339:
.Lxtalabel22:
	.loc	1 1019 0
	ldaw r0, sp[86]
	.loc	1 1129 17
.Ltmp340:
	ldw r0, r0[0]
	.loc	1 1129 17
	eq r0, r0, 1
	mov r1, r8
.Ltmp341:
	.loc	1 1020 0
	ldaw r2, sp[145]
	mov r7, r10
	ldw r9, sp[19]
	bf r0, .LBB48_20
	bu .LBB48_17
.Ltmp342:
.LBB48_15:
.Lxtalabel23:
	.loc	1 1121 0
	stw r0, r2[0]
.Ltmp343:
	.loc	1 1019 0
	ldaw r0, sp[86]
	.loc	1 1122 0
.Ltmp344:
	stw r5, r0[0]
	.loc	1 1123 0
	stw r5, r10[0]
	.loc	1 1124 0
	stw r5, sp[68]
	mov r1, r8
.Ltmp345:
	.loc	1 1020 0
	ldaw r2, sp[145]
	.loc	1 1125 0
.Ltmp346:
	stw r1, r2[0]
	.loc	1 1126 0
	stw r1, sp[66]
	mov r7, r10
	ldw r9, sp[19]
.Ltmp347:
.LBB48_17:
.Lxtalabel24:
	mov r6, r1
	.loc	1 1130 21
	ldw r0, r2[0]
	ldc r1, 600
	.loc	1 1130 21
	eq r1, r0, r1
	.loc	1 1130 21
	bf r1, .LBB48_19
.Ltmp348:
.Lxtalabel25:
	.loc	1 1131 0
	stw r5, r7[0]
	.loc	1 1132 0
.Lxta.call_labels21:
	bl Clear_All_Pixels_In_Buffer
	.loc	1 1133 0
	ldw r0, sp[23]
.Lxta.call_labels22:
	bl writeToDisplay_i2c_all_buffer
	mov r1, r6
.Ltmp349:
	.loc	1 1019 0
	ldaw r0, sp[86]
	.loc	1 1134 0
.Ltmp350:
	stw r1, r0[0]
	.loc	1 1135 0
	stw r1, sp[65]
	.loc	1 1136 0
	stw r1, sp[73]
	.loc	1 1137 0
	stw r1, sp[74]
.Ltmp351:
	.loc	1 1032 0
	ldaw r0, sp[81]
.Ltmp352:
	.loc	1 1138 0
	stw r1, r0[0]
.Ltmp353:
	.loc	1 1033 0
	ldaw r0, sp[82]
.Ltmp354:
	.loc	1 1139 0
	stw r1, r0[0]
	bu .LBB48_20
.Ltmp355:
.LBB48_19:
.Lxtalabel26:
	.loc	1 1141 0
	add r0, r0, 1
	.loc	1 1141 0
	stw r0, r2[0]
	mov r1, r6
.Ltmp356:
.LBB48_20:
.Lxtalabel27:
	.loc	1 1035 0
	ldaw r0, sp[83]
.Ltmp357:
	.loc	1 1145 17
	ldw r0, r0[0]
	bf r0, .LBB48_22
.Ltmp358:
.Lxtalabel28:
	.loc	1 1146 0
	sub r0, r0, 1
.Ltmp359:
	.loc	1 1035 0
	ldaw r2, sp[83]
	.loc	1 1146 0
.Ltmp360:
	stw r0, r2[0]
	bt r0, .LBB48_22
.Ltmp361:
.Lxtalabel29:
	.loc	1 1148 0
	stw r5, sp[65]
	.loc	1 1149 0
	stw r1, sp[73]
	.loc	1 1150 0
	stw r1, sp[74]
.Ltmp362:
	.loc	1 1032 0
	ldaw r0, sp[81]
.Ltmp363:
	.loc	1 1151 0
	stw r1, r0[0]
.Ltmp364:
	.loc	1 1033 0
	ldaw r0, sp[82]
.Ltmp365:
	.loc	1 1152 0
	stw r1, r0[0]
	.loc	1 1153 0
	stw r5, r7[0]
.Ltmp366:
.LBB48_22:
.Lxtalabel30:
	mov r6, r1
	.loc	1 1157 17
	ldw r0, sp[65]
	.loc	1 1157 17
	eq r0, r0, 1
	bf r0, .LBB48_24
.Ltmp367:
.Lxtalabel31:
	.loc	1 1022 0
	ldaw r0, sp[146]
	.loc	1 1158 0
.Ltmp368:
	ldw r0, r0[0]
	.loc	1 1158 0
	stw r5, sp[5]
	ldc r1, 2
	stw r1, sp[4]
	stw r0, sp[3]
	ldw r0, sp[194]
	stw r0, sp[2]
	ldw r0, sp[195]
	stw r0, sp[1]
	ldaw r0, sp[65]
	ldaw r1, sp[43]
	ldw r2, sp[23]
.Lxta.call_labels23:
	bl Handle_Real_Or_Clocked_Buttons
.Ltmp369:
.LBB48_24:
.Lxtalabel32:
	.loc	1 1164 17
	ldw r0, r7[0]
	bf r0, .LBB48_27
.Ltmp370:
.Lxtalabel33:
	ldw r1, sp[22]
.Ltmp371:
	.loc	1 1165 0
	ldw r0, r1[0]
	.loc	1 1165 0
	ldw r1, r1[1]
.Ltmp372:
	.loc	1 1165 0
	ldw r2, r1[4]
	ldc r1, 100
	bu .LBB48_26
.Ltmp373:
	.cc_bottom System_Task.function
	.set	System_Task.nstackwords,((random_create_generator_from_hw_seed.nstackwords $M puts.nstackwords $M Adafruit_GFX_constructor.nstackwords $M Adafruit_SSD1306_i2c_begin.nstackwords $M _i.i2c_internal_commands_if.read_chronodot_ok.max.nstackwords $M memcpy.nstackwords $M chronodot_registers_to_datetime.nstackwords $M _i.i2c_external_commands_if.command.max.nstackwords $M _i.lib_startkit_adc_commands_if.trigger.max.nstackwords $M _i.temperature_water_commands_if.get_now_regulating_at.max.nstackwords $M _i.i2c_external_commands_if.read_temperature_ok.max.nstackwords $M _i.lib_startkit_adc_commands_if.read.max.nstackwords $M RR_12V_24V_To_String_Ok.nstackwords $M _i.temperature_heater_commands_if.get_regulator_data.max.nstackwords $M siprintf.nstackwords $M Handle_Light_Sunrise_Sunset_Etc.nstackwords $M _i.port_heat_light_commands_if.get_light_composition_etc.max.nstackwords $M Clear_All_Pixels_In_Buffer.nstackwords $M writeToDisplay_i2c_all_buffer.nstackwords $M __memcpy_4.nstackwords $M iprintf.nstackwords $M Handle_Real_Or_Clocked_Buttons.nstackwords $M _i.port_heat_light_commands_if.beeper_blip_command.max.nstackwords) + 193)
	.globl	System_Task.nstackwords
	.set	System_Task.maxcores,Adafruit_GFX_constructor.maxcores $M Adafruit_SSD1306_i2c_begin.maxcores $M Clear_All_Pixels_In_Buffer.maxcores $M Handle_Light_Sunrise_Sunset_Etc.maxcores $M Handle_Real_Or_Clocked_Buttons.maxcores $M RR_12V_24V_To_String_Ok.maxcores $M _i.i2c_external_commands_if.command.max.maxcores $M _i.i2c_external_commands_if.read_temperature_ok.max.maxcores $M _i.i2c_internal_commands_if.read_chronodot_ok.max.maxcores $M _i.lib_startkit_adc_commands_if.read.max.maxcores $M _i.lib_startkit_adc_commands_if.trigger.max.maxcores $M _i.port_heat_light_commands_if.beeper_blip_command.max.maxcores $M _i.port_heat_light_commands_if.get_light_composition_etc.max.maxcores $M _i.temperature_heater_commands_if.get_regulator_data.max.maxcores $M _i.temperature_water_commands_if.get_now_regulating_at.max.maxcores $M chronodot_registers_to_datetime.maxcores $M iprintf.maxcores $M puts.maxcores $M random_create_generator_from_hw_seed.maxcores $M siprintf.maxcores $M writeToDisplay_i2c_all_buffer.maxcores $M 1
	.globl	System_Task.maxcores
	.set	System_Task.maxtimers,Adafruit_GFX_constructor.maxtimers $M Adafruit_SSD1306_i2c_begin.maxtimers $M Clear_All_Pixels_In_Buffer.maxtimers $M Handle_Light_Sunrise_Sunset_Etc.maxtimers $M Handle_Real_Or_Clocked_Buttons.maxtimers $M RR_12V_24V_To_String_Ok.maxtimers $M _i.i2c_external_commands_if.command.max.maxtimers $M _i.i2c_external_commands_if.read_temperature_ok.max.maxtimers $M _i.i2c_internal_commands_if.read_chronodot_ok.max.maxtimers $M _i.lib_startkit_adc_commands_if.read.max.maxtimers $M _i.lib_startkit_adc_commands_if.trigger.max.maxtimers $M _i.port_heat_light_commands_if.beeper_blip_command.max.maxtimers $M _i.port_heat_light_commands_if.get_light_composition_etc.max.maxtimers $M _i.temperature_heater_commands_if.get_regulator_data.max.maxtimers $M _i.temperature_water_commands_if.get_now_regulating_at.max.maxtimers $M chronodot_registers_to_datetime.maxtimers $M iprintf.maxtimers $M puts.maxtimers $M random_create_generator_from_hw_seed.maxtimers $M siprintf.maxtimers $M writeToDisplay_i2c_all_buffer.maxtimers $M 0
	.globl	System_Task.maxtimers
	.set	System_Task.maxchanends,Adafruit_GFX_constructor.maxchanends $M Adafruit_SSD1306_i2c_begin.maxchanends $M Clear_All_Pixels_In_Buffer.maxchanends $M Handle_Light_Sunrise_Sunset_Etc.maxchanends $M Handle_Real_Or_Clocked_Buttons.maxchanends $M RR_12V_24V_To_String_Ok.maxchanends $M _i.i2c_external_commands_if.command.max.maxchanends $M _i.i2c_external_commands_if.read_temperature_ok.max.maxchanends $M _i.i2c_internal_commands_if.read_chronodot_ok.max.maxchanends $M _i.lib_startkit_adc_commands_if.read.max.maxchanends $M _i.lib_startkit_adc_commands_if.trigger.max.maxchanends $M _i.port_heat_light_commands_if.beeper_blip_command.max.maxchanends $M _i.port_heat_light_commands_if.get_light_composition_etc.max.maxchanends $M _i.temperature_heater_commands_if.get_regulator_data.max.maxchanends $M _i.temperature_water_commands_if.get_now_regulating_at.max.maxchanends $M chronodot_registers_to_datetime.maxchanends $M iprintf.maxchanends $M puts.maxchanends $M random_create_generator_from_hw_seed.maxchanends $M siprintf.maxchanends $M writeToDisplay_i2c_all_buffer.maxchanends $M 0
	.globl	System_Task.maxchanends
.Ltmp374:
	.size	System_Task, .Ltmp374-System_Task
.Lfunc_end48:
	.cfi_endproc

	.globl	Start_Screen_Klokke
	.align	4
	.type	Start_Screen_Klokke,@function
	.cc_top Start_Screen_Klokke.function,Start_Screen_Klokke
Start_Screen_Klokke:
	.cfi_startproc
.Lxtalabel34:
	retsp 0
	# RETURN_REG_HOLDER
	.cc_bottom Start_Screen_Klokke.function
	.set	Start_Screen_Klokke.nstackwords,0
	.globl	Start_Screen_Klokke.nstackwords
	.set	Start_Screen_Klokke.maxcores,1
	.globl	Start_Screen_Klokke.maxcores
	.set	Start_Screen_Klokke.maxtimers,0
	.globl	Start_Screen_Klokke.maxtimers
	.set	Start_Screen_Klokke.maxchanends,0
	.globl	Start_Screen_Klokke.maxchanends
.Ltmp375:
	.size	Start_Screen_Klokke, .Ltmp375-Start_Screen_Klokke
	.cfi_endproc

	.globl	Stop_Screen_Klokke
	.align	4
	.type	Stop_Screen_Klokke,@function
	.cc_top Stop_Screen_Klokke.function,Stop_Screen_Klokke
Stop_Screen_Klokke:
	.cfi_startproc
.Lxtalabel35:
	retsp 0
	# RETURN_REG_HOLDER
	.cc_bottom Stop_Screen_Klokke.function
	.set	Stop_Screen_Klokke.nstackwords,0
	.globl	Stop_Screen_Klokke.nstackwords
	.set	Stop_Screen_Klokke.maxcores,1
	.globl	Stop_Screen_Klokke.maxcores
	.set	Stop_Screen_Klokke.maxtimers,0
	.globl	Stop_Screen_Klokke.maxtimers
	.set	Stop_Screen_Klokke.maxchanends,0
	.globl	Stop_Screen_Klokke.maxchanends
.Ltmp376:
	.size	Stop_Screen_Klokke, .Ltmp376-Stop_Screen_Klokke
	.cfi_endproc

	.section	.cp.rodata.cst4,"aMc",@progbits,4
	.cc_top .LCPI51_0.data,.LCPI51_0
	.align	4
	.type	.LCPI51_0,@object
	.size	.LCPI51_0, 4
.LCPI51_0:
	.long	3354419
	.cc_bottom .LCPI51_0.data
	.cc_top .LCPI51_1.data,.LCPI51_1
	.align	4
	.type	.LCPI51_1,@object
	.size	.LCPI51_1, 4
.LCPI51_1:
	.long	3354418
	.cc_bottom .LCPI51_1.data
	.text
	.globl	Handle_Real_Or_Clocked_Button_Actions
	.align	4
	.type	Handle_Real_Or_Clocked_Button_Actions,@function
	.cc_top Handle_Real_Or_Clocked_Button_Actions.function,Handle_Real_Or_Clocked_Button_Actions
Handle_Real_Or_Clocked_Button_Actions:
.Lfunc_begin51:
	.loc	1 171 0
	.cfi_startproc
.Lxtalabel36:
	entsp 58
.Ltmp377:
	.cfi_def_cfa_offset 232
.Ltmp378:
	.cfi_offset 15, 0
	stw r4, sp[57]
.Ltmp379:
	.cfi_offset 4, -4
	stw r5, sp[56]
.Ltmp380:
	.cfi_offset 5, -8
	stw r6, sp[55]
.Ltmp381:
	.cfi_offset 6, -12
	stw r7, sp[54]
.Ltmp382:
	.cfi_offset 7, -16
	stw r8, sp[53]
.Ltmp383:
	.cfi_offset 8, -20
	stw r9, sp[52]
.Ltmp384:
	.cfi_offset 9, -24
	stw r10, sp[51]
.Ltmp385:
	.cfi_offset 10, -28
	mov r10, r2
.Ltmp386:
	mov r9, r1
.Ltmp387:
	mov r5, r0
.Ltmp388:
	.loc	1 178 0 prologue_end
	ldc r0, 0
	ldaw r6, sp[50]
	ldc r1, 247
.Ltmp389:
	.loc	1 174 0
	st8 r1, r6[r0]
	mkmsk r4, 1
	.loc	1 174 0
	or r1, r6, r4
	.loc	1 174 0
	st8 r0, r1[r0]
	ldaw r1, sp[49]
	ldc r2, 143
	.loc	1 175 0
.Ltmp390:
	st8 r2, r1[r0]
	.loc	1 175 0
	or r1, r1, r4
	.loc	1 175 0
	st8 r0, r1[r0]
	ldaw r1, sp[48]
	ldc r2, 132
	.loc	1 176 0
.Ltmp391:
	st8 r2, r1[r0]
	.loc	1 176 0
	or r2, r1, r4
	.loc	1 176 0
	st8 r0, r2[r0]
	ldaw r2, sp[47]
	ldc r3, 236
.Ltmp392:
	.loc	1 177 0
	st8 r3, r2[r0]
	.loc	1 177 0
	or r2, r2, r4
	.loc	1 177 0
	st8 r0, r2[r0]
	ldaw r8, sp[46]
	ldc r2, 240
	.loc	1 178 0
.Ltmp393:
	st8 r2, r8[r0]
	.loc	1 178 0
	or r2, r8, r4
	.loc	1 178 0
	st8 r0, r2[r0]
	.loc	1 182 0
	ldw r2, r5[1]
	mkmsk r3, 3
	.loc	1 182 0
	lsu r3, r3, r2
	bt r3, .LBB51_122
.Ltmp394:
.Lxtalabel37:
	ldw r3, sp[61]
.Ltmp395:

	.xtabranch .Ljumptable0+2,.Ljumptable0+4,.Ljumptable0+6,.Ljumptable0+8,.Ljumptable0+10,.Ljumptable0+12,.Ljumptable0+14,.Ljumptable0+16
.Ljumptable0:
		
	bru r2
	.jmptable .LBB51_2,.LBB51_13,.LBB51_15,.LBB51_25,.LBB51_59,.LBB51_64,.LBB51_68,.LBB51_72
.Ltmp396:
.LBB51_2:
.Lxtalabel38:
	mov r8, r3
.Ltmp397:
	.loc	1 185 0
.Lxta.call_labels24:
	bl Clear_All_Pixels_In_Buffer
.Ltmp398:
	ldc r0, 176
	.loc	1 186 13
	add r7, r5, r0
	.loc	1 186 13
	ldw r0, r7[0]
	bf r0, .LBB51_7
.Ltmp399:
.Lxtalabel39:
	ldc r1, 320
	.loc	1 187 0
	add r1, r5, r1
	ldc r2, 0
	.loc	1 187 0
	stw r2, r1[0]
	ldc r1, 94
	.loc	1 189 17
	lsu r0, r1, r0
	bf r0, .LBB51_5
.Ltmp400:
.Lxtalabel40:
	.loc	1 190 0
	stw r1, r7[0]
.Ltmp401:
.LBB51_5:
.Lxtalabel41:
	mkmsk r4, 1
	.loc	1 193 0
	mov r0, r4
.Lxta.call_labels25:
	bl setTextSize
.Ltmp402:
	.loc	1 194 0
	mov r0, r4
.Lxta.call_labels26:
	bl setTextColor
	ldc r4, 0
	.loc	1 195 0
	mov r0, r4
	mov r1, r4
.Lxta.call_labels27:
	bl setCursor
	ldc r9, 184
	.loc	1 196 0
	add r6, r5, r9
	.loc	1 196 0
	ldw r1, r7[0]
	ldc r2, 95
	.loc	1 196 0
	mov r0, r6
.Lxta.call_labels28:
	bl display_print
	bt r8, .LBB51_7
.Ltmp403:
.Lxtalabel42:
	.loc	1 199 0
	ldw r0, r7[0]
	ldc r1, 94
	.loc	1 199 0
	lsu r1, r1, r0
.Ltrap_info3:
	ecallt r1
	.loc	1 199 0
	add r0, r5, r0
	.loc	1 199 0
	st8 r4, r0[r9]
	.loc	1 200 0
	ldaw r11, cp[.str2]
	mov r0, r11
	mov r1, r6
.Lxta.call_labels29:
	bl iprintf
.Ltmp404:
.LBB51_7:
.Lxtalabel43:
	.loc	1 203 0
	mov r0, r10
.Lxta.call_labels30:
	bl writeToDisplay_i2c_all_buffer
.Ltmp405:
	bu .LBB51_122
.Ltmp406:
.LBB51_13:
	stw r10, sp[18]
.Ltmp407:
	ldw r4, sp[59]
	ldc r0, 88
	add r7, r5, r0
	ldc r0, 0
	ldc r1, 32
	ldc r2, 85
.Ltmp408:
.LBB51_14:
.Lxtalabel44:
	.loc	1 209 0
	st8 r1, r7[r0]
	.loc	1 208 0
	add r0, r0, 1
.Ltmp409:
	.loc	1 208 0
	lss r3, r0, r2
.Ltmp410:
.Lxta.loop_labels0:
	# LOOPMARKER 6
	.loc	1 208 0
	bt r3, .LBB51_14
.Ltmp411:
.Lxtalabel45:
	.loc	1 212 0
.Lxta.call_labels31:
	bl Clear_All_Pixels_In_Buffer
.Ltmp412:
	.loc	1 219 0
	ldw r0, r4[0]
	.loc	1 219 0
	ldw r1, r4[1]
	.loc	1 219 0
	ldw r3, r1[0]
	ldc r1, 2
	ldaw r2, sp[44]
	.loc	1 219 0
.Lxta.call_labels32:
	bla r3
	.loc	1 221 0
	ldw r0, r4[0]
	.loc	1 221 0
	ldw r1, r4[1]
	.loc	1 221 0
	ldw r3, r1[0]
	mkmsk r1, 1
	ldaw r2, sp[42]
	mov r9, r1
	mov r10, r2
	.loc	1 221 0
.Lxta.call_labels33:
	bla r3
	.loc	1 223 0
	ldw r0, r4[0]
	.loc	1 223 0
	ldw r1, r4[1]
	.loc	1 223 0
	ldw r3, r1[0]
	ldc r8, 0
	ldaw r4, sp[40]
.Ltmp413:
	.loc	1 223 0
	mov r1, r8
	mov r2, r4
.Lxta.call_labels34:
	bla r3
	.loc	1 227 0
	stw r6, sp[4]
	stw r4, sp[3]
	stw r6, sp[2]
	stw r10, sp[1]
	ldaw r11, cp[.str13]
	mov r0, r7
	mov r1, r11
	ldaw r2, sp[44]
	mov r3, r6
.Lxta.call_labels35:
	bl siprintf
	mov r6, r0
.Ltmp414:
	.loc	1 240 0
	mov r0, r9
.Lxta.call_labels36:
	bl setTextSize
	.loc	1 241 0
	mov r0, r9
.Lxta.call_labels37:
	bl setTextColor
	.loc	1 242 0
	mov r0, r8
	mov r1, r8
.Lxta.call_labels38:
	bl setCursor
	ldc r4, 84
	ldc r2, 85
	.loc	1 243 0
	mov r0, r7
	mov r1, r4
.Lxta.call_labels39:
	bl display_print
	.loc	1 244 0
	ldw r0, sp[18]
.Lxta.call_labels40:
	bl writeToDisplay_i2c_all_buffer
	.loc	1 245 0
	add r0, r5, r4
	.loc	1 245 0
	stw r9, r0[0]
	ldw r0, sp[61]
	bt r0, .LBB51_11
.Ltmp415:
.Lxtalabel46:
	.loc	1 248 0
	stw r8, r5[8]
	ldc r0, 64
	.loc	1 249 0
	add r0, r5, r0
	.loc	1 249 0
	stw r8, r0[0]
	.loc	1 250 0
	ldaw r11, cp[.str26]
	ldaw r1, sp[44]
	ldaw r2, sp[42]
	ldaw r3, sp[40]
.Ltmp416:
	bu .LBB51_10
.Ltmp417:
.LBB51_15:
	stw r10, sp[18]
.Ltmp418:
	ldw r4, sp[60]
	ldc r0, 88
	add r7, r5, r0
	ldc r0, 0
	ldc r1, 32
	ldc r2, 85
.Ltmp419:
.LBB51_16:
.Lxtalabel47:
	.loc	1 259 0
	st8 r1, r7[r0]
	.loc	1 258 0
	add r0, r0, 1
.Ltmp420:
	.loc	1 258 0
	lss r3, r0, r2
.Ltmp421:
.Lxta.loop_labels1:
	# LOOPMARKER 5
	.loc	1 258 0
	bt r3, .LBB51_16
.Ltmp422:
.Lxtalabel48:
	.loc	1 262 0
.Lxta.call_labels41:
	bl Clear_All_Pixels_In_Buffer
.Ltmp423:
	.loc	1 264 0
	ldaw r11, cp[Handle_Real_Or_Clocked_Button_Actions.0.init]
	ldaw r0, sp[35]
	ldc r2, 10
	mov r1, r11
	bl memcpy
	.loc	1 267 0
	ldw r0, r4[0]
	.loc	1 267 0
	ldw r1, r4[1]
	.loc	1 267 0
	ldw r3, r1[3]
	mkmsk r10, 2
	ldaw r4, sp[38]
.Ltmp424:
	.loc	1 267 0
	mov r1, r10
	mov r2, r4
.Lxta.call_labels42:
	bla r3
	ldc r0, 464
	.loc	1 271 0
	add r0, r5, r0
	.loc	1 271 0
	stw r0, sp[17]
	ldw r0, r0[0]
	ldc r1, 468
	.loc	1 271 0
	add r1, r5, r1
	.loc	1 271 0
	stw r1, sp[16]
	ldw r1, r1[0]
	.loc	1 271 0
	stw r1, sp[4]
	stw r0, sp[1]
	stw r6, sp[3]
	stw r4, sp[2]
	ldaw r11, cp[.str37]
	ldaw r2, sp[49]
	mov r0, r7
	mov r1, r11
	mov r3, r2
.Lxta.call_labels43:
	bl siprintf
	mov r6, r0
.Ltmp425:
	ldc r0, 480
	.loc	1 286 13
	add r4, r5, r0
	.loc	1 286 13
	ldw r0, r4[0]
	.loc	1 286 13
	eq r8, r0, 4
	mkmsk r9, 1
	.loc	1 287 0
	stw r9, sp[2]
	stw r10, sp[1]
	ldc r0, 106
	ldc r1, 11
	ldc r2, 16
	ldc r3, 20
	bl drawRoundRect
	.loc	1 286 13
	bf r8, .LBB51_123
.Ltmp426:
.Lxtalabel49:
	.loc	1 288 0
	stw r9, sp[2]
	stw r10, sp[1]
	ldc r0, 106
	ldc r1, 11
	ldc r2, 16
	ldc r3, 20
.Ltmp427:
.Lxta.call_labels44:
	bl fillRoundRect
	ldc r0, 0
	bu .LBB51_19
.Ltmp428:
.LBB51_25:
.Lxtalabel50:
	ldw r0, cp[.LCPI51_0]
	.loc	1 315 0
.Ltmp429:
	stw r0, sp[34]
	ldw r0, cp[.LCPI51_1]
.Ltmp430:
	.loc	1 316 0
	stw r0, sp[33]
	ldc r0, 88
	add r7, r5, r0
	ldc r0, 0
	ldc r1, 32
	ldc r2, 85
.Ltmp431:
.LBB51_26:
.Lxtalabel51:
	.loc	1 319 0
	st8 r1, r7[r0]
	.loc	1 318 0
	add r0, r0, 1
.Ltmp432:
	.loc	1 318 0
	lss r3, r0, r2
.Ltmp433:
.Lxta.loop_labels2:
	# LOOPMARKER 4
	.loc	1 318 0
	bt r3, .LBB51_26
.Ltmp434:
.Lxtalabel52:
	.loc	1 321 0
	ldw r1, r5[9]
	.loc	1 321 0
	ldaw r11, cp[.str55]
	mov r0, r11
.Lxta.call_labels45:
	bl iprintf
.Ltmp435:
	.loc	1 323 0
	ldw r1, r5[9]
	.loc	1 323 0
	sub r2, r1, 1
	ldc r0, 2
	lsu r2, r2, r0
	bf r2, .LBB51_22
.Ltmp436:
.Lxtalabel53:
	ldc r0, 72
	.loc	1 413 0
	add r0, r5, r0
	ldc r2, 30
	.loc	1 413 0
	stw r2, r0[0]
	.loc	1 414 21
	eq r0, r1, 1
	bf r0, .LBB51_44
.Ltmp437:
.Lxtalabel54:
	ldc r0, 80
	.loc	1 415 0
	add r0, r9, r0
	ldc r1, 76
	.loc	1 415 0
	add r1, r9, r1
	.loc	1 415 0
	ldw r5, r1[0]
	bu .LBB51_47
.Ltmp438:
.LBB51_59:
.Lxtalabel55:
	stw r10, sp[18]
.Ltmp439:
	.loc	1 457 0
	ldc r0, 0
	ldaw r4, sp[23]
	ldc r1, 32
.Ltmp440:
	.loc	1 456 0
	st16 r1, r4[r0]
	ldc r2, 2
	ldaw r7, sp[22]
.Ltmp441:
	.loc	1 457 0
	or r3, r7, r2
.Ltmp442:
	ldaw r11, cp[.str102]
	ld8u r2, r11[r2]
	st8 r2, r3[r0]
	ld16s r2, r11[r0]
.Ltmp443:
	st16 r2, r7[r0]
	ldc r2, 88
	add r7, r5, r2
	ldc r2, 85
.Ltmp444:
.LBB51_60:
.Lxtalabel56:
	.loc	1 460 0
	st8 r1, r7[r0]
	.loc	1 459 0
	add r0, r0, 1
.Ltmp445:
	.loc	1 459 0
	lss r3, r0, r2
.Ltmp446:
.Lxta.loop_labels3:
	# LOOPMARKER 3
	.loc	1 459 0
	bt r3, .LBB51_60
.Ltmp447:
.Lxtalabel57:
	ldc r0, 456
	.loc	1 464 0
	add r9, r5, r0
	ldc r0, 460
	.loc	1 464 0
	add r0, r5, r0
	.loc	1 469 0
	ldc r8, 0
	.loc	1 464 0
	ld16s r0, r0[r8]
	zext r0, 16
	ldaw r1, sp[28]
	.loc	1 464 0
.Lxta.call_labels46:
	bl TC1047_Raw_DegC_To_String_Ok
.Ltmp448:
	ldc r0, 462
	.loc	1 465 0
	add r0, r5, r0
	.loc	1 465 0
	ld16s r0, r0[r8]
	zext r0, 16
	ldaw r1, sp[26]
	.loc	1 465 0
.Lxta.call_labels47:
	bl RR_12V_24V_To_String_Ok
	.loc	1 466 0
	ld16s r0, r9[r8]
	zext r0, 16
	ldaw r1, sp[24]
	mov r10, r1
	.loc	1 466 0
.Lxta.call_labels48:
	bl RR_12V_24V_To_String_Ok
	ldc r0, 458
	.loc	1 469 0
	add r0, r5, r0
	.loc	1 469 0
	ld16s r0, r0[r8]
	zext r0, 16
	.loc	1 469 0
	mov r1, r8
.Lxta.call_labels49:
	bl Ambient_Light_Sensor_ALS_PDIC243_To_String_Ok
	mov r9, r0
	ldc r0, 9
	.loc	1 472 0
	lss r0, r0, r9
	bt r0, .LBB51_57
.Ltmp449:
.Lxtalabel58:
	ldaw r4, sp[22]
.Ltmp450:
.LBB51_57:
.Lxtalabel59:
	.loc	1 472 0
	stw r9, sp[1]
	stw r4, sp[2]
	stw r6, sp[4]
	ldaw r0, sp[28]
	stw r0, sp[3]
	ldaw r11, cp[.str113]
	mov r0, r7
	mov r1, r11
	ldaw r2, sp[26]
	mov r3, r10
.Ltmp451:
.Lxta.call_labels50:
	bl siprintf
	mov r6, r0
.Ltmp452:
	.loc	1 488 0
.Lxta.call_labels51:
	bl Clear_All_Pixels_In_Buffer
	mkmsk r4, 1
	.loc	1 489 0
	mov r0, r4
.Lxta.call_labels52:
	bl setTextSize
	.loc	1 490 0
	mov r0, r4
.Lxta.call_labels53:
	bl setTextColor
	.loc	1 491 0
	mov r0, r8
	mov r1, r8
.Lxta.call_labels54:
	bl setCursor
	ldc r10, 84
	ldc r2, 85
	.loc	1 492 0
	mov r0, r7
	mov r1, r10
.Lxta.call_labels55:
	bl display_print
	.loc	1 493 0
	ldw r0, sp[18]
.Lxta.call_labels56:
	bl writeToDisplay_i2c_all_buffer
	.loc	1 494 0
	add r0, r5, r10
	.loc	1 494 0
	stw r4, r0[0]
	ldw r0, sp[61]
	bt r0, .LBB51_11
.Ltmp453:
.Lxtalabel60:
	.loc	1 497 0
	stw r8, r5[8]
	ldc r0, 64
	.loc	1 498 0
	add r0, r5, r0
	.loc	1 498 0
	stw r8, r0[0]
	.loc	1 499 0
	stw r9, sp[1]
	ldaw r11, cp[.str122]
	ldaw r1, sp[26]
	ldaw r2, sp[24]
	ldaw r3, sp[28]
.Ltmp454:
	bu .LBB51_10
.Ltmp455:
.LBB51_64:
	ldc r0, 88
	add r7, r5, r0
	ldc r0, 0
	ldc r2, 32
	ldc r3, 85
.Ltmp456:
.LBB51_65:
.Lxtalabel61:
	.loc	1 506 0
	st8 r2, r7[r0]
	.loc	1 505 0
	add r0, r0, 1
.Ltmp457:
	.loc	1 505 0
	lss r11, r0, r3
.Lxta.loop_labels4:
	# LOOPMARKER 2
	.loc	1 505 0
	bt r11, .LBB51_65
.Ltmp458:
.Lxtalabel62:
	.loc	1 510 0
	stw r1, sp[1]
	ldaw r11, cp[.str131]
	mov r1, r11
	ldaw r11, cp[.str132]
	ldaw r3, sp[47]
.Ltmp459:
	mov r0, r7
	mov r2, r11
.Lxta.call_labels57:
	bl siprintf
	mov r6, r0
.Ltmp460:
	.loc	1 521 0
.Lxta.call_labels58:
	bl Clear_All_Pixels_In_Buffer
	mkmsk r4, 1
	.loc	1 522 0
	mov r0, r4
.Lxta.call_labels59:
	bl setTextSize
	.loc	1 523 0
	mov r0, r4
.Lxta.call_labels60:
	bl setTextColor
	ldc r8, 0
	.loc	1 524 0
	mov r0, r8
	mov r1, r8
.Lxta.call_labels61:
	bl setCursor
	ldc r9, 84
	ldc r2, 85
	.loc	1 525 0
	mov r0, r7
	mov r1, r9
.Lxta.call_labels62:
	bl display_print
	.loc	1 526 0
	mov r0, r10
.Lxta.call_labels63:
	bl writeToDisplay_i2c_all_buffer
	.loc	1 527 0
	add r0, r5, r9
	.loc	1 527 0
	stw r4, r0[0]
	ldw r0, sp[61]
	bt r0, .LBB51_11
.Ltmp461:
.Lxtalabel63:
	.loc	1 530 0
	stw r8, r5[8]
	ldc r0, 64
	.loc	1 531 0
	add r0, r5, r0
	.loc	1 531 0
	stw r8, r0[0]
	.loc	1 532 0
	ldaw r11, cp[.str139]
	mov r0, r11
	ldaw r11, cp[.str140]
	mov r1, r11
	ldaw r11, cp[.str143]
	bu .LBB51_63
.Ltmp462:
.LBB51_68:
	ldc r0, 88
	add r7, r5, r0
	ldc r0, 0
	ldc r1, 32
	ldc r2, 85
.Ltmp463:
.LBB51_69:
.Lxtalabel64:
	.loc	1 542 0
	st8 r1, r7[r0]
	.loc	1 541 0
	add r0, r0, 1
.Ltmp464:
	.loc	1 541 0
	lss r3, r0, r2
.Ltmp465:
.Lxta.loop_labels5:
	# LOOPMARKER 1
	.loc	1 541 0
	bt r3, .LBB51_69
.Ltmp466:
.Lxtalabel65:
	.loc	1 548 0
	stw r6, sp[2]
	ldc r0, 40
	stw r0, sp[1]
	ldaw r11, cp[.str148]
	ldc r2, 25
	mov r0, r7
	mov r1, r11
	mov r3, r6
.Ltmp467:
.Lxta.call_labels64:
	bl siprintf
	mov r6, r0
.Ltmp468:
	.loc	1 559 0
.Lxta.call_labels65:
	bl Clear_All_Pixels_In_Buffer
	mkmsk r4, 1
	.loc	1 560 0
	mov r0, r4
.Lxta.call_labels66:
	bl setTextSize
	.loc	1 561 0
	mov r0, r4
.Lxta.call_labels67:
	bl setTextColor
	ldc r8, 0
	.loc	1 562 0
	mov r0, r8
	mov r1, r8
.Lxta.call_labels68:
	bl setCursor
	ldc r9, 84
	ldc r2, 85
	.loc	1 563 0
	mov r0, r7
	mov r1, r9
.Lxta.call_labels69:
	bl display_print
	.loc	1 564 0
	mov r0, r10
.Lxta.call_labels70:
	bl writeToDisplay_i2c_all_buffer
	.loc	1 565 0
	add r0, r5, r9
	.loc	1 565 0
	stw r4, r0[0]
	ldw r0, sp[61]
	bt r0, .LBB51_11
.Ltmp469:
.Lxtalabel66:
	.loc	1 568 0
	stw r8, r5[8]
	ldc r0, 64
	.loc	1 569 0
	add r0, r5, r0
	.loc	1 569 0
	stw r8, r0[0]
	.loc	1 570 0
	ldaw r11, cp[.str153]
	mov r0, r11
	ldaw r11, cp[.str154]
	mov r1, r11
	ldaw r11, cp[.str157]
.Ltmp470:
.LBB51_63:
.Lxtalabel67:
	.loc	1 532 0
	mov r2, r11
.Lxta.call_labels71:
	bl iprintf
	bu .LBB51_11
.LBB51_72:
.Lxtalabel68:
.Ltmp471:
	stw r10, sp[18]
.Ltmp472:
	ldaw r1, sp[21]
	ldc r6, 27
	.loc	1 577 0
.Ltmp473:
	st8 r6, r1[r0]
	.loc	1 577 0
	or r1, r1, r4
	.loc	1 577 0
	st8 r0, r1[r0]
	ldaw r2, sp[20]
	ldc r1, 46
	.loc	1 579 0
.Ltmp474:
	st16 r1, r2[r0]
	ldaw r2, sp[19]
.Ltmp475:
	.loc	1 584 0
	st16 r1, r2[r0]
	ldc r1, 88
	add r7, r5, r1
	ldc r1, 32
	ldc r2, 85
.Ltmp476:
.LBB51_73:
.Lxtalabel69:
	.loc	1 587 0
	st8 r1, r7[r0]
	.loc	1 586 0
	add r0, r0, 1
.Ltmp477:
	.loc	1 586 0
	lss r3, r0, r2
.Ltmp478:
.Lxta.loop_labels6:
	# LOOPMARKER 0
	.loc	1 586 0
	bt r3, .LBB51_73
.Ltmp479:
.Lxtalabel70:
	ldc r0, 64
	.loc	1 590 0
	add r0, r5, r0
	stw r0, sp[13]
	ldc r0, 68
	.loc	1 590 0
	add r10, r5, r0
	.loc	1 590 0
	ldw r1, r10[0]
	.loc	1 590 0
	ldaw r11, cp[.str165]
	mov r0, r11
.Lxta.call_labels72:
	bl iprintf
.Ltmp480:
	.loc	1 592 0
	ldw r0, r10[0]
	ldc r9, 0
	ldc r1, 12
	.loc	1 592 0
	lsu r1, r1, r0
	bf r1, .LBB51_71
.Ltmp481:
.Lxtalabel71:
	ldc r0, 360
	.loc	1 733 0
	add r0, r5, r0
	.loc	1 733 0
	ldw r11, r0[0]
	ldc r0, 364
	.loc	1 733 0
	add r0, r5, r0
	.loc	1 733 0
	ldw r8, r0[0]
	ldc r0, 368
	.loc	1 733 0
	add r0, r5, r0
	.loc	1 733 0
	ldw r2, r0[0]
	ldc r0, 372
	.loc	1 733 0
	add r0, r5, r0
	.loc	1 733 0
	ldw r0, r0[0]
	stw r0, sp[17]
	ldc r0, 376
	.loc	1 733 0
	add r0, r5, r0
	.loc	1 733 0
	ldw r0, r0[0]
	stw r0, sp[16]
	ldc r3, 1950
.Ltmp482:
.LBB51_75:
.Lxtalabel72:
	stw r11, sp[14]
	mov r6, r2
	stw r3, sp[15]
	.loc	1 739 0
.Lxta.call_labels73:
	bl Clear_All_Pixels_In_Buffer
.Ltmp483:
.LBB51_76:
.Lxtalabel73:
	.loc	1 748 0
	eq r0, r9, 1
	ldaw r4, sp[21]
	.loc	1 748 0
	mov r3, r4
.Ltmp484:
	ldaw r2, sp[19]
	ldaw r11, sp[20]
	bt r0, .LBB51_78
.Ltmp485:
.Lxtalabel74:
	mov r3, r11
.Ltmp486:
.LBB51_78:
.Lxtalabel75:
	.loc	1 748 0
	eq r0, r9, 2
	bt r0, .LBB51_80
.Ltmp487:
.Lxtalabel76:
	.loc	1 748 0
	mov r2, r11
.Ltmp488:
.LBB51_80:
.Lxtalabel77:
	.loc	1 748 0
	eq r1, r9, 3
	.loc	1 748 0
	mov r0, r4
	ldw r10, sp[18]
.Ltmp489:
	bt r1, .LBB51_82
.Ltmp490:
.Lxtalabel78:
	mov r0, r11
.Ltmp491:
.LBB51_82:
.Lxtalabel79:
	ldc r1, 88
	.loc	1 748 0
	add r7, r5, r1
	.loc	1 748 0
	eq r1, r9, 4
	bt r1, .LBB51_84
.Ltmp492:
.Lxtalabel80:
	.loc	1 748 0
	mov r4, r11
.Ltmp493:
.LBB51_84:
.Lxtalabel81:
	.loc	1 748 0
	stw r4, sp[7]
	stw r0, sp[5]
	stw r2, sp[2]
	ldw r0, sp[16]
	stw r0, sp[8]
	ldw r0, sp[17]
	stw r0, sp[6]
	stw r6, sp[4]
	stw r8, sp[3]
	ldw r0, sp[14]
	stw r0, sp[1]
	ldaw r11, cp[.str167]
	mov r0, r7
	mov r1, r11
	ldw r2, sp[15]
.Lxta.call_labels74:
	bl siprintf
.Ltmp494:
	mov r6, r0
.Ltmp495:
	ldc r0, 2
	.loc	1 761 0
.Lxta.call_labels75:
	bl setTextSize
.Ltmp496:
.LBB51_89:
.Lxtalabel82:
	mkmsk r4, 1
	.loc	1 764 0
	mov r0, r4
.Lxta.call_labels76:
	bl setTextColor
.Ltmp497:
	ldc r8, 0
	.loc	1 765 0
	mov r0, r8
	mov r1, r8
.Lxta.call_labels77:
	bl setCursor
	ldc r9, 84
	ldc r2, 85
	.loc	1 766 0
	mov r0, r7
	mov r1, r9
.Lxta.call_labels78:
	bl display_print
	.loc	1 767 0
	mov r0, r10
.Lxta.call_labels79:
	bl writeToDisplay_i2c_all_buffer
	.loc	1 768 0
	add r0, r5, r9
	.loc	1 768 0
	stw r4, r0[0]
	ldw r0, sp[61]
	bt r0, .LBB51_11
.Ltmp498:
.Lxtalabel83:
	.loc	1 771 0
	stw r8, r5[8]
	.loc	1 772 0
	ldw r0, sp[13]
	stw r4, r0[0]
	ldc r0, 356
	.loc	1 773 0
	add r0, r5, r0
	.loc	1 773 0
	ldw r1, r0[0]
	ldc r0, 360
	.loc	1 773 0
	add r0, r5, r0
	.loc	1 773 0
	ldw r2, r0[0]
	ldc r0, 364
	.loc	1 773 0
	add r0, r5, r0
	.loc	1 773 0
	ldw r3, r0[0]
.Ltmp499:
	ldc r0, 368
	.loc	1 773 0
	add r0, r5, r0
	.loc	1 773 0
	ldw r0, r0[0]
	ldc r11, 372
	.loc	1 773 0
	add r11, r5, r11
	.loc	1 773 0
	ldw r11, r11[0]
	ldc r4, 376
	.loc	1 773 0
	add r4, r5, r4
	.loc	1 773 0
	ldw r4, r4[0]
	.loc	1 773 0
	stw r4, sp[3]
	stw r11, sp[2]
	stw r0, sp[1]
	ldaw r11, cp[.str176]
	bu .LBB51_10
.Ltmp500:
.LBB51_123:
.Lxtalabel84:
	mkmsk r0, 1
.Ltmp501:
.LBB51_19:
.Lxtalabel85:
	.loc	1 289 0
.Lxta.call_labels80:
	bl setTextColor
.Ltmp502:
	ldc r0, 2
	.loc	1 294 0
.Lxta.call_labels81:
	bl setTextSize
.Ltmp503:
	ldc r0, 109
	ldc r1, 14
	.loc	1 295 0
.Lxta.call_labels82:
	bl setCursor
	.loc	1 296 0
	ldw r0, r4[0]
	ldc r1, 5
	.loc	1 296 0
	lsu r1, r0, r1
	ldw r10, sp[18]
.Ltmp504:
.Ltrap_info4:
	ecallf r1
.Ltmp505:
	ldaw r1, sp[35]
	.loc	1 296 0
	lda16 r0, r1[r0]
	ldc r1, 2
	.loc	1 296 0
	mov r2, r1
.Lxta.call_labels83:
	bl display_print
.Ltmp506:
	.loc	1 298 0
	mov r0, r9
.Lxta.call_labels84:
	bl setTextSize
	.loc	1 299 0
	mov r0, r9
.Lxta.call_labels85:
	bl setTextColor
	ldc r4, 0
	.loc	1 300 0
	mov r0, r4
	mov r1, r4
.Lxta.call_labels86:
	bl setCursor
	ldc r8, 84
	ldc r2, 85
	.loc	1 301 0
	mov r0, r7
	mov r1, r8
.Lxta.call_labels87:
	bl display_print
	.loc	1 302 0
	mov r0, r10
.Lxta.call_labels88:
	bl writeToDisplay_i2c_all_buffer
	.loc	1 303 0
	add r0, r5, r8
	.loc	1 303 0
	stw r9, r0[0]
	ldw r0, sp[61]
	bt r0, .LBB51_11
.Ltmp507:
.Lxtalabel86:
	.loc	1 306 0
	stw r4, r5[8]
	ldc r0, 64
	.loc	1 307 0
	add r0, r5, r0
	.loc	1 307 0
	stw r4, r0[0]
	.loc	1 308 0
	ldw r0, sp[17]
	ldw r1, r0[0]
	.loc	1 308 0
	ldw r0, sp[16]
	ldw r3, r0[0]
.Ltmp508:
	.loc	1 308 0
	ldaw r11, cp[.str48]
	ldaw r2, sp[38]
	bu .LBB51_10
.Ltmp509:
.LBB51_22:
.Lxtalabel87:
	bt r1, .LBB51_23
.Ltmp510:
.Lxtalabel88:
	.loc	1 326 0
	ldc r3, 0
.Ltmp511:
	ldaw r2, sp[32]
	ldc r1, 61
	st16 r1, r2[r3]
	ldc r1, 76
	.loc	1 328 0
.Ltmp512:
	add r1, r9, r1
	.loc	1 328 0
	ldw r6, r1[0]
.Ltmp513:
	ldc r1, 332
	.loc	1 333 0
.Ltmp514:
	add r1, r5, r1
	.loc	1 333 0
	ldw r11, r1[0]
	ldc r1, 5
	.loc	1 333 0
	lsu r4, r1, r11
	bt r4, .LBB51_31
.Ltmp515:
.Lxtalabel89:

	.xtabranch .Ljumptable1+2,.Ljumptable1+4,.Ljumptable1+6,.Ljumptable1+8,.Ljumptable1+10,.Ljumptable1+12
.Ljumptable1:
		
	bru r11
	.jmptable .LBB51_29,.LBB51_38,.LBB51_39,.LBB51_40,.LBB51_41,.LBB51_42
.Ltmp516:
.LBB51_29:
.Lxtalabel90:
	ldaw r11, cp[.str58+4]
	.loc	1 335 0
	ld8u r3, r11[r3]
.Ltmp517:
	ldc r11, 4
	ldaw r4, sp[30]
	st8 r3, r4[r11]
	ldw r3, cp[.str58]
	bu .LBB51_30
.Ltmp518:
.LBB51_71:
.Lxtalabel91:
	stw r1, sp[16]
	stw r1, sp[17]
.Ltmp519:

	.xtabranch .Ljumptable2+2,.Ljumptable2+4,.Ljumptable2+6,.Ljumptable2+8,.Ljumptable2+10,.Ljumptable2+12,.Ljumptable2+14,.Ljumptable2+16,.Ljumptable2+18,.Ljumptable2+20,.Ljumptable2+22,.Ljumptable2+24,.Ljumptable2+26
.Ljumptable2:
		
	bru r0
	.jmptable .LBB51_118,.LBB51_111,.LBB51_112,.LBB51_110,.LBB51_107,.LBB51_106,.LBB51_102,.LBB51_101,.LBB51_97,.LBB51_96,.LBB51_92,.LBB51_75,.LBB51_85
.Ltmp520:
.LBB51_118:
.Lxtalabel92:
	ldc r0, 356
	.loc	1 729 0
.Ltmp521:
	add r0, r5, r0
	.loc	1 729 0
	ldw r3, r0[0]
.Ltmp522:
	ldc r0, 360
	.loc	1 729 0
	add r0, r5, r0
	.loc	1 729 0
	ldw r11, r0[0]
	ldc r0, 364
	.loc	1 729 0
	add r0, r5, r0
	.loc	1 729 0
	ldw r8, r0[0]
	ldc r0, 368
	.loc	1 729 0
	add r0, r5, r0
	.loc	1 729 0
	ldw r2, r0[0]
	ldc r0, 372
	.loc	1 729 0
	add r0, r5, r0
	.loc	1 729 0
	ldw r0, r0[0]
	stw r0, sp[17]
	ldc r0, 376
	.loc	1 729 0
	add r0, r5, r0
	.loc	1 729 0
	ldw r0, r0[0]
	.loc	1 730 0
	stw r0, sp[16]
	bu .LBB51_75
.Ltmp523:
.LBB51_44:
.Lxtalabel93:
	eq r0, r1, 2
	bf r0, .LBB51_45
.Ltmp524:
.Lxtalabel94:
	ldc r0, 80
	.loc	1 418 25
.Ltmp525:
	add r0, r9, r0
	.loc	1 418 25
	ldw r1, r0[0]
	.loc	1 418 25
	bf r1, .LBB51_52
.Ltmp526:
.Lxtalabel95:
	ldc r5, 0
	bu .LBB51_47
.Ltmp527:
.LBB51_23:
.Lxtalabel96:
	eq r0, r1, 3
	bf r0, .LBB51_122
.Ltmp528:
.Lxtalabel97:
	ldc r0, 84
	.loc	1 402 0
	add r0, r9, r0
	ldc r1, 76
	.loc	1 402 0
	add r1, r9, r1
	.loc	1 402 0
	ldw r2, r1[0]
	ldc r3, 80
.Ltmp529:
	.loc	1 402 0
	add r3, r9, r3
	.loc	1 402 0
	ldw r3, r3[0]
	.loc	1 402 0
	eq r2, r2, r3
	eq r2, r2, 0
	.loc	1 402 0
	stw r2, r0[0]
	.loc	1 403 0
	stw r3, r1[0]
	ldc r0, 0
	.loc	1 405 0
	stw r0, r5[9]
	ldc r1, 72
	.loc	1 407 0
	add r1, r5, r1
	.loc	1 407 0
	stw r0, r1[0]
	mkmsk r0, 1
	.loc	1 408 0
	stw r0, r5[0]
	bu .LBB51_122
.Ltmp530:
.LBB51_45:
	ldc r0, 80
	add r0, r9, r0
	.loc	1 435 21
	ldw r5, r0[0]
	bu .LBB51_48
.Ltmp531:
.LBB51_52:
.Lxtalabel98:
	mkmsk r5, 1
.Ltmp532:
.LBB51_47:
.Lxtalabel99:
	.loc	1 415 0
	stw r5, r0[0]
.LBB51_48:
.Lxtalabel100:
.Ltmp533:
	.loc	1 425 0
	ldaw r11, cp[.str95]
	ldaw r2, sp[46]
	ldaw r3, sp[49]
.Ltmp534:
	mov r0, r7
	mov r1, r11
.Lxta.call_labels89:
	bl siprintf
	mov r6, r0
.Ltmp535:
	.loc	1 426 0
.Lxta.call_labels90:
	bl Clear_All_Pixels_In_Buffer
	mkmsk r4, 1
	.loc	1 427 0
	mov r0, r4
.Lxta.call_labels91:
	bl setTextSize
	.loc	1 428 0
	mov r0, r4
.Lxta.call_labels92:
	bl setTextColor
	ldc r4, 0
	.loc	1 429 0
	mov r0, r4
	mov r1, r4
.Lxta.call_labels93:
	bl setCursor
	ldc r2, 85
	.loc	1 430 0
	mov r0, r7
	mov r1, r6
.Lxta.call_labels94:
	bl display_print
	ldc r0, 2
	.loc	1 431 0
.Lxta.call_labels95:
	bl setTextSize
	ldc r1, 14
	.loc	1 432 0
	mov r0, r4
.Lxta.call_labels96:
	bl setCursor
	.loc	1 434 0
	ldaw r11, cp[.str100]
	ldc r1, 5
	ldc r2, 6
	mov r0, r11
.Lxta.call_labels97:
	bl display_print
	.loc	1 435 21
	bf r5, .LBB51_49
.Ltmp536:
.Lxtalabel101:
	ldaw r0, sp[33]
	bu .LBB51_50
.Ltmp537:
.LBB51_49:
.Lxtalabel102:
	ldaw r0, sp[34]
.Ltmp538:
.LBB51_50:
.Lxtalabel103:
	mkmsk r1, 2
	ldc r2, 4
	.loc	1 436 0
.Lxta.call_labels98:
	bl display_print
.Ltmp539:
	.loc	1 440 0
	mov r0, r10
.Lxta.call_labels99:
	bl writeToDisplay_i2c_all_buffer
.Ltmp540:
	bu .LBB51_11
.Ltmp541:
.LBB51_111:
.Lxtalabel104:
	ldc r0, 72
	.loc	1 721 0
.Ltmp542:
	add r0, r5, r0
	ldc r1, 30
	.loc	1 721 0
	stw r1, r0[0]
	ldc r0, 356
	.loc	1 722 0
	add r4, r5, r0
	ldc r0, 380
	.loc	1 722 0
	add r0, r5, r0
	ldc r2, 20
	.loc	1 722 0
	mov r1, r4
	bl __memcpy_4
.Ltmp543:
	ldc r0, 400
	.loc	1 723 0
	add r0, r5, r0
	ldc r1, 0
	.loc	1 723 0
	stw r1, r0[0]
	.loc	1 724 0
	ldw r3, r4[0]
	ldc r0, 360
	.loc	1 724 0
	add r0, r5, r0
	.loc	1 724 0
	ldw r11, r0[0]
	ldc r0, 364
	.loc	1 724 0
	add r0, r5, r0
	.loc	1 724 0
	ldw r8, r0[0]
	ldc r0, 368
	.loc	1 724 0
	add r0, r5, r0
	.loc	1 724 0
	ldw r2, r0[0]
	ldc r0, 372
	.loc	1 724 0
	add r0, r5, r0
	.loc	1 724 0
	ldw r0, r0[0]
	stw r0, sp[17]
	ldc r0, 376
	.loc	1 724 0
	add r0, r5, r0
	.loc	1 724 0
	ldw r0, r0[0]
.Ltmp544:
	stw r0, sp[16]
	mkmsk r9, 1
	bu .LBB51_75
.Ltmp545:
.LBB51_112:
.Lxtalabel105:
	ldc r0, 72
	.loc	1 702 0
	add r0, r5, r0
	ldc r1, 30
	.loc	1 702 0
	stw r1, r0[0]
	ldc r0, 380
	.loc	1 703 21
	add r0, r5, r0
	.loc	1 703 21
	ldw r1, r0[0]
	ldc r2, 2000
	.loc	1 703 21
	eq r2, r1, r2
	.loc	1 703 21
	bf r2, .LBB51_115
.Ltmp546:
.Lxtalabel106:
	ldc r3, 2017
.Ltmp547:
	.loc	1 704 0
	stw r3, r0[0]
	ldc r0, 384
	.loc	1 705 0
	add r0, r5, r0
	ldc r1, 6
	.loc	1 705 0
	stw r1, r0[0]
	ldc r0, 388
	.loc	1 706 0
	add r0, r5, r0
	ldc r1, 14
	.loc	1 706 0
	stw r1, r0[0]
	ldc r0, 392
	.loc	1 707 0
	add r0, r5, r0
	ldc r1, 0
	.loc	1 707 0
	stw r1, r0[0]
	ldc r0, 396
	.loc	1 708 0
	add r0, r5, r0
	.loc	1 708 0
	stw r1, r0[0]
	ldc r0, 400
	.loc	1 709 0
	add r0, r5, r0
	.loc	1 709 0
	stw r1, r0[0]
	bu .LBB51_114
.Ltmp548:
.LBB51_110:
.Lxtalabel107:
	ldc r0, 72
	.loc	1 695 0
	add r0, r5, r0
	ldc r1, 30
	.loc	1 695 0
	stw r1, r0[0]
	ldc r0, 380
	.loc	1 696 0
	add r0, r5, r0
	.loc	1 696 0
	ldw r3, r0[0]
.Ltmp549:
	ldc r0, 384
	.loc	1 696 0
	add r0, r5, r0
	.loc	1 696 0
	ldw r11, r0[0]
	ldc r0, 388
	.loc	1 696 0
	add r0, r5, r0
	.loc	1 696 0
	ldw r8, r0[0]
	ldc r0, 392
	.loc	1 696 0
	add r0, r5, r0
	.loc	1 696 0
	ldw r2, r0[0]
	ldc r0, 396
	.loc	1 696 0
	add r0, r5, r0
	.loc	1 696 0
	ldw r0, r0[0]
	stw r0, sp[17]
	ldc r0, 400
	.loc	1 696 0
	add r0, r5, r0
	.loc	1 696 0
	ldw r0, r0[0]
	.loc	1 697 0
	stw r0, sp[16]
	ldc r0, 0
	ldaw r1, sp[19]
	st8 r6, r1[r0]
.Ltmp550:
	ldc r9, 2
	bu .LBB51_75
.Ltmp551:
.LBB51_107:
.Lxtalabel108:
	ldc r0, 72
	.loc	1 681 0
	add r0, r5, r0
	ldc r1, 30
	.loc	1 681 0
	stw r1, r0[0]
	ldc r0, 380
	.loc	1 683 20
	add r1, r5, r0
	ldc r0, 384
	add r2, r5, r0
	.loc	1 683 20
	ldw r3, r2[0]
.Ltmp552:
	ldc r0, 11
	.loc	1 683 20
	lsu r11, r0, r3
	mkmsk r0, 1
	.loc	1 683 20
	mov r4, r0
	bt r11, .LBB51_109
.Ltmp553:
.Lxtalabel109:
	.loc	1 686 0
	add r4, r3, 1
.Ltmp554:
.LBB51_109:
.Lxtalabel110:
	.loc	1 686 0
	stw r4, r2[0]
	.loc	1 688 0
	ldw r3, r1[0]
.Ltmp555:
	ldc r1, 388
	.loc	1 688 0
	add r1, r5, r1
	.loc	1 688 0
	ldw r8, r1[0]
	ldc r1, 392
	.loc	1 688 0
	add r1, r5, r1
	.loc	1 688 0
	ldw r2, r1[0]
	ldc r1, 396
	.loc	1 688 0
	add r1, r5, r1
	.loc	1 688 0
	ldw r1, r1[0]
	stw r1, sp[17]
	ldc r1, 400
	.loc	1 688 0
	add r1, r5, r1
	.loc	1 688 0
	ldw r1, r1[0]
	stw r1, sp[16]
	ldc r1, 76
	.loc	1 689 0
	add r1, r5, r1
	.loc	1 689 0
	stw r0, r1[0]
	.loc	1 690 0
	ldc r0, 0
	ldaw r1, sp[19]
	st8 r6, r1[r0]
	ldc r9, 2
	mov r11, r4
	bu .LBB51_75
.Ltmp556:
.LBB51_106:
.Lxtalabel111:
	ldc r0, 72
	.loc	1 674 0
	add r0, r5, r0
	ldc r1, 30
	.loc	1 674 0
	stw r1, r0[0]
	ldc r0, 380
	.loc	1 675 0
	add r0, r5, r0
	.loc	1 675 0
	ldw r3, r0[0]
.Ltmp557:
	ldc r0, 384
	.loc	1 675 0
	add r0, r5, r0
	.loc	1 675 0
	ldw r11, r0[0]
	ldc r0, 388
	.loc	1 675 0
	add r0, r5, r0
	.loc	1 675 0
	ldw r8, r0[0]
	ldc r0, 392
	.loc	1 675 0
	add r0, r5, r0
	.loc	1 675 0
	ldw r4, r0[0]
	ldc r0, 396
	.loc	1 675 0
	add r0, r5, r0
	.loc	1 675 0
	ldw r0, r0[0]
	stw r0, sp[17]
	ldc r0, 400
	.loc	1 675 0
	add r0, r5, r0
	.loc	1 675 0
	ldw r0, r0[0]
	.loc	1 677 0
	stw r0, sp[16]
	bu .LBB51_105
.Ltmp558:
.LBB51_102:
.Lxtalabel112:
	ldc r0, 72
	.loc	1 660 0
	add r0, r5, r0
	ldc r11, 30
	.loc	1 660 0
	stw r11, r0[0]
	ldc r0, 380
	.loc	1 662 20
	add r1, r5, r0
	ldc r0, 388
	add r2, r5, r0
	.loc	1 662 20
	ldw r3, r2[0]
.Ltmp559:
	.loc	1 662 20
	lsu r11, r11, r3
	mkmsk r0, 1
	.loc	1 662 20
	mov r8, r0
	bt r11, .LBB51_104
.Ltmp560:
.Lxtalabel113:
	.loc	1 665 0
	add r8, r3, 1
.Ltmp561:
.LBB51_104:
.Lxtalabel114:
	.loc	1 665 0
	stw r8, r2[0]
	.loc	1 667 0
	ldw r3, r1[0]
.Ltmp562:
	ldc r1, 384
	.loc	1 667 0
	add r1, r5, r1
	.loc	1 667 0
	ldw r11, r1[0]
	ldc r1, 392
	.loc	1 667 0
	add r1, r5, r1
	.loc	1 667 0
	ldw r4, r1[0]
	ldc r1, 396
	.loc	1 667 0
	add r1, r5, r1
	.loc	1 667 0
	ldw r1, r1[0]
	stw r1, sp[17]
	ldc r1, 400
	.loc	1 667 0
	add r1, r5, r1
	.loc	1 667 0
	ldw r1, r1[0]
	stw r1, sp[16]
	ldc r1, 76
	.loc	1 668 0
	add r1, r5, r1
	.loc	1 668 0
	stw r0, r1[0]
.Ltmp563:
.LBB51_105:
.Lxtalabel115:
	.loc	1 670 0
	ldc r0, 0
	ldc r1, 26
	ldaw r2, sp[19]
	st8 r1, r2[r0]
	mov r2, r4
	ldc r9, 2
	bu .LBB51_75
.LBB51_101:
.Lxtalabel116:
.Ltmp564:
	ldc r0, 72
	.loc	1 654 0
	add r0, r5, r0
	ldc r1, 30
	.loc	1 654 0
	stw r1, r0[0]
	ldc r0, 380
	.loc	1 655 0
	add r0, r5, r0
	.loc	1 655 0
	ldw r3, r0[0]
.Ltmp565:
	ldc r0, 384
	.loc	1 655 0
	add r0, r5, r0
	.loc	1 655 0
	ldw r11, r0[0]
	ldc r0, 388
	.loc	1 655 0
	add r0, r5, r0
	.loc	1 655 0
	ldw r8, r0[0]
	ldc r0, 392
	.loc	1 655 0
	add r0, r5, r0
	.loc	1 655 0
	ldw r2, r0[0]
	ldc r0, 396
	.loc	1 655 0
	add r0, r5, r0
	.loc	1 655 0
	ldw r0, r0[0]
	stw r0, sp[17]
	ldc r0, 400
	.loc	1 655 0
	add r0, r5, r0
	.loc	1 655 0
	ldw r0, r0[0]
.Ltmp566:
	stw r0, sp[16]
	mkmsk r9, 2
	bu .LBB51_75
.Ltmp567:
.LBB51_97:
.Lxtalabel117:
	ldc r0, 72
	.loc	1 641 0
	add r0, r5, r0
	ldc r1, 30
	.loc	1 641 0
	stw r1, r0[0]
	ldc r0, 380
	.loc	1 643 20
	add r0, r5, r0
	ldc r1, 392
	add r1, r5, r1
	.loc	1 643 20
	ldw r2, r1[0]
	ldc r3, 58
.Ltmp568:
	.loc	1 643 20
	lsu r3, r3, r2
	.loc	1 643 20
	bt r3, .LBB51_98
.Ltmp569:
.Lxtalabel118:
	.loc	1 646 0
	add r2, r2, 1
	bu .LBB51_100
.Ltmp570:
.LBB51_96:
.Lxtalabel119:
	ldc r0, 72
	.loc	1 635 0
	add r0, r5, r0
	ldc r1, 30
	.loc	1 635 0
	stw r1, r0[0]
	ldc r0, 380
	.loc	1 636 0
	add r0, r5, r0
	.loc	1 636 0
	ldw r3, r0[0]
.Ltmp571:
	ldc r0, 384
	.loc	1 636 0
	add r0, r5, r0
	.loc	1 636 0
	ldw r11, r0[0]
	ldc r0, 388
	.loc	1 636 0
	add r0, r5, r0
	.loc	1 636 0
	ldw r8, r0[0]
	ldc r0, 392
	.loc	1 636 0
	add r0, r5, r0
	.loc	1 636 0
	ldw r2, r0[0]
	ldc r0, 396
	.loc	1 636 0
	add r0, r5, r0
	.loc	1 636 0
	ldw r0, r0[0]
	stw r0, sp[17]
	ldc r0, 400
	.loc	1 636 0
	add r0, r5, r0
	.loc	1 636 0
	ldw r0, r0[0]
.Ltmp572:
	stw r0, sp[16]
	ldc r9, 4
	bu .LBB51_75
.Ltmp573:
.LBB51_92:
.Lxtalabel120:
	ldc r0, 72
	.loc	1 622 0
	add r0, r5, r0
	ldc r1, 30
	.loc	1 622 0
	stw r1, r0[0]
	ldc r0, 380
	.loc	1 624 20
	add r0, r5, r0
	ldc r1, 396
	add r1, r5, r1
	.loc	1 624 20
	ldw r2, r1[0]
	ldc r3, 58
.Ltmp574:
	.loc	1 624 20
	lsu r3, r3, r2
	.loc	1 624 20
	bt r3, .LBB51_93
.Ltmp575:
.Lxtalabel121:
	.loc	1 627 0
	add r2, r2, 1
	bu .LBB51_95
.Ltmp576:
.LBB51_85:
.Lxtalabel122:
	ldc r0, 76
	.loc	1 595 21
	add r0, r5, r0
	.loc	1 595 21
	ldw r0, r0[0]
	.loc	1 595 21
	bf r0, .LBB51_91
.Ltmp577:
.Lxtalabel123:
	.loc	1 596 0
	ldaw r11, cp[.str166]
	ldc r2, 82
	mov r0, r7
	mov r1, r11
	bl memcpy
.Ltmp578:
	ldc r0, 380
.Ltmp579:
	.loc	1 604 0
	add r0, r5, r0
	ldc r1, 336
	.loc	1 604 0
	add r6, r5, r1
	.loc	1 604 0
	mov r1, r6
.Lxta.call_labels100:
	bl datetime_to_chronodot_registers
	ldw r1, sp[18]
.Ltmp580:
	.loc	1 605 0
	ldw r0, r1[0]
	.loc	1 605 0
	ldw r1, r1[1]
.Ltmp581:
	.loc	1 605 0
	ldw r3, r1[2]
	ldc r1, 104
	.loc	1 605 0
	mov r2, r6
.Lxta.call_labels101:
	bla r3
	ldc r0, 0
	stw r0, sp[12]
	stw r0, sp[16]
	stw r0, sp[17]
	stw r0, sp[14]
	.loc	1 605 0
	stw r0, sp[15]
	bu .LBB51_87
.Ltmp582:
.LBB51_38:
.Lxtalabel124:
	ldaw r11, cp[.str62+4]
	.loc	1 338 0
.Ltmp583:
	ld8u r3, r11[r3]
.Ltmp584:
	ldc r11, 4
	ldaw r4, sp[30]
	st8 r3, r4[r11]
	ldw r3, cp[.str62]
	bu .LBB51_30
.Ltmp585:
.LBB51_39:
.Lxtalabel125:
	ldaw r11, cp[.str66+4]
	.loc	1 341 0
	ld8u r3, r11[r3]
.Ltmp586:
	ldc r11, 4
	ldaw r4, sp[30]
	st8 r3, r4[r11]
	ldw r3, cp[.str66]
	bu .LBB51_30
.Ltmp587:
.LBB51_40:
.Lxtalabel126:
	ldaw r11, cp[.str70+4]
	.loc	1 344 0
	ld8u r3, r11[r3]
.Ltmp588:
	ldc r11, 4
	ldaw r4, sp[30]
	st8 r3, r4[r11]
	ldw r3, cp[.str70]
	bu .LBB51_30
.Ltmp589:
.LBB51_41:
.Lxtalabel127:
	ldaw r11, cp[.str74+4]
	.loc	1 347 0
	ld8u r3, r11[r3]
.Ltmp590:
	ldc r11, 4
	ldaw r4, sp[30]
	st8 r3, r4[r11]
	ldw r3, cp[.str74]
	bu .LBB51_30
.Ltmp591:
.LBB51_42:
.Lxtalabel128:
	ldaw r11, cp[.str78+4]
	.loc	1 350 0
	ld8u r3, r11[r3]
.Ltmp592:
	ldc r11, 4
	ldaw r4, sp[30]
	st8 r3, r4[r11]
	ldw r3, cp[.str78]
.Ltmp593:
.LBB51_30:
.Lxtalabel129:
	.loc	1 335 0
	stw r3, sp[30]
.LBB51_31:
.Lxtalabel130:
.Ltmp594:
	ldc r3, 432
.Ltmp595:
	.loc	1 356 0
	add r3, r5, r3
	.loc	1 356 0
	stw r3, sp[16]
	ldw r3, r3[0]
	ldc r11, 436
	.loc	1 356 0
	add r11, r5, r11
	.loc	1 356 0
	stw r11, sp[15]
	ldw r11, r11[0]
	ldc r4, 440
	.loc	1 356 0
	add r4, r5, r4
	.loc	1 356 0
	stw r4, sp[14]
	ldw r4, r4[0]
	stw r6, sp[17]
	.loc	1 356 0
	bt r6, .LBB51_32
.Ltmp596:
.Lxtalabel131:
	stw r10, sp[18]
.Ltmp597:
	ldaw r6, sp[34]
	bu .LBB51_34
.Ltmp598:
.LBB51_32:
	stw r10, sp[18]
.Ltmp599:
	ldaw r6, sp[33]
.Ltmp600:
.LBB51_34:
.Lxtalabel132:
	ldc r9, 444
	.loc	1 356 0
	add r9, r5, r9
	.loc	1 356 0
	ldw r9, r9[0]
	bt r9, .LBB51_36
.Ltmp601:
.Lxtalabel133:
	.loc	1 356 0
	mov r2, r8
.Ltmp602:
.LBB51_36:
.Lxtalabel134:
	ldc r9, 428
	.loc	1 356 0
	add r10, r5, r9
	.loc	1 356 0
	ldw r9, r10[0]
	.loc	1 356 0
	stw r6, sp[8]
	stw r9, sp[11]
	stw r2, sp[10]
	stw r4, sp[6]
	stw r11, sp[5]
	stw r3, sp[4]
	ldaw r2, sp[30]
	stw r2, sp[9]
	stw r8, sp[7]
	stw r0, sp[3]
	stw r0, sp[2]
	stw r1, sp[1]
	ldaw r11, cp[.str81]
	ldaw r3, sp[49]
.Ltmp603:
	mov r0, r7
	mov r1, r11
	mov r2, r8
.Lxta.call_labels102:
	bl siprintf
	mov r6, r0
.Ltmp604:
	.loc	1 379 0
.Lxta.call_labels103:
	bl Clear_All_Pixels_In_Buffer
	mkmsk r4, 1
	.loc	1 380 0
	mov r0, r4
.Lxta.call_labels104:
	bl setTextSize
	.loc	1 381 0
	mov r0, r4
.Lxta.call_labels105:
	bl setTextColor
	ldc r8, 0
	.loc	1 382 0
	mov r0, r8
	mov r1, r8
.Lxta.call_labels106:
	bl setCursor
	ldc r9, 84
	ldc r2, 85
	.loc	1 383 0
	mov r0, r7
	mov r1, r9
.Lxta.call_labels107:
	bl display_print
	.loc	1 384 0
	ldw r0, sp[18]
.Lxta.call_labels108:
	bl writeToDisplay_i2c_all_buffer
	.loc	1 385 0
	add r0, r5, r9
	.loc	1 385 0
	stw r4, r0[0]
	ldw r0, sp[61]
	bt r0, .LBB51_11
.Ltmp605:
.Lxtalabel135:
	.loc	1 328 0
	ldw r0, sp[17]
	eq r0, r0, 0
	.loc	1 388 0
.Ltmp606:
	stw r4, r5[8]
	ldc r1, 64
	.loc	1 389 0
	add r1, r5, r1
	.loc	1 389 0
	stw r8, r1[0]
	.loc	1 390 0
	ldw r1, sp[16]
	ldw r1, r1[0]
	.loc	1 390 0
	ldw r2, sp[15]
	ldw r2, r2[0]
	.loc	1 390 0
	ldw r3, sp[14]
.Ltmp607:
	ldw r3, r3[0]
	.loc	1 390 0
	ldw r11, r10[0]
	.loc	1 390 0
	stw r0, sp[2]
	stw r11, sp[1]
	ldaw r11, cp[.str94]
.Ltmp608:
.LBB51_10:
.Lxtalabel136:
	.loc	1 250 0
	mov r0, r11
.Lxta.call_labels109:
	bl iprintf
.Ltmp609:
.LBB51_11:
.Lxtalabel137:
	.loc	1 782 5
	ashr r0, r6, 32
	bt r0, .LBB51_12
.Ltmp610:
	.loc	1 784 12
	add r0, r6, 1
	ldc r1, 86
	.loc	1 784 12
	lsu r0, r0, r1
	bt r0, .LBB51_122
.Ltmp611:
.Lxtalabel138:
	.loc	1 785 0
	ldaw r11, cp[.str178]
	bu .LBB51_121
.Ltmp612:
.LBB51_12:
.Lxtalabel139:
	.loc	1 783 0
	ldaw r11, cp[.str177]
.Ltmp613:
.LBB51_121:
.Lxtalabel140:
	.loc	1 785 0
	mov r0, r11
	mov r1, r6
.Lxta.call_labels110:
	bl iprintf
.LBB51_122:
.Lxtalabel141:
.Ltmp614:
	ldw r10, sp[51]
	ldw r9, sp[52]
	ldw r8, sp[53]
	ldw r7, sp[54]
	ldw r6, sp[55]
	ldw r5, sp[56]
	ldw r4, sp[57]
	retsp 58
	# RETURN_REG_HOLDER
.Ltmp615:
.LBB51_115:
	ldc r2, 2050
	.loc	1 710 28
.Ltmp616:
	lsu r2, r1, r2
	bt r2, .LBB51_117
.Ltmp617:
.Lxtalabel142:
	ldc r3, 2017
.Ltmp618:
	.loc	1 711 0
	stw r3, r0[0]
	bu .LBB51_114
.Ltmp619:
.LBB51_98:
	ldc r2, 0
.Ltmp620:
.LBB51_100:
.Lxtalabel143:
	.loc	1 646 0
	stw r2, r1[0]
	.loc	1 648 0
	ldw r3, r0[0]
.Ltmp621:
	ldc r0, 384
	.loc	1 648 0
	add r0, r5, r0
	.loc	1 648 0
	ldw r11, r0[0]
	ldc r0, 388
	.loc	1 648 0
	add r0, r5, r0
	.loc	1 648 0
	ldw r8, r0[0]
	ldc r0, 396
	.loc	1 648 0
	add r0, r5, r0
	.loc	1 648 0
	ldw r0, r0[0]
	stw r0, sp[17]
	ldc r0, 400
	.loc	1 648 0
	add r0, r5, r0
	.loc	1 648 0
	ldw r0, r0[0]
	stw r0, sp[16]
	ldc r0, 76
	.loc	1 649 0
	add r0, r5, r0
	mkmsk r1, 1
	.loc	1 649 0
	stw r1, r0[0]
.Ltmp622:
	mkmsk r9, 2
	bu .LBB51_75
.Ltmp623:
.LBB51_93:
	ldc r2, 0
.Ltmp624:
.LBB51_95:
.Lxtalabel144:
	.loc	1 627 0
	stw r2, sp[17]
	stw r2, r1[0]
	.loc	1 629 0
	ldw r3, r0[0]
.Ltmp625:
	ldc r0, 384
	.loc	1 629 0
	add r0, r5, r0
	.loc	1 629 0
	ldw r11, r0[0]
	ldc r0, 388
	.loc	1 629 0
	add r0, r5, r0
	.loc	1 629 0
	ldw r8, r0[0]
	ldc r0, 392
	.loc	1 629 0
	add r0, r5, r0
	.loc	1 629 0
	ldw r2, r0[0]
	ldc r0, 400
	.loc	1 629 0
	add r0, r5, r0
	.loc	1 629 0
	ldw r0, r0[0]
	stw r0, sp[16]
	ldc r0, 76
	.loc	1 630 0
	add r0, r5, r0
	mkmsk r1, 1
	.loc	1 630 0
	stw r1, r0[0]
.Ltmp626:
	ldc r9, 4
	bu .LBB51_75
.Ltmp627:
.LBB51_91:
.Lxtalabel145:
	ldc r0, 356
	.loc	1 607 0
	add r0, r5, r0
	.loc	1 607 0
	ldw r0, r0[0]
	stw r0, sp[15]
	ldc r0, 360
	.loc	1 607 0
	add r0, r5, r0
	.loc	1 607 0
	ldw r0, r0[0]
	stw r0, sp[14]
	ldc r0, 364
	.loc	1 607 0
	add r0, r5, r0
	.loc	1 607 0
	ldw r8, r0[0]
	ldc r0, 368
	.loc	1 607 0
	add r0, r5, r0
	.loc	1 607 0
	ldw r6, r0[0]
	ldc r0, 372
	.loc	1 607 0
	add r0, r5, r0
	.loc	1 607 0
	ldw r0, r0[0]
	stw r0, sp[17]
	ldc r0, 376
	.loc	1 607 0
	add r0, r5, r0
	.loc	1 607 0
	ldw r0, r0[0]
	.loc	1 608 0
	stw r0, sp[16]
	stw r4, r5[0]
	stw r4, sp[12]
.Ltmp628:
.LBB51_87:
.Lxtalabel146:
	ldc r9, 0
	.loc	1 611 0
	stw r9, r10[0]
	.loc	1 612 0
	ldw r0, sp[13]
	stw r9, r0[0]
	ldc r0, 72
	.loc	1 613 0
	add r0, r5, r0
	.loc	1 613 0
	stw r9, r0[0]
	ldc r0, 316
	.loc	1 614 0
	add r0, r5, r0
	.loc	1 614 0
	stw r4, r0[0]
	.loc	1 739 0
.Lxta.call_labels111:
	bl Clear_All_Pixels_In_Buffer
.Ltmp629:
	.loc	1 741 13
	ldw r0, sp[12]
	bt r0, .LBB51_76
.Ltmp630:
.Lxtalabel147:
	mkmsk r0, 1
	.loc	1 742 0
.Lxta.call_labels112:
	bl setTextSize
.Ltmp631:
	ldc r6, 81
	ldw r10, sp[18]
.Ltmp632:
	bu .LBB51_89
.Ltmp633:
.LBB51_117:
.Lxtalabel148:
	.loc	1 713 0
	add r3, r1, 1
.Ltmp634:
	.loc	1 713 0
	stw r3, r0[0]
.Ltmp635:
.LBB51_114:
.Lxtalabel149:
	ldc r0, 384
	.loc	1 715 0
	add r0, r5, r0
	.loc	1 715 0
	ldw r11, r0[0]
	ldc r0, 388
	.loc	1 715 0
	add r0, r5, r0
	.loc	1 715 0
	ldw r8, r0[0]
	ldc r0, 392
	.loc	1 715 0
	add r0, r5, r0
	.loc	1 715 0
	ldw r2, r0[0]
	ldc r0, 396
	.loc	1 715 0
	add r0, r5, r0
	.loc	1 715 0
	ldw r0, r0[0]
	stw r0, sp[17]
	ldc r0, 400
	.loc	1 715 0
	add r0, r5, r0
	.loc	1 715 0
	ldw r0, r0[0]
	stw r0, sp[16]
	ldc r0, 76
	.loc	1 716 0
	add r0, r5, r0
	mkmsk r9, 1
.Ltmp636:
	.loc	1 716 0
	stw r9, r0[0]
	bu .LBB51_75
.Ltmp637:
	.cc_bottom Handle_Real_Or_Clocked_Button_Actions.function
	.set	Handle_Real_Or_Clocked_Button_Actions.nstackwords,((_i.temperature_water_commands_if.get_temp_degC_string_filtered.max.nstackwords $M _i.temperature_heater_commands_if.get_temp_degC_string.max.nstackwords $M drawRoundRect.nstackwords $M fillRoundRect.nstackwords $M TC1047_Raw_DegC_To_String_Ok.nstackwords $M RR_12V_24V_To_String_Ok.nstackwords $M Ambient_Light_Sensor_ALS_PDIC243_To_String_Ok.nstackwords $M iprintf.nstackwords $M siprintf.nstackwords $M setTextColor.nstackwords $M setCursor.nstackwords $M display_print.nstackwords $M writeToDisplay_i2c_all_buffer.nstackwords $M __memcpy_4.nstackwords $M Clear_All_Pixels_In_Buffer.nstackwords $M setTextSize.nstackwords $M memcpy.nstackwords $M datetime_to_chronodot_registers.nstackwords $M _i.i2c_internal_commands_if.write_chronodot_ok.max.nstackwords) + 58)
	.globl	Handle_Real_Or_Clocked_Button_Actions.nstackwords
	.set	Handle_Real_Or_Clocked_Button_Actions.maxcores,Ambient_Light_Sensor_ALS_PDIC243_To_String_Ok.maxcores $M Clear_All_Pixels_In_Buffer.maxcores $M RR_12V_24V_To_String_Ok.maxcores $M TC1047_Raw_DegC_To_String_Ok.maxcores $M _i.i2c_internal_commands_if.write_chronodot_ok.max.maxcores $M _i.temperature_heater_commands_if.get_temp_degC_string.max.maxcores $M _i.temperature_water_commands_if.get_temp_degC_string_filtered.max.maxcores $M datetime_to_chronodot_registers.maxcores $M display_print.maxcores $M drawRoundRect.maxcores $M fillRoundRect.maxcores $M iprintf.maxcores $M setCursor.maxcores $M setTextColor.maxcores $M setTextSize.maxcores $M siprintf.maxcores $M writeToDisplay_i2c_all_buffer.maxcores $M 1
	.globl	Handle_Real_Or_Clocked_Button_Actions.maxcores
	.set	Handle_Real_Or_Clocked_Button_Actions.maxtimers,Ambient_Light_Sensor_ALS_PDIC243_To_String_Ok.maxtimers $M Clear_All_Pixels_In_Buffer.maxtimers $M RR_12V_24V_To_String_Ok.maxtimers $M TC1047_Raw_DegC_To_String_Ok.maxtimers $M _i.i2c_internal_commands_if.write_chronodot_ok.max.maxtimers $M _i.temperature_heater_commands_if.get_temp_degC_string.max.maxtimers $M _i.temperature_water_commands_if.get_temp_degC_string_filtered.max.maxtimers $M datetime_to_chronodot_registers.maxtimers $M display_print.maxtimers $M drawRoundRect.maxtimers $M fillRoundRect.maxtimers $M iprintf.maxtimers $M setCursor.maxtimers $M setTextColor.maxtimers $M setTextSize.maxtimers $M siprintf.maxtimers $M writeToDisplay_i2c_all_buffer.maxtimers $M 0
	.globl	Handle_Real_Or_Clocked_Button_Actions.maxtimers
	.set	Handle_Real_Or_Clocked_Button_Actions.maxchanends,Ambient_Light_Sensor_ALS_PDIC243_To_String_Ok.maxchanends $M Clear_All_Pixels_In_Buffer.maxchanends $M RR_12V_24V_To_String_Ok.maxchanends $M TC1047_Raw_DegC_To_String_Ok.maxchanends $M _i.i2c_internal_commands_if.write_chronodot_ok.max.maxchanends $M _i.temperature_heater_commands_if.get_temp_degC_string.max.maxchanends $M _i.temperature_water_commands_if.get_temp_degC_string_filtered.max.maxchanends $M datetime_to_chronodot_registers.maxchanends $M display_print.maxchanends $M drawRoundRect.maxchanends $M fillRoundRect.maxchanends $M iprintf.maxchanends $M setCursor.maxchanends $M setTextColor.maxchanends $M setTextSize.maxchanends $M siprintf.maxchanends $M writeToDisplay_i2c_all_buffer.maxchanends $M 0
	.globl	Handle_Real_Or_Clocked_Button_Actions.maxchanends
.Ltmp638:
	.size	Handle_Real_Or_Clocked_Button_Actions, .Ltmp638-Handle_Real_Or_Clocked_Button_Actions
.Lfunc_end51:
	.cfi_endproc

	.globl	Handle_Real_Or_Clocked_Buttons
	.align	4
	.type	Handle_Real_Or_Clocked_Buttons,@function
	.cc_top Handle_Real_Or_Clocked_Buttons.function,Handle_Real_Or_Clocked_Buttons
Handle_Real_Or_Clocked_Buttons:
.Lfunc_begin52:
	.loc	1 799 0
	.cfi_startproc
.Lxtalabel150:
	entsp 11
.Ltmp639:
	.cfi_def_cfa_offset 44
.Ltmp640:
	.cfi_offset 15, 0
	stw r4, sp[10]
.Ltmp641:
	.cfi_offset 4, -4
	stw r5, sp[9]
.Ltmp642:
	.cfi_offset 5, -8
	stw r6, sp[8]
.Ltmp643:
	.cfi_offset 6, -12
	stw r7, sp[7]
.Ltmp644:
	.cfi_offset 7, -16
	stw r8, sp[6]
.Ltmp645:
	.cfi_offset 8, -20
	stw r9, sp[5]
.Ltmp646:
	.cfi_offset 9, -24
	stw r10, sp[4]
.Ltmp647:
	.cfi_offset 10, -28
	mov r4, r2
.Ltmp648:
	mov r6, r1
.Ltmp649:
	mov r5, r0
.Ltmp650:
	ldw r9, sp[16]
	ldw r0, sp[15]
	ldw r1, sp[14]
	ldw r8, sp[13]
	ldw r7, sp[12]
	.loc	1 800 0 prologue_end
.Ltmp651:
	eq r2, r1, 2
	bt r2, .LBB52_10
.Ltmp652:
.Lxtalabel151:
	eq r2, r1, 1
	bf r2, .LBB52_2
.Ltmp653:
.Lxtalabel152:
	.loc	1 839 0
	eq r0, r0, 2
.Ltmp654:
	bf r0, .LBB52_15
.Ltmp655:
.Lxtalabel153:
	.loc	1 846 21
	ldw r0, r5[9]
	.loc	1 846 21
	bf r0, .LBB52_25
.Ltmp656:
.Lxtalabel154:
	.loc	1 848 25
	mov r1, r0
	zext r1, 1
	bf r1, .LBB52_20
.Ltmp657:
.Lxtalabel155:
	.loc	1 849 0
	add r0, r0, 1
	.loc	1 849 0
	stw r0, r5[9]
	bu .LBB52_20
.Ltmp658:
.LBB52_10:
.Lxtalabel156:
	.loc	1 889 0
	eq r1, r0, 1
	bf r1, .LBB52_11
.Ltmp659:
.Lxtalabel157:
	.loc	1 949 0
	ldw r0, r5[1]
	.loc	1 949 0
	eq r1, r0, 1
	bt r1, .LBB52_55
.Ltmp660:
.Lxtalabel158:
	eq r1, r0, 3
	bf r1, .LBB52_37
.Ltmp661:
.Lxtalabel159:
	.loc	1 957 29
	ldw r0, r5[8]
	bf r0, .LBB52_15
.Ltmp662:
	.loc	1 957 29
	ldw r0, r5[0]
	.loc	1 957 29
	eq r0, r0, 1
	bf r0, .LBB52_15
.Ltmp663:
.Lxtalabel160:
	ldc r0, 2
	.loc	1 959 0
	stw r0, r5[0]
	mkmsk r0, 1
	.loc	1 960 0
	stw r0, r5[9]
	ldc r1, 76
	.loc	1 961 0
	add r1, r5, r1
	ldc r2, 0
	.loc	1 961 0
	stw r2, r1[0]
	ldc r1, 280
	.loc	1 962 0
	add r1, r5, r1
	.loc	1 962 0
	stw r0, r1[0]
	.loc	1 963 0
	stw r9, sp[3]
	stw r8, sp[2]
	stw r7, sp[1]
	mov r0, r5
	mov r1, r6
	mov r2, r4
.Lxta.call_labels113:
	bl Handle_Real_Or_Clocked_Button_Actions
.Ltmp664:
	.loc	1 964 0
	ldaw r11, cp[.Lstr218]
	bu .LBB52_57
.Ltmp665:
.LBB52_2:
.Lxtalabel161:
	bt r1, .LBB52_15
.Ltmp666:
.Lxtalabel162:
	.loc	1 803 0
	eq r0, r0, 2
.Ltmp667:
	bf r0, .LBB52_15
.Ltmp668:
.Lxtalabel163:
	bt r9, .LBB52_8
.Ltmp669:
.Lxtalabel164:
	.loc	1 810 25
	ldw r0, r5[0]
	.loc	1 810 25
	bf r0, .LBB52_6
.Ltmp670:
.Lxtalabel165:
	ldc r10, 0
	.loc	1 813 0
	stw r10, r5[0]
	.loc	1 814 0
.Lxta.call_labels114:
	bl Clear_All_Pixels_In_Buffer
.Ltmp671:
	.loc	1 815 0
	mov r0, r4
.Lxta.call_labels115:
	bl writeToDisplay_i2c_all_buffer
	ldc r0, 84
	.loc	1 816 0
	add r0, r5, r0
	.loc	1 816 0
	stw r10, r0[0]
	.loc	1 817 0
	stw r10, r5[8]
	.loc	1 818 0
	stw r10, r5[9]
	ldc r0, 64
	.loc	1 819 0
	add r0, r5, r0
	.loc	1 819 0
	stw r10, r0[0]
	ldc r0, 68
	.loc	1 820 0
	add r0, r5, r0
	.loc	1 820 0
	stw r10, r0[0]
	bu .LBB52_8
.Ltmp672:
.LBB52_11:
.Lxtalabel166:
	eq r0, r0, 2
.Ltmp673:
	bf r0, .LBB52_15
.Ltmp674:
.Lxtalabel167:
	ldc r0, 316
	.loc	1 895 21
	add r0, r5, r0
	.loc	1 895 21
	ldw r1, r0[0]
	.loc	1 895 21
	bt r1, .LBB52_13
.Ltmp675:
	.loc	1 897 28
	ldw r0, r5[0]
	.loc	1 897 28
	eq r1, r0, 2
	bf r1, .LBB52_42
.Ltmp676:
.Lxtalabel168:
	bt r9, .LBB52_15
.Ltmp677:
.Lxtalabel169:
	.loc	1 911 29
	ldw r0, r5[9]
	.loc	1 911 29
	bf r0, .LBB52_51
.Ltmp678:
.Lxtalabel170:
	.loc	1 912 33
	mov r1, r0
	zext r1, 1
	.loc	1 912 33
	add r0, r0, r1
	.loc	1 912 33
	add r0, r0, 1
	.loc	1 915 0
	stw r0, r5[9]
	ldc r0, 0
	.loc	1 919 0
	stw r0, sp[3]
	stw r8, sp[2]
	stw r7, sp[1]
	mov r0, r5
	mov r1, r6
	mov r2, r4
.Lxta.call_labels116:
	bl Handle_Real_Or_Clocked_Button_Actions
.Ltmp679:
	ldc r0, 280
	.loc	1 920 0
	add r0, r5, r0
	mkmsk r1, 1
	bu .LBB52_14
.Ltmp680:
.LBB52_25:
	ldc r0, 68
	.loc	1 859 28
	add r0, r5, r0
	.loc	1 859 28
	ldw r1, r0[0]
	.loc	1 859 28
	bf r1, .LBB52_26
.Ltmp681:
.Lxtalabel171:
	ldc r2, 300
	.loc	1 860 25
	add r2, r5, r2
	.loc	1 860 25
	ldw r2, r2[0]
	bf r2, .LBB52_30
.Ltmp682:
.Lxtalabel172:
	ldc r2, 8
	lsu r2, r2, r1
	bf r2, .LBB52_30
.Ltmp683:
.Lxtalabel173:
	ldc r1, 12
	.loc	1 863 0
	stw r1, r0[0]
	ldc r0, 280
	.loc	1 864 0
	add r0, r5, r0
	mkmsk r1, 1
	bu .LBB52_24
.Ltmp684:
.LBB52_55:
.Lxtalabel174:
	ldc r0, 176
	.loc	1 951 0
	add r0, r5, r0
	ldc r1, 10
	bu .LBB52_14
.Ltmp685:
.LBB52_37:
.Lxtalabel175:
	eq r0, r0, 7
	bf r0, .LBB52_15
.Ltmp686:
.Lxtalabel176:
	ldc r0, 64
	.loc	1 977 29
	add r0, r5, r0
	.loc	1 977 29
	ldw r0, r0[0]
	bf r0, .LBB52_15
.Ltmp687:
	.loc	1 977 29
	ldw r0, r5[0]
	.loc	1 977 29
	eq r0, r0, 1
	bf r0, .LBB52_15
.Ltmp688:
.Lxtalabel177:
	ldc r0, 2
	.loc	1 979 0
	stw r0, r5[0]
	ldc r0, 68
	.loc	1 980 0
	add r0, r5, r0
	mkmsk r1, 1
	.loc	1 980 0
	stw r1, r0[0]
	ldc r0, 76
	.loc	1 981 0
	add r0, r5, r0
	ldc r2, 0
	.loc	1 981 0
	stw r2, r0[0]
	ldc r0, 280
	.loc	1 982 0
	add r0, r5, r0
	.loc	1 982 0
	stw r1, r0[0]
	.loc	1 983 0
	stw r9, sp[3]
	stw r8, sp[2]
	stw r7, sp[1]
	mov r0, r5
	mov r1, r6
	mov r2, r4
.Lxta.call_labels117:
	bl Handle_Real_Or_Clocked_Button_Actions
.Ltmp689:
	.loc	1 984 0
	ldaw r11, cp[.Lstr219]
.Ltmp690:
.LBB52_57:
.Lxtalabel178:
	.loc	1 964 0
	mov r0, r11
	bl puts
	bu .LBB52_15
.LBB52_26:
.Ltmp691:
	.loc	1 876 28
	eq r0, r9, 1
	bf r0, .LBB52_15
	bu .LBB52_27
.Ltmp692:
.LBB52_30:
	.loc	1 865 32
	mov r2, r1
	zext r2, 1
	.loc	1 865 32
	bf r2, .LBB52_33
.Ltmp693:
.Lxtalabel179:
	.loc	1 866 0
	add r1, r1, 1
	ldc r2, 10
	.loc	1 867 29
	lsu r2, r2, r1
	bt r2, .LBB52_32
.Ltmp694:
.LBB52_24:
.Lxtalabel180:
	.loc	1 864 0
	stw r1, r0[0]
	bu .LBB52_20
.LBB52_42:
.Ltmp695:
	eq r0, r0, 1
	bf r0, .LBB52_15
.Ltmp696:
.Lxtalabel181:
	.loc	1 898 25
	eq r0, r9, 1
	bf r0, .LBB52_44
.Ltmp697:
.LBB52_27:
.Lxtalabel182:
	mkmsk r0, 1
.Ltmp698:
.LBB52_28:
.Lxtalabel183:
	.loc	1 877 0
	stw r0, sp[3]
	bu .LBB52_29
.LBB52_6:
.Lxtalabel184:
.Ltmp699:
	mkmsk r0, 1
	.loc	1 811 0
	stw r0, r5[0]
.Ltmp700:
.LBB52_8:
.Lxtalabel185:
	.loc	1 824 21
	ldw r0, r5[0]
	.loc	1 824 21
	eq r0, r0, 1
	bf r0, .LBB52_15
.Ltmp701:
.Lxtalabel186:
	.loc	1 826 0
	stw r9, sp[3]
	stw r8, sp[2]
	stw r7, sp[1]
	mov r0, r5
	mov r1, r6
	mov r2, r4
.Lxta.call_labels118:
	bl Handle_Real_Or_Clocked_Button_Actions
.Ltmp702:
	ldc r0, 324
	.loc	1 827 0
	add r0, r5, r0
.Ltmp703:
.LBB52_13:
.Lxtalabel187:
	ldc r1, 0
.Ltmp704:
.LBB52_14:
.Lxtalabel188:
	.loc	1 896 0
	stw r1, r0[0]
	bu .LBB52_15
.LBB52_33:
.Lxtalabel189:
.Ltmp705:
	ldc r2, 11
	.loc	1 870 29
	lsu r1, r1, r2
	bt r1, .LBB52_20
.Ltmp706:
	ldc r1, 2
	.loc	1 864 0
	stw r1, r0[0]
	bu .LBB52_20
.Ltmp707:
.LBB52_32:
	ldc r1, 2
	stw r1, r0[0]
.Ltmp708:
.LBB52_20:
.Lxtalabel190:
	ldc r0, 280
	.loc	1 855 0
	add r0, r5, r0
	mkmsk r1, 1
	.loc	1 855 0
	stw r1, r0[0]
	.loc	1 856 0
	stw r9, sp[3]
.Ltmp709:
.LBB52_29:
.Lxtalabel191:
	.loc	1 877 0
	stw r8, sp[2]
	stw r7, sp[1]
	mov r0, r5
	mov r1, r6
	mov r2, r4
.Lxta.call_labels119:
	bl Handle_Real_Or_Clocked_Button_Actions
.LBB52_15:
.Lxtalabel192:
.Ltmp710:
	ldw r10, sp[4]
	ldw r9, sp[5]
	ldw r8, sp[6]
	ldw r7, sp[7]
	ldw r6, sp[8]
	ldw r5, sp[9]
	ldw r4, sp[10]
	retsp 11
	# RETURN_REG_HOLDER
.Ltmp711:
.LBB52_44:
.Lxtalabel193:
	bt r9, .LBB52_15
.Ltmp712:
.Lxtalabel194:
	.loc	1 899 0
	ldw r0, r5[1]
	.loc	1 899 0
	add r1, r0, 1
	.loc	1 900 29
	eq r3, r1, 8
.Ltmp713:
	ldc r0, 0
	.loc	1 900 29
	mov r2, r0
	bt r3, .LBB52_47
.Ltmp714:
.Lxtalabel195:
	mov r2, r1
.Ltmp715:
.LBB52_47:
.Lxtalabel196:
	.loc	1 899 0
	stw r2, r5[1]
	.loc	1 903 0
	stw r0, sp[3]
	stw r8, sp[2]
	stw r7, sp[1]
	mov r0, r5
	mov r1, r6
	mov r2, r4
.Lxta.call_labels120:
	bl Handle_Real_Or_Clocked_Button_Actions
.Ltmp716:
	ldc r0, 324
	.loc	1 904 0
	add r0, r5, r0
	ldc r1, 2
	bu .LBB52_14
.Ltmp717:
.LBB52_51:
	ldc r0, 68
	.loc	1 923 36
	add r0, r5, r0
	.loc	1 923 36
	ldw r1, r0[0]
	bf r1, .LBB52_15
.Ltmp718:
.Lxtalabel197:
	.loc	1 924 33
	mov r2, r1
	zext r2, 1
	.loc	1 924 33
	add r1, r1, r2
	.loc	1 924 33
	add r1, r1, 1
	.loc	1 927 0
	stw r1, r0[0]
	ldc r2, 10
	.loc	1 930 33
	lsu r1, r1, r2
	bt r1, .LBB52_54
.Ltmp719:
.Lxtalabel198:
	ldc r1, 0
	.loc	1 932 0
	stw r1, r0[0]
	mkmsk r0, 1
	.loc	1 933 0
	stw r0, r5[0]
	ldc r2, 64
	.loc	1 934 0
	add r2, r5, r2
	.loc	1 934 0
	stw r1, r2[0]
	ldc r2, 72
	.loc	1 935 0
	add r2, r5, r2
	.loc	1 935 0
	stw r1, r2[0]
	ldc r1, 280
	.loc	1 936 0
	add r1, r5, r1
	.loc	1 936 0
	stw r0, r1[0]
.Ltmp720:
.LBB52_54:
.Lxtalabel199:
	ldc r0, 0
	bu .LBB52_28
	.cc_bottom Handle_Real_Or_Clocked_Buttons.function
	.set	Handle_Real_Or_Clocked_Buttons.nstackwords,((puts.nstackwords $M Handle_Real_Or_Clocked_Button_Actions.nstackwords $M Clear_All_Pixels_In_Buffer.nstackwords $M writeToDisplay_i2c_all_buffer.nstackwords) + 11)
	.globl	Handle_Real_Or_Clocked_Buttons.nstackwords
