	.text
	.file	"../src/button_press.xc"

	.inline_definition delay_seconds
	.inline_definition delay_milliseconds
	.inline_definition delay_microseconds
	.set mux_button_task.dynalloc_maxchanends, 0
	.globl mux_button_task.dynalloc_maxchanends
	.set mux_button_task.dynalloc_maxcores, 0
	.globl mux_button_task.dynalloc_maxcores
	.set mux_button_task.dynalloc_maxtimers, 0
	.globl mux_button_task.dynalloc_maxtimers
	.set mux_button_task.init.0.savedstate,13
	.globl mux_button_task.init.0.savedstate
	.set mux_button_task.select.y.enable.savedstate,13
	.globl mux_button_task.select.y.enable.savedstate
	.set mux_button_task.select.y.enable.cases.maxtimers,0 $M mux_button_task.select.y.case.0.maxtimers
	.globl mux_button_task.select.y.enable.cases.maxtimers
	.set mux_button_task.select.y.enable.cases.maxcores,0 $M mux_button_task.select.y.case.0.maxcores
	.globl mux_button_task.select.y.enable.cases.maxcores
	.set mux_button_task.select.y.enable.cases.maxchanends,0 $M mux_button_task.select.y.case.0.maxchanends
	.globl mux_button_task.select.y.enable.cases.maxchanends
	.set mux_button_task.select.y.enable.cases,0
	.globl mux_button_task.select.y.enable.cases
	.set mux_button_task.select.y.enable.cases.nstackwords, 0 $M (mux_button_task.select.y.case.0.nstackwords)
	.globl mux_button_task.select.y.enable.cases.nstackwords
	.set mux_button_task.select.enable.savedstate,13
	.globl mux_button_task.select.enable.savedstate
	.set mux_button_task.select.enable.cases.maxtimers,0 $M mux_button_task.select.case.0.maxtimers
	.globl mux_button_task.select.enable.cases.maxtimers
	.set mux_button_task.select.enable.cases.maxcores,0 $M mux_button_task.select.case.0.maxcores
	.globl mux_button_task.select.enable.cases.maxcores
	.set mux_button_task.select.enable.cases.maxchanends,0 $M mux_button_task.select.case.0.maxchanends
	.globl mux_button_task.select.enable.cases.maxchanends
	.set mux_button_task.select.enable.cases,0
	.globl mux_button_task.select.enable.cases
	.set mux_button_task.select.enable.cases.nstackwords, 0 $M (mux_button_task.select.case.0.nstackwords)
	.globl mux_button_task.select.enable.cases.nstackwords
	.set inp_button_task.dynalloc_maxchanends, 0
	.globl inp_button_task.dynalloc_maxchanends
	.set inp_button_task.dynalloc_maxcores, 0
	.globl inp_button_task.dynalloc_maxcores
	.set inp_button_task.dynalloc_maxtimers, 0
	.globl inp_button_task.dynalloc_maxtimers
	.set inp_button_task.init.0.savedstate,8
	.globl inp_button_task.init.0.savedstate
	.set inp_button_task.select.y.enable.savedstate,8
	.globl inp_button_task.select.y.enable.savedstate
	.set inp_button_task.select.y.enable.cases.maxtimers,0 $M inp_button_task.select.y.case.1.maxtimers $M inp_button_task.select.y.case.0.maxtimers
	.globl inp_button_task.select.y.enable.cases.maxtimers
	.set inp_button_task.select.y.enable.cases.maxcores,0 $M inp_button_task.select.y.case.1.maxcores $M inp_button_task.select.y.case.0.maxcores
	.globl inp_button_task.select.y.enable.cases.maxcores
	.set inp_button_task.select.y.enable.cases.maxchanends,0 $M inp_button_task.select.y.case.1.maxchanends $M inp_button_task.select.y.case.0.maxchanends
	.globl inp_button_task.select.y.enable.cases.maxchanends
	.set inp_button_task.select.y.enable.cases,0
	.globl inp_button_task.select.y.enable.cases
	.set inp_button_task.select.y.enable.cases.nstackwords, 0 $M (inp_button_task.select.y.case.0.nstackwords) $M (inp_button_task.select.y.case.1.nstackwords)
	.globl inp_button_task.select.y.enable.cases.nstackwords
	.set inp_button_task.select.enable.savedstate,8
	.globl inp_button_task.select.enable.savedstate
	.set inp_button_task.select.enable.cases.maxtimers,0 $M inp_button_task.select.case.1.maxtimers $M inp_button_task.select.case.0.maxtimers
	.globl inp_button_task.select.enable.cases.maxtimers
	.set inp_button_task.select.enable.cases.maxcores,0 $M inp_button_task.select.case.1.maxcores $M inp_button_task.select.case.0.maxcores
	.globl inp_button_task.select.enable.cases.maxcores
	.set inp_button_task.select.enable.cases.maxchanends,0 $M inp_button_task.select.case.1.maxchanends $M inp_button_task.select.case.0.maxchanends
	.globl inp_button_task.select.enable.cases.maxchanends
	.set inp_button_task.select.enable.cases,0
	.globl inp_button_task.select.enable.cases
	.set inp_button_task.select.enable.cases.nstackwords, 0 $M (inp_button_task.select.case.1.nstackwords) $M (inp_button_task.select.case.0.nstackwords)
	.globl inp_button_task.select.enable.cases.nstackwords
	.set usage.anon.0,0
	.set usage.anon.1,0
	.set usage.anon.2,0
	.call inp_button_task,printf
	.call usage.anon.2,delay_ticks_longlong
	.call usage.anon.1,delay_ticks_longlong
	.call usage.anon.0,delay_ticks_longlong
	.set mux_button_task.locnoside, 0
	.set inp_button_task.locnoside, 0


	.section	.cp.rodata.cst4,"aMc",@progbits,4
	.cc_top .LCPI0_0.data,.LCPI0_0
	.align	4
	.type	.LCPI0_0,@object
	.size	.LCPI0_0, 4
.LCPI0_0:
	.long	5000000
	.cc_bottom .LCPI0_0.data
	.text
	.globl	inp_button_task
	.align	4
	.type	inp_button_task,@function
	.cc_top inp_button_task.function,inp_button_task
inp_button_task:
.Lfunc_begin0:
	.loc	1 53 0
	.cfi_startproc
.Lxtalabel0:
	entsp 5
.Ltmp0:
	.cfi_def_cfa_offset 20
.Ltmp1:
	.cfi_offset 15, 0
	stw r4, sp[4]
.Ltmp2:
	.cfi_offset 4, -4
	stw r5, sp[3]
.Ltmp3:
	.cfi_offset 5, -8
	stw r6, sp[2]
.Ltmp4:
	.cfi_offset 6, -12
	stw r7, sp[1]
.Ltmp5:
	.cfi_offset 7, -16
	mov r4, r2
.Ltmp6:
	mov r5, r1
.Ltmp7:
	mov r1, r0
.Ltmp8:
	.loc	1 61 0 prologue_end
	ldaw r11, cp[.str]
	mov r0, r11
.Lxta.call_labels0:
	bl iprintf
.Ltmp9:
	get r11, id
	ldaw r0, dp[__timers]
	ldw r0, r0[r11]
	ldc r1, 0
	ldw r2, cp[.LCPI0_0]
	mkmsk r3, 1
	bu .LBB0_1
.Ltmp10:
.LBB0_6:
.Lxtalabel1:
	.loc	1 89 51
.Lxta.endpoint_labels0:
	out res[r4], r3
	.loc	1 89 51
	outct res[r4], 1
	.loc	1 89 51
	chkct res[r4], 1
.Ltmp11:
.LBB0_1:
.Lxtalabel2:
	mov r11, r1
	mov r7, r1
	bu .LBB0_2
.Ltmp12:
.LBB0_8:
.Lxtalabel3:
.Ltmp13:
	.loc	1 66 0
.Lxta.endpoint_labels1:
	in r7, res[r5]
.Ltmp14:
	.loc	1 76 0
	setc res[r0], 1
	.loc	1 76 0
.Lxta.endpoint_labels2:
	in r11, res[r0]
.Ltmp15:
	.loc	1 79 0
	add r6, r11, r2
.Ltmp16:
	mov r11, r3
.Ltmp17:
.LBB0_2:
.Lxtalabel4:
	clre
	zext r11, 1
	bf r11, .LBB0_3
.Ltmp18:
	setd res[r0], r6
	setc res[r0], 9
	ldap r11, .Ltmp19
	setv res[r0], r11
	eeu res[r0]
	.loc	1 97 0

	.xtabranch .LBB0_8, .LBB0_5
	waiteu
.Ltmp20:
.LBB0_3:
	setd res[r5], r7
	setc res[r5], 25
	ldap r11, .Ltmp12
	setv res[r5], r11
	eeu res[r5]

	.xtabranch .LBB0_8, .LBB0_5
	waiteu
.Ltmp21:
.Ltmp19:
.LBB0_5:
.Lxtalabel5:
	.loc	1 84 0
.Lxta.endpoint_labels3:
	in r11, res[r0]
.Ltmp22:
	.loc	1 89 51
	outct res[r4], 1
	.loc	1 89 51
	chkct res[r4], 1
	.loc	1 87 17
	bf r7, .LBB0_6
.Ltmp23:
.Lxtalabel6:
	.loc	1 93 52
.Lxta.endpoint_labels4:
	out res[r4], r1
	.loc	1 93 52
	outct res[r4], 1
	.loc	1 93 52
	chkct res[r4], 1
	clre
	setd res[r5], r7
	setc res[r5], 25
	ldap r11, .Ltmp12
	setv res[r5], r11
	eeu res[r5]
	.loc	1 97 0

	.xtabranch .LBB0_8, .LBB0_5
	waiteu
.Ltmp24:
	.cc_bottom inp_button_task.function
	.set	inp_button_task.nstackwords,(iprintf.nstackwords + 5)
	.globl	inp_button_task.nstackwords
	.set	inp_button_task.maxcores,iprintf.maxcores $M 1
	.globl	inp_button_task.maxcores
	.set	inp_button_task.maxtimers,iprintf.maxtimers $M 0
	.globl	inp_button_task.maxtimers
	.set	inp_button_task.maxchanends,iprintf.maxchanends $M 0
	.globl	inp_button_task.maxchanends
.Ltmp25:
	.size	inp_button_task, .Ltmp25-inp_button_task
.Lfunc_end0:
	.cfi_endproc

	.globl	inp_button_task.init.1
	.align	4
	.type	inp_button_task.init.1,@function
	.cc_top inp_button_task.init.1.function,inp_button_task.init.1
inp_button_task.init.1:
.Lfunc_begin1:
	.file	2 "<synthesized>"
	.loc	2 0 0
	.cfi_startproc
	entsp 3
.Ltmp26:
	.cfi_def_cfa_offset 12
.Ltmp27:
	.cfi_offset 15, 0
	stw r4, sp[2]
.Ltmp28:
	.cfi_offset 4, -4
	stw r5, sp[1]
.Ltmp29:
	.cfi_offset 5, -8
	mov r4, r0
.Ltmp30:
	ldw r0, r4[1]
	bf r0, .LBB1_2
.Ltmp31:
	ldc r0, 0
	stw r0, r4[1]
	.loc	1 55 0 prologue_end
.Ltmp32:
	stw r0, r4[5]
	mkmsk r5, 1
	.loc	1 56 0
.Ltmp33:
	stw r5, r4[6]
.Ltmp34:
	.loc	1 61 0
	ldw r1, r4[2]
	.loc	1 61 0
	ldaw r11, cp[.str1]
	mov r0, r11
.Lxta.call_labels1:
	bl iprintf
	stw r5, r4[0]
.Ltmp35:
.LBB1_2:
	ldw r5, sp[1]
	ldw r4, sp[2]
	retsp 3
	# RETURN_REG_HOLDER
	.cc_bottom inp_button_task.init.1.function
	.set	inp_button_task.init.1.nstackwords,(iprintf.nstackwords + 3)
	.globl	inp_button_task.init.1.nstackwords
	.set	inp_button_task.init.1.maxcores,iprintf.maxcores $M 1
	.globl	inp_button_task.init.1.maxcores
	.set	inp_button_task.init.1.maxtimers,iprintf.maxtimers $M 0
	.globl	inp_button_task.init.1.maxtimers
	.set	inp_button_task.init.1.maxchanends,iprintf.maxchanends $M 0
	.globl	inp_button_task.init.1.maxchanends
.Ltmp36:
	.size	inp_button_task.init.1, .Ltmp36-inp_button_task.init.1
.Lfunc_end1:
	.cfi_endproc

	.globl	inp_button_task.init.0
	.align	4
	.type	inp_button_task.init.0,@function
	.cc_top inp_button_task.init.0.function,inp_button_task.init.0
inp_button_task.init.0:
	.cfi_startproc
.Lxtalabel7:
	stw r1, r0[2]
	stw r2, r0[3]
	stw r3, r0[4]
	ldc r1, 0
	stw r1, r0[0]
	ldap r11, inp_button_task.init.1
	stw r11, r0[1]
	retsp 0
	# RETURN_REG_HOLDER
	.cc_bottom inp_button_task.init.0.function
	.set	inp_button_task.init.0.nstackwords,0
	.globl	inp_button_task.init.0.nstackwords
	.set	inp_button_task.init.0.maxcores,1
	.globl	inp_button_task.init.0.maxcores
	.set	inp_button_task.init.0.maxtimers,0
	.globl	inp_button_task.init.0.maxtimers
	.set	inp_button_task.init.0.maxchanends,0
	.globl	inp_button_task.init.0.maxchanends
.Ltmp37:
	.size	inp_button_task.init.0, .Ltmp37-inp_button_task.init.0
	.cfi_endproc

	.globl	inp_button_task.select.y.enable
	.align	4
	.type	inp_button_task.select.y.enable,@function
	.cc_top inp_button_task.select.y.enable.function,inp_button_task.select.y.enable
inp_button_task.select.y.enable:
	.cfi_startproc
	entsp 2
.Ltmp38:
	.cfi_def_cfa_offset 8
.Ltmp39:
	.cfi_offset 15, 0
	stw r4, sp[1]
.Ltmp40:
	.cfi_offset 4, -4
	mov r4, r0
	bl inp_button_task.init.1
	ldw r0, r4[0]
	bf r0, .LBB3_1
	ldw r0, r4[6]
	bf r0, .LBB3_4
	ldw r0, r4[3]
	ldw r1, r4[5]
	setd res[r0], r1
	setc res[r0], 25
	ldap r11, inp_button_task.select.y.case.0
	bu .LBB3_6
.LBB3_1:
	ldc r0, 0
	bu .LBB3_8
.LBB3_4:
	get r11, id
	ldaw r0, dp[__timers]
	ldw r0, r0[r11]
	ldaw r1, dp[__timer_base]
	ldw r2, r1[r11]
	ldw r1, r4[7]
	sub r2, r1, r2
	ldaw r3, dp[__timer_delta]
	ldw r11, r3[r11]
	lss r11, r11, r2
	bt r11, .LBB3_7
	get r11, id
	stw r2, r3[r11]
	setd res[r0], r1
	setc res[r0], 9
	ldap r11, inp_button_task.select.y.case.1
.LBB3_6:
	setv res[r0], r11
	mov r11, r4
	setev res[r0], r11
.LBB3_7:
	eeu res[r0]
	mkmsk r0, 1
.LBB3_8:
	ldw r4, sp[1]
	retsp 2
	# RETURN_REG_HOLDER
	.cc_bottom inp_button_task.select.y.enable.function
	.set	inp_button_task.select.y.enable.nstackwords,(inp_button_task.init.1.nstackwords + 2)
	.globl	inp_button_task.select.y.enable.nstackwords
	.set	inp_button_task.select.y.enable.maxcores,inp_button_task.init.1.maxcores $M 1
	.globl	inp_button_task.select.y.enable.maxcores
	.set	inp_button_task.select.y.enable.maxtimers,inp_button_task.init.1.maxtimers $M 0
	.globl	inp_button_task.select.y.enable.maxtimers
	.set	inp_button_task.select.y.enable.maxchanends,inp_button_task.init.1.maxchanends $M 0
	.globl	inp_button_task.select.y.enable.maxchanends
.Ltmp41:
	.size	inp_button_task.select.y.enable, .Ltmp41-inp_button_task.select.y.enable
	.cfi_endproc

	.globl	inp_button_task.select.enable
	.align	4
	.type	inp_button_task.select.enable,@function
	.cc_top inp_button_task.select.enable.function,inp_button_task.select.enable
inp_button_task.select.enable:
	.cfi_startproc
	extsp 1
.Ltmp42:
	.cfi_def_cfa_offset 4
	stw r4, sp[0]
.Ltmp43:
	.cfi_offset 4, -4
	ldw r1, r0[0]
	bf r1, .LBB4_1
	ldw r1, r0[6]
	bf r1, .LBB4_4
	ldw r1, r0[3]
	ldw r2, r0[5]
	setd res[r1], r2
	setc res[r1], 25
	ldap r11, inp_button_task.select.case.0
	bu .LBB4_6
.LBB4_1:
	ldc r0, 0
	bu .LBB4_8
.LBB4_4:
	get r11, id
	ldaw r1, dp[__timers]
	ldw r1, r1[r11]
	ldaw r2, dp[__timer_base]
	ldw r3, r2[r11]
	ldw r2, r0[7]
	sub r3, r2, r3
	ldaw r4, dp[__timer_delta]
	ldw r11, r4[r11]
	lss r11, r11, r3
	bt r11, .LBB4_7
	get r11, id
	stw r3, r4[r11]
	setd res[r1], r2
	setc res[r1], 9
	ldap r11, inp_button_task.select.case.1
.LBB4_6:
	setv res[r1], r11
	mov r11, r0
	setev res[r1], r11
.LBB4_7:
	eeu res[r1]
	mkmsk r0, 1
.LBB4_8:
	ldw r4, sp[0]
	ldaw sp, sp[1]
	retsp 0
	# RETURN_REG_HOLDER
	.cc_bottom inp_button_task.select.enable.function
	.set	inp_button_task.select.enable.nstackwords,1
	.globl	inp_button_task.select.enable.nstackwords
	.set	inp_button_task.select.enable.maxcores,1
	.globl	inp_button_task.select.enable.maxcores
	.set	inp_button_task.select.enable.maxtimers,0
	.globl	inp_button_task.select.enable.maxtimers
	.set	inp_button_task.select.enable.maxchanends,0
	.globl	inp_button_task.select.enable.maxchanends
.Ltmp44:
	.size	inp_button_task.select.enable, .Ltmp44-inp_button_task.select.enable
	.cfi_endproc

	.globl	inp_button_task.fini
	.align	4
	.type	inp_button_task.fini,@function
	.cc_top inp_button_task.fini.function,inp_button_task.fini
inp_button_task.fini:
	.cfi_startproc
	ldw r0, r0[0]
	bf r0, .LBB5_2
.LBB5_1:
	bu .LBB5_1
.LBB5_2:
	retsp 0
	# RETURN_REG_HOLDER
	.cc_bottom inp_button_task.fini.function
	.set	inp_button_task.fini.nstackwords,0
	.globl	inp_button_task.fini.nstackwords
	.set	inp_button_task.fini.maxcores,1
	.globl	inp_button_task.fini.maxcores
	.set	inp_button_task.fini.maxtimers,0
	.globl	inp_button_task.fini.maxtimers
	.set	inp_button_task.fini.maxchanends,0
	.globl	inp_button_task.fini.maxchanends
.Ltmp45:
	.size	inp_button_task.fini, .Ltmp45-inp_button_task.fini
	.cfi_endproc

	.globl	mux_button_task
	.align	4
	.type	mux_button_task,@function
	.cc_top mux_button_task.function,mux_button_task
mux_button_task:
.Lfunc_begin6:
	.loc	1 34 0
	.cfi_startproc
.Lxtalabel8:
	extsp 6
.Ltmp46:
	.cfi_def_cfa_offset 24
	stw r4, sp[5]
.Ltmp47:
	.cfi_offset 4, -4
	stw r5, sp[4]
.Ltmp48:
	.cfi_offset 5, -8
	stw r6, sp[3]
.Ltmp49:
	.cfi_offset 6, -12
	stw r7, sp[2]
.Ltmp50:
	.cfi_offset 7, -16
	stw r8, sp[1]
.Ltmp51:
	.cfi_offset 8, -20
	stw r9, sp[0]
.Ltmp52:
	.cfi_offset 9, -24
	.loc	1 41 0 prologue_end
.Ltmp53:
	ldw r6, r0[0]
	.loc	1 41 0
	ldw r7, r0[1]
	.loc	1 41 0
	ldw r8, r0[2]
	ldc r2, 0
	mkmsk r3, 1
	ldc r4, 2
	bu .LBB6_1
.Ltmp54:
.Ltmp55:
.LBB6_2:
.Lxtalabel9:
	.loc	1 41 0
	get r11, ed
	.loc	1 41 0
	zext r11, 16
.Ltmp56:
	.loc	1 41 0
	ldw r5, r0[r11]
	.loc	1 41 0
	chkct res[r5], 1
	.loc	1 41 0
	outct res[r5], 1
	.loc	1 41 0
.Lxta.endpoint_labels5:
	in r9, res[r5]
.Ltmp57:
	.loc	1 41 0
	chkct res[r5], 1
	.loc	1 41 0
	outct res[r5], 1
	.loc	1 46 44
.Ltmp58:
	outct res[r1], 1
	.loc	1 46 44
	chkct res[r1], 1
	.loc	1 46 44
.Lxta.endpoint_labels6:
	out res[r1], r11
	.loc	1 46 44
	out res[r1], r9
	.loc	1 46 44
	outct res[r1], 1
	.loc	1 46 44
	chkct res[r1], 1
.Ltmp59:
.LBB6_1:
.Lxtalabel10:
	.loc	1 40 9
	clre
	ldap r11, .Ltmp55
	mov r5, r11
	.loc	1 41 0
.Ltmp60:
	setv res[r6], r11
	.loc	1 41 0
	mov r11, r2
	setev res[r6], r11
.Ltmp61:
	.loc	1 41 0
	eeu res[r6]
	.loc	1 41 0
	mov r11, r5
	setv res[r7], r11
	.loc	1 41 0
	mov r11, r3
	setev res[r7], r11
	.loc	1 41 0
	eeu res[r7]
	.loc	1 41 0
	mov r11, r5
	setv res[r8], r11
	.loc	1 41 0
	mov r11, r4
	setev res[r8], r11
	.loc	1 41 0
	eeu res[r8]
	.loc	1 47 0

	.xtabranch .LBB6_2
	waiteu
.Ltmp62:
	.cc_bottom mux_button_task.function
	.set	mux_button_task.nstackwords,6
	.globl	mux_button_task.nstackwords
	.set	mux_button_task.maxcores,1
	.globl	mux_button_task.maxcores
	.set	mux_button_task.maxtimers,0
	.globl	mux_button_task.maxtimers
	.set	mux_button_task.maxchanends,0
	.globl	mux_button_task.maxchanends
.Ltmp63:
	.size	mux_button_task, .Ltmp63-mux_button_task
.Lfunc_end6:
	.cfi_endproc

	.globl	mux_button_task.init.1
	.align	4
	.type	mux_button_task.init.1,@function
	.cc_top mux_button_task.init.1.function,mux_button_task.init.1
mux_button_task.init.1:
	.cfi_startproc
	ldw r1, r0[1]
	bf r1, .LBB7_2
	ldc r1, 0
	stw r1, r0[1]
	mkmsk r1, 1
	stw r1, r0[0]
.LBB7_2:
	retsp 0
	# RETURN_REG_HOLDER
	.cc_bottom mux_button_task.init.1.function
	.set	mux_button_task.init.1.nstackwords,0
	.globl	mux_button_task.init.1.nstackwords
	.set	mux_button_task.init.1.maxcores,1
	.globl	mux_button_task.init.1.maxcores
	.set	mux_button_task.init.1.maxtimers,0
	.globl	mux_button_task.init.1.maxtimers
	.set	mux_button_task.init.1.maxchanends,0
	.globl	mux_button_task.init.1.maxchanends
.Ltmp64:
	.size	mux_button_task.init.1, .Ltmp64-mux_button_task.init.1
	.cfi_endproc

	.globl	mux_button_task.init.0
	.align	4
	.type	mux_button_task.init.0,@function
	.cc_top mux_button_task.init.0.function,mux_button_task.init.0
mux_button_task.init.0:
	.cfi_startproc
.Lxtalabel11:
	stw r1, r0[2]
	stw r2, r0[3]
	ldc r1, 0
	stw r1, r0[0]
	ldap r11, mux_button_task.init.1
	stw r11, r0[1]
	retsp 0
	# RETURN_REG_HOLDER
	.cc_bottom mux_button_task.init.0.function
	.set	mux_button_task.init.0.nstackwords,0
	.globl	mux_button_task.init.0.nstackwords
	.set	mux_button_task.init.0.maxcores,1
	.globl	mux_button_task.init.0.maxcores
	.set	mux_button_task.init.0.maxtimers,0
	.globl	mux_button_task.init.0.maxtimers
	.set	mux_button_task.init.0.maxchanends,0
	.globl	mux_button_task.init.0.maxchanends
.Ltmp65:
	.size	mux_button_task.init.0, .Ltmp65-mux_button_task.init.0
	.cfi_endproc

	.section	.cp.rodata.cst4,"aMc",@progbits,4
	.cc_top .LCPI9_0.data,.LCPI9_0
	.align	4
	.type	.LCPI9_0,@object
	.size	.LCPI9_0, 4
.LCPI9_0:
	.long	670763580
	.cc_bottom .LCPI9_0.data
	.cc_top .LCPI9_1.data,.LCPI9_1
	.align	4
	.type	.LCPI9_1,@object
	.size	.LCPI9_1, 4
.LCPI9_1:
	.long	3624163008
	.cc_bottom .LCPI9_1.data
	.cc_top .LCPI9_2.data,.LCPI9_2
	.align	4
	.type	.LCPI9_2,@object
	.size	.LCPI9_2, 4
.LCPI9_2:
	.long	171759621
	.cc_bottom .LCPI9_2.data
	.text
	.globl	mux_button_task.select.y.enable
	.align	4
	.type	mux_button_task.select.y.enable,@function
	.cc_top mux_button_task.select.y.enable.function,mux_button_task.select.y.enable
mux_button_task.select.y.enable:
.Lfunc_begin9:
	.loc	2 0 0
	.cfi_startproc
	entsp 2
.Ltmp66:
	.cfi_def_cfa_offset 8
.Ltmp67:
	.cfi_offset 15, 0
	stw r4, sp[1]
.Ltmp68:
	.cfi_offset 4, -4
	mov r4, r0
.Ltmp69:
	bl mux_button_task.init.1
	ldw r0, r4[0]
	bf r0, .LBB9_1
.Ltmp70:
	.loc	2 40 9 prologue_end
	ldaw r1, r4[7]
	.loc	2 40 9
	ldap r11, mux_button_task.select.y.case.0
	stw r11, r4[11]
	ldw r0, cp[.LCPI9_0]
	stw r0, r4[9]
	ldw r0, cp[.LCPI9_1]
	stw r0, r4[8]
	ldw r0, cp[.LCPI9_2]
	stw r0, r4[7]
	stw r4, r4[10]
.Ltmp71:
	.loc	1 41 0
	ldw r2, r4[2]
	.loc	1 41 0
	ldw r0, r2[0]
	.loc	1 41 0
	mov r11, r1
	setv res[r0], r11
	ldc r11, 0
	.loc	1 41 0
	setev res[r0], r11
	.loc	1 41 0
	eeu res[r0]
.Ltmp72:
	.loc	1 41 0
	ldw r3, r2[1]
	.loc	1 41 0
	mov r11, r1
	setv res[r3], r11
	mkmsk r0, 1
	.loc	1 41 0
	mov r11, r0
	setev res[r3], r11
	.loc	1 41 0
	eeu res[r3]
	.loc	1 41 0
	ldw r2, r2[2]
	.loc	1 41 0
	mov r11, r1
	setv res[r2], r11
	ldc r11, 2
	.loc	1 41 0
	setev res[r2], r11
	.loc	1 41 0
	eeu res[r2]
	bu .LBB9_3
.Ltmp73:
.LBB9_1:
	ldc r0, 0
.LBB9_3:
	ldw r4, sp[1]
	retsp 2
	# RETURN_REG_HOLDER
	.cc_bottom mux_button_task.select.y.enable.function
	.set	mux_button_task.select.y.enable.nstackwords,(mux_button_task.init.1.nstackwords + 2)
	.globl	mux_button_task.select.y.enable.nstackwords
	.set	mux_button_task.select.y.enable.maxcores,mux_button_task.init.1.maxcores $M 1
	.globl	mux_button_task.select.y.enable.maxcores
	.set	mux_button_task.select.y.enable.maxtimers,mux_button_task.init.1.maxtimers $M 0
	.globl	mux_button_task.select.y.enable.maxtimers
	.set	mux_button_task.select.y.enable.maxchanends,mux_button_task.init.1.maxchanends $M 0
	.globl	mux_button_task.select.y.enable.maxchanends
.Ltmp74:
	.size	mux_button_task.select.y.enable, .Ltmp74-mux_button_task.select.y.enable
.Lfunc_end9:
	.cfi_endproc

	.section	.cp.rodata.cst4,"aMc",@progbits,4
	.cc_top .LCPI10_0.data,.LCPI10_0
	.align	4
	.type	.LCPI10_0,@object
	.size	.LCPI10_0, 4
.LCPI10_0:
	.long	670763580
	.cc_bottom .LCPI10_0.data
	.cc_top .LCPI10_1.data,.LCPI10_1
	.align	4
	.type	.LCPI10_1,@object
	.size	.LCPI10_1, 4
.LCPI10_1:
	.long	3624163008
	.cc_bottom .LCPI10_1.data
	.cc_top .LCPI10_2.data,.LCPI10_2
	.align	4
	.type	.LCPI10_2,@object
	.size	.LCPI10_2, 4
.LCPI10_2:
	.long	171759621
	.cc_bottom .LCPI10_2.data
	.text
	.globl	mux_button_task.select.enable
	.align	4
	.type	mux_button_task.select.enable,@function
	.cc_top mux_button_task.select.enable.function,mux_button_task.select.enable
mux_button_task.select.enable:
.Lfunc_begin10:
	.loc	2 0 0
	.cfi_startproc
	ldw r1, r0[0]
	bf r1, .LBB10_1
.Ltmp75:
	.loc	2 40 9 prologue_end
	ldaw r1, r0[7]
	.loc	2 40 9
	ldap r11, mux_button_task.select.case.0
	stw r11, r0[11]
	ldw r2, cp[.LCPI10_0]
	stw r2, r0[9]
	ldw r2, cp[.LCPI10_1]
	stw r2, r0[8]
	ldw r2, cp[.LCPI10_2]
	stw r2, r0[7]
	stw r0, r0[10]
.Ltmp76:
	.loc	1 41 0
	ldw r2, r0[2]
	.loc	1 41 0
	ldw r0, r2[0]
.Ltmp77:
	.loc	1 41 0
	mov r11, r1
	setv res[r0], r11
	ldc r11, 0
	.loc	1 41 0
	setev res[r0], r11
	.loc	1 41 0
	eeu res[r0]
.Ltmp78:
	.loc	1 41 0
	ldw r3, r2[1]
	.loc	1 41 0
	mov r11, r1
	setv res[r3], r11
	mkmsk r0, 1
	.loc	1 41 0
	mov r11, r0
	setev res[r3], r11
	.loc	1 41 0
	eeu res[r3]
	.loc	1 41 0
	ldw r2, r2[2]
	.loc	1 41 0
	mov r11, r1
	setv res[r2], r11
	ldc r11, 2
	.loc	1 41 0
	setev res[r2], r11
	.loc	1 41 0
	eeu res[r2]
	retsp 0
	# RETURN_REG_HOLDER
.Ltmp79:
.LBB10_1:
	ldc r0, 0
	retsp 0
	# RETURN_REG_HOLDER
	.cc_bottom mux_button_task.select.enable.function
	.set	mux_button_task.select.enable.nstackwords,0
	.globl	mux_button_task.select.enable.nstackwords
	.set	mux_button_task.select.enable.maxcores,1
	.globl	mux_button_task.select.enable.maxcores
	.set	mux_button_task.select.enable.maxtimers,0
	.globl	mux_button_task.select.enable.maxtimers
	.set	mux_button_task.select.enable.maxchanends,0
	.globl	mux_button_task.select.enable.maxchanends
.Ltmp80:
	.size	mux_button_task.select.enable, .Ltmp80-mux_button_task.select.enable
.Lfunc_end10:
	.cfi_endproc

	.globl	mux_button_task.fini
	.align	4
	.type	mux_button_task.fini,@function
	.cc_top mux_button_task.fini.function,mux_button_task.fini
mux_button_task.fini:
	.cfi_startproc
	ldw r0, r0[0]
	bf r0, .LBB11_2
.LBB11_1:
	bu .LBB11_1
.LBB11_2:
	retsp 0
	# RETURN_REG_HOLDER
	.cc_bottom mux_button_task.fini.function
	.set	mux_button_task.fini.nstackwords,0
	.globl	mux_button_task.fini.nstackwords
	.set	mux_button_task.fini.maxcores,1
	.globl	mux_button_task.fini.maxcores
	.set	mux_button_task.fini.maxtimers,0
	.globl	mux_button_task.fini.maxtimers
	.set	mux_button_task.fini.maxchanends,0
	.globl	mux_button_task.fini.maxchanends
.Ltmp81:
	.size	mux_button_task.fini, .Ltmp81-mux_button_task.fini
	.cfi_endproc

	.align	4
	.type	mux_button_task.select.y.case.0,@function
	.cc_top mux_button_task.select.y.case.0.function,mux_button_task.select.y.case.0
mux_button_task.select.y.case.0:
.Lfunc_begin12:
	.loc	1 41 0
	.cfi_startproc
.Lxtalabel12:
	ldw r11, sp[0]
	mov r0, r11
.Ltmp82:
	.loc	1 41 0 prologue_end
	get r11, ed
.Ltmp83:
	zext r11, 16
.Ltmp84:
	.loc	1 41 0
	ldw r1, r0[2]
	.loc	1 41 0
	ldw r1, r1[r11]
	.loc	1 41 0
	chkct res[r1], 1
	.loc	1 41 0
	outct res[r1], 1
	.loc	1 41 0
.Lxta.endpoint_labels7:
	in r2, res[r1]
	.loc	1 41 0
	stw r2, r0[4]
	.loc	1 41 0
	chkct res[r1], 1
	.loc	1 41 0
	outct res[r1], 1
	.loc	1 43 0
	stw r2, r0[5]
	.loc	1 44 0
	stw r11, r0[6]
	.loc	1 46 44
	ldw r0, r0[3]
.Ltmp85:
	.loc	1 46 44
	outct res[r0], 1
	.loc	1 46 44
	chkct res[r0], 1
	.loc	1 46 44
.Lxta.endpoint_labels8:
	out res[r0], r11
	.loc	1 46 44
	out res[r0], r2
	.loc	1 46 44
	outct res[r0], 1
	.loc	1 46 44
	chkct res[r0], 1
	retsp 0
	# RETURN_REG_HOLDER
.Ltmp86:
	.cc_bottom mux_button_task.select.y.case.0.function
	.set	mux_button_task.select.y.case.0.nstackwords,0
	.set	mux_button_task.select.y.case.0.maxcores,1
	.set	mux_button_task.select.y.case.0.maxtimers,0
	.set	mux_button_task.select.y.case.0.maxchanends,0
.Ltmp87:
	.size	mux_button_task.select.y.case.0, .Ltmp87-mux_button_task.select.y.case.0
.Lfunc_end12:
	.cfi_endproc

	.align	4
	.type	mux_button_task.select.case.0,@function
	.cc_top mux_button_task.select.case.0.function,mux_button_task.select.case.0
mux_button_task.select.case.0:
.Lfunc_begin13:
	.loc	1 41 0
	.cfi_startproc
.Lxtalabel13:
	ldw r11, sp[0]
	mov r0, r11
.Ltmp88:
	.loc	1 41 0 prologue_end
	get r11, ed
.Ltmp89:
	zext r11, 16
.Ltmp90:
	.loc	1 41 0
	ldw r1, r0[2]
	.loc	1 41 0
	ldw r1, r1[r11]
	.loc	1 41 0
	chkct res[r1], 1
	.loc	1 41 0
	outct res[r1], 1
	.loc	1 41 0
.Lxta.endpoint_labels9:
	in r2, res[r1]
	.loc	1 41 0
	stw r2, r0[4]
	.loc	1 41 0
	chkct res[r1], 1
	.loc	1 41 0
	outct res[r1], 1
	.loc	1 43 0
	stw r2, r0[5]
	.loc	1 44 0
	stw r11, r0[6]
	.loc	1 46 44
	ldw r0, r0[3]
.Ltmp91:
	.loc	1 46 44
	outct res[r0], 1
	.loc	1 46 44
	chkct res[r0], 1
	.loc	1 46 44
.Lxta.endpoint_labels10:
	out res[r0], r11
	.loc	1 46 44
	out res[r0], r2
	.loc	1 46 44
	outct res[r0], 1
	.loc	1 46 44
	chkct res[r0], 1
	retsp 0
	# RETURN_REG_HOLDER
.Ltmp92:
	.cc_bottom mux_button_task.select.case.0.function
	.set	mux_button_task.select.case.0.nstackwords,0
	.set	mux_button_task.select.case.0.maxcores,1
	.set	mux_button_task.select.case.0.maxtimers,0
	.set	mux_button_task.select.case.0.maxchanends,0
.Ltmp93:
	.size	mux_button_task.select.case.0, .Ltmp93-mux_button_task.select.case.0
.Lfunc_end13:
	.cfi_endproc

	.section	.cp.rodata.cst4,"aMc",@progbits,4
	.cc_top .LCPI14_0.data,.LCPI14_0
	.align	4
	.type	.LCPI14_0,@object
	.size	.LCPI14_0, 4
.LCPI14_0:
	.long	5000000
	.cc_bottom .LCPI14_0.data
	.text
	.align	4
	.type	inp_button_task.select.y.case.0,@function
	.cc_top inp_button_task.select.y.case.0.function,inp_button_task.select.y.case.0
inp_button_task.select.y.case.0:
.Lfunc_begin14:
	.loc	1 66 0
	.cfi_startproc
.Lxtalabel14:
	get r11, ed
	mov r0, r11
	.loc	1 66 0 prologue_end
.Ltmp94:
	ldw r1, r0[3]
	.loc	1 66 0
.Lxta.endpoint_labels11:
	in r1, res[r1]
	.loc	1 66 0
	stw r1, r0[5]
	ldc r1, 0
	.loc	1 74 0
	stw r1, r0[6]
	.loc	1 76 0
.Ltmp95:
	get r11, id
	.loc	1 76 0
	ldaw r1, dp[__timers]
	.loc	1 76 0
	ldw r1, r1[r11]
	.loc	1 76 0
	setc res[r1], 1
	.loc	1 76 0
.Lxta.endpoint_labels12:
	in r1, res[r1]
.Ltmp96:
	ldw r2, cp[.LCPI14_0]
	.loc	1 79 0
	add r1, r1, r2
.Ltmp97:
	.loc	1 79 0
	stw r1, r0[7]
	retsp 0
	# RETURN_REG_HOLDER
.Ltmp98:
	.cc_bottom inp_button_task.select.y.case.0.function
	.set	inp_button_task.select.y.case.0.nstackwords,0
	.set	inp_button_task.select.y.case.0.maxcores,1
	.set	inp_button_task.select.y.case.0.maxtimers,0
	.set	inp_button_task.select.y.case.0.maxchanends,0
.Ltmp99:
	.size	inp_button_task.select.y.case.0, .Ltmp99-inp_button_task.select.y.case.0
.Lfunc_end14:
	.cfi_endproc

	.align	4
	.type	inp_button_task.select.y.case.1,@function
	.cc_top inp_button_task.select.y.case.1.function,inp_button_task.select.y.case.1
inp_button_task.select.y.case.1:
.Lfunc_begin15:
	.loc	1 84 0
	.cfi_startproc
.Lxtalabel15:
	get r11, ed
	mov r0, r11
	.loc	1 84 0 prologue_end
.Ltmp100:
	get r11, id
	.loc	1 84 0
	ldaw r1, dp[__timers]
	.loc	1 84 0
	ldw r1, r1[r11]
	.loc	1 84 0
.Ltmp101:
.Lxta.endpoint_labels13:
	in r1, res[r1]
.Ltmp102:
	.loc	1 87 17
	ldw r2, r0[5]
	.loc	1 89 51
	ldw r1, r0[4]
	.loc	1 89 51
	outct res[r1], 1
	.loc	1 89 51
	chkct res[r1], 1
	.loc	1 87 17
	bf r2, .LBB15_1
.Lxtalabel16:
	ldc r2, 0
	bu .LBB15_2
.LBB15_1:
.Lxtalabel17:
	mkmsk r2, 1
.LBB15_2:
.Lxtalabel18:
	.loc	1 89 51
.Lxta.endpoint_labels14:
	out res[r1], r2
	.loc	1 89 51
	outct res[r1], 1
	.loc	1 89 51
	chkct res[r1], 1
	mkmsk r1, 1
	.loc	1 96 0
	stw r1, r0[6]
	retsp 0
	# RETURN_REG_HOLDER
.Ltmp103:
	.cc_bottom inp_button_task.select.y.case.1.function
	.set	inp_button_task.select.y.case.1.nstackwords,0
	.set	inp_button_task.select.y.case.1.maxcores,1
	.set	inp_button_task.select.y.case.1.maxtimers,0
	.set	inp_button_task.select.y.case.1.maxchanends,0
.Ltmp104:
	.size	inp_button_task.select.y.case.1, .Ltmp104-inp_button_task.select.y.case.1
.Lfunc_end15:
	.cfi_endproc

	.section	.cp.rodata.cst4,"aMc",@progbits,4
	.cc_top .LCPI16_0.data,.LCPI16_0
	.align	4
	.type	.LCPI16_0,@object
	.size	.LCPI16_0, 4
.LCPI16_0:
	.long	5000000
	.cc_bottom .LCPI16_0.data
	.text
	.align	4
	.type	inp_button_task.select.case.0,@function
	.cc_top inp_button_task.select.case.0.function,inp_button_task.select.case.0
inp_button_task.select.case.0:
.Lfunc_begin16:
	.loc	1 66 0
	.cfi_startproc
.Lxtalabel19:
	get r11, ed
	mov r0, r11
	.loc	1 66 0 prologue_end
.Ltmp105:
	ldw r1, r0[3]
	.loc	1 66 0
.Lxta.endpoint_labels15:
	in r1, res[r1]
	.loc	1 66 0
	stw r1, r0[5]
	ldc r1, 0
	.loc	1 74 0
	stw r1, r0[6]
	.loc	1 76 0
.Ltmp106:
	get r11, id
	.loc	1 76 0
	ldaw r1, dp[__timers]
	.loc	1 76 0
	ldw r1, r1[r11]
	.loc	1 76 0
	setc res[r1], 1
	.loc	1 76 0
.Lxta.endpoint_labels16:
	in r1, res[r1]
.Ltmp107:
	ldw r2, cp[.LCPI16_0]
	.loc	1 79 0
	add r1, r1, r2
.Ltmp108:
	.loc	1 79 0
	stw r1, r0[7]
	retsp 0
	# RETURN_REG_HOLDER
.Ltmp109:
	.cc_bottom inp_button_task.select.case.0.function
	.set	inp_button_task.select.case.0.nstackwords,0
	.set	inp_button_task.select.case.0.maxcores,1
	.set	inp_button_task.select.case.0.maxtimers,0
	.set	inp_button_task.select.case.0.maxchanends,0
.Ltmp110:
	.size	inp_button_task.select.case.0, .Ltmp110-inp_button_task.select.case.0
.Lfunc_end16:
	.cfi_endproc

	.align	4
	.type	inp_button_task.select.case.1,@function
	.cc_top inp_button_task.select.case.1.function,inp_button_task.select.case.1
inp_button_task.select.case.1:
.Lfunc_begin17:
	.loc	1 84 0
	.cfi_startproc
.Lxtalabel20:
	get r11, ed
	mov r0, r11
	.loc	1 84 0 prologue_end
.Ltmp111:
	get r11, id
	.loc	1 84 0
	ldaw r1, dp[__timers]
	.loc	1 84 0
	ldw r1, r1[r11]
	.loc	1 84 0
.Ltmp112:
.Lxta.endpoint_labels17:
	in r1, res[r1]
.Ltmp113:
	.loc	1 87 17
	ldw r2, r0[5]
	.loc	1 89 51
	ldw r1, r0[4]
	.loc	1 89 51
	outct res[r1], 1
	.loc	1 89 51
	chkct res[r1], 1
	.loc	1 87 17
	bf r2, .LBB17_1
.Lxtalabel21:
	ldc r2, 0
	bu .LBB17_2
.LBB17_1:
.Lxtalabel22:
	mkmsk r2, 1
.LBB17_2:
.Lxtalabel23:
	.loc	1 89 51
.Lxta.endpoint_labels18:
	out res[r1], r2
	.loc	1 89 51
	outct res[r1], 1
	.loc	1 89 51
	chkct res[r1], 1
	mkmsk r1, 1
	.loc	1 96 0
	stw r1, r0[6]
	retsp 0
	# RETURN_REG_HOLDER
.Ltmp114:
	.cc_bottom inp_button_task.select.case.1.function
	.set	inp_button_task.select.case.1.nstackwords,0
	.set	inp_button_task.select.case.1.maxcores,1
	.set	inp_button_task.select.case.1.maxtimers,0
	.set	inp_button_task.select.case.1.maxchanends,0
.Ltmp115:
	.size	inp_button_task.select.case.1, .Ltmp115-inp_button_task.select.case.1
.Lfunc_end17:
	.cfi_endproc

	.section	.cp.rodata,"ac",@progbits
	.cc_top .str.data,.str
	.align	4
	.type	.str,@object
	.size	.str, 29
.str:
.asciiz"inP_Button_Task[%u] started\n"
	.cc_bottom .str.data
	.cc_top .str1.data,.str1
	.align	4
	.type	.str1,@object
	.size	.str1, 29
.str1:
.asciiz"inP_Button_Task[%u] started\n"
	.cc_bottom .str1.data
	.text
.Ldebug_end0:
	.file	3 "/Applications/XMOS_xTIMEcomposer_Community_14.2.3/target/include/timer.h"
	.section	.xtacalltable,"",@progbits
.Lentries_start0:
	.long	.Lentries_end1-.Lentries_start0
	.long	0
	.ascii	"/Users/teig/workspace/_Aquarium_1_x/.build"
	.byte	0
.cc_top cc_0,.Lxta.call_labels0
	.ascii	"../src/button_press.xc"
	.byte	0
	.long	61
	.long	.Lxta.call_labels0
.cc_bottom cc_0
.cc_top cc_1,.Lxta.call_labels1
	.ascii	"../src/button_press.xc"
	.byte	0
	.long	61
	.long	.Lxta.call_labels1
.cc_bottom cc_1
.Lentries_end1:
	.section	.xtaendpointtable,"",@progbits
.Lentries_start2:
	.long	.Lentries_end3-.Lentries_start2
	.long	0
	.ascii	"/Users/teig/workspace/_Aquarium_1_x/.build"
	.byte	0
.cc_top cc_2,.Lxta.endpoint_labels5
	.ascii	"../src/button_press.xc"
	.byte	0
	.long	40
	.long	.Lxta.endpoint_labels5
.cc_bottom cc_2
.cc_top cc_3,.Lxta.endpoint_labels7
	.ascii	"../src/button_press.xc"
	.byte	0
	.long	41
	.long	.Lxta.endpoint_labels7
.cc_bottom cc_3
.cc_top cc_4,.Lxta.endpoint_labels9
	.ascii	"../src/button_press.xc"
	.byte	0
	.long	41
	.long	.Lxta.endpoint_labels9
.cc_bottom cc_4
.cc_top cc_5,.Lxta.endpoint_labels8
	.ascii	"../src/button_press.xc"
	.byte	0
	.long	46
	.long	.Lxta.endpoint_labels8
.cc_bottom cc_5
.cc_top cc_6,.Lxta.endpoint_labels10
	.ascii	"../src/button_press.xc"
	.byte	0
	.long	46
	.long	.Lxta.endpoint_labels10
.cc_bottom cc_6
.cc_top cc_7,.Lxta.endpoint_labels6
	.ascii	"../src/button_press.xc"
	.byte	0
	.long	46
	.long	.Lxta.endpoint_labels6
.cc_bottom cc_7
.cc_top cc_8,.Lxta.endpoint_labels3
	.ascii	"../src/button_press.xc"
	.byte	0
	.long	64
	.long	.Lxta.endpoint_labels3
.cc_bottom cc_8
.cc_top cc_9,.Lxta.endpoint_labels1
	.ascii	"../src/button_press.xc"
	.byte	0
	.long	64
	.long	.Lxta.endpoint_labels1
.cc_bottom cc_9
.cc_top cc_10,.Lxta.endpoint_labels15
	.ascii	"../src/button_press.xc"
	.byte	0
	.long	66
	.long	.Lxta.endpoint_labels15
.cc_bottom cc_10
.cc_top cc_11,.Lxta.endpoint_labels11
	.ascii	"../src/button_press.xc"
	.byte	0
	.long	66
	.long	.Lxta.endpoint_labels11
.cc_bottom cc_11
.cc_top cc_12,.Lxta.endpoint_labels16
	.ascii	"../src/button_press.xc"
	.byte	0
	.long	76
	.long	.Lxta.endpoint_labels16
.cc_bottom cc_12
.cc_top cc_13,.Lxta.endpoint_labels12
	.ascii	"../src/button_press.xc"
	.byte	0
	.long	76
	.long	.Lxta.endpoint_labels12
.cc_bottom cc_13
.cc_top cc_14,.Lxta.endpoint_labels2
	.ascii	"../src/button_press.xc"
	.byte	0
	.long	76
	.long	.Lxta.endpoint_labels2
.cc_bottom cc_14
.cc_top cc_15,.Lxta.endpoint_labels17
	.ascii	"../src/button_press.xc"
	.byte	0
	.long	84
	.long	.Lxta.endpoint_labels17
.cc_bottom cc_15
.cc_top cc_16,.Lxta.endpoint_labels13
	.ascii	"../src/button_press.xc"
	.byte	0
	.long	84
	.long	.Lxta.endpoint_labels13
.cc_bottom cc_16
.cc_top cc_17,.Lxta.endpoint_labels14
	.ascii	"../src/button_press.xc"
	.byte	0
	.long	89
	.long	.Lxta.endpoint_labels14
.cc_bottom cc_17
.cc_top cc_18,.Lxta.endpoint_labels0
	.ascii	"../src/button_press.xc"
	.byte	0
	.long	89
	.long	.Lxta.endpoint_labels0
.cc_bottom cc_18
.cc_top cc_19,.Lxta.endpoint_labels18
	.ascii	"../src/button_press.xc"
	.byte	0
	.long	89
	.long	.Lxta.endpoint_labels18
.cc_bottom cc_19
.cc_top cc_20,.Lxta.endpoint_labels4
	.ascii	"../src/button_press.xc"
	.byte	0
	.long	93
	.long	.Lxta.endpoint_labels4
.cc_bottom cc_20
.Lentries_end3:
	.section	.xtalabeltable,"",@progbits
.Lentries_start4:
	.long	.Lentries_end5-.Lentries_start4
	.long	0
	.ascii	"/Users/teig/workspace/_Aquarium_1_x/.build"
	.byte	0
.cc_top cc_21,.Lxtalabel11
	.ascii	"../src/button_press.xc"
	.byte	0
	.long	36
	.long	37
	.long	.Lxtalabel11
.cc_bottom cc_21
.cc_top cc_22,.Lxtalabel8
	.ascii	"../src/button_press.xc"
	.byte	0
	.long	36
	.long	37
	.long	.Lxtalabel8
.cc_bottom cc_22
.cc_top cc_23,.Lxtalabel8
	.ascii	"../src/button_press.xc"
	.byte	0
	.long	39
	.long	39
	.long	.Lxtalabel8
.cc_bottom cc_23
.cc_top cc_24,.Lxtalabel11
	.ascii	"../src/button_press.xc"
	.byte	0
	.long	39
	.long	39
	.long	.Lxtalabel11
.cc_bottom cc_24
.cc_top cc_25,.Lxtalabel10
	.ascii	"../src/button_press.xc"
	.byte	0
	.long	40
	.long	41
	.long	.Lxtalabel10
.cc_bottom cc_25
.cc_top cc_26,.Lxtalabel13
	.ascii	"../src/button_press.xc"
	.byte	0
	.long	43
	.long	44
	.long	.Lxtalabel13
.cc_bottom cc_26
.cc_top cc_27,.Lxtalabel9
	.ascii	"../src/button_press.xc"
	.byte	0
	.long	43
	.long	44
	.long	.Lxtalabel9
.cc_bottom cc_27
.cc_top cc_28,.Lxtalabel12
	.ascii	"../src/button_press.xc"
	.byte	0
	.long	43
	.long	44
	.long	.Lxtalabel12
.cc_bottom cc_28
.cc_top cc_29,.Lxtalabel13
	.ascii	"../src/button_press.xc"
	.byte	0
	.long	46
	.long	48
	.long	.Lxtalabel13
.cc_bottom cc_29
.cc_top cc_30,.Lxtalabel9
	.ascii	"../src/button_press.xc"
	.byte	0
	.long	46
	.long	48
	.long	.Lxtalabel9
.cc_bottom cc_30
.cc_top cc_31,.Lxtalabel12
	.ascii	"../src/button_press.xc"
	.byte	0
	.long	46
	.long	48
	.long	.Lxtalabel12
.cc_bottom cc_31
.cc_top cc_32,.Lxtalabel0
	.ascii	"../src/button_press.xc"
	.byte	0
	.long	55
	.long	59
	.long	.Lxtalabel0
.cc_bottom cc_32
.cc_top cc_33,.Lxtalabel7
	.ascii	"../src/button_press.xc"
	.byte	0
	.long	55
	.long	59
	.long	.Lxtalabel7
.cc_bottom cc_33
.cc_top cc_34,.Lxtalabel7
	.ascii	"../src/button_press.xc"
	.byte	0
	.long	61
	.long	61
	.long	.Lxtalabel7
.cc_bottom cc_34
.cc_top cc_35,.Lxtalabel0
	.ascii	"../src/button_press.xc"
	.byte	0
	.long	61
	.long	61
	.long	.Lxtalabel0
.cc_bottom cc_35
.cc_top cc_36,.Lxtalabel0
	.ascii	"../src/button_press.xc"
	.byte	0
	.long	63
	.long	63
	.long	.Lxtalabel0
.cc_bottom cc_36
.cc_top cc_37,.Lxtalabel7
	.ascii	"../src/button_press.xc"
	.byte	0
	.long	63
	.long	63
	.long	.Lxtalabel7
.cc_bottom cc_37
.cc_top cc_38,.Lxtalabel4
	.ascii	"../src/button_press.xc"
	.byte	0
	.long	64
	.long	64
	.long	.Lxtalabel4
.cc_bottom cc_38
.cc_top cc_39,.Lxtalabel2
	.ascii	"../src/button_press.xc"
	.byte	0
	.long	64
	.long	64
	.long	.Lxtalabel2
.cc_bottom cc_39
.cc_top cc_40,.Lxtalabel4
	.ascii	"../src/button_press.xc"
	.byte	0
	.long	66
	.long	66
	.long	.Lxtalabel4
.cc_bottom cc_40
.cc_top cc_41,.Lxtalabel2
	.ascii	"../src/button_press.xc"
	.byte	0
	.long	66
	.long	66
	.long	.Lxtalabel2
.cc_bottom cc_41
.cc_top cc_42,.Lxtalabel14
	.ascii	"../src/button_press.xc"
	.byte	0
	.long	67
	.long	68
	.long	.Lxtalabel14
.cc_bottom cc_42
.cc_top cc_43,.Lxtalabel19
	.ascii	"../src/button_press.xc"
	.byte	0
	.long	67
	.long	68
	.long	.Lxtalabel19
.cc_bottom cc_43
.cc_top cc_44,.Lxtalabel3
	.ascii	"../src/button_press.xc"
	.byte	0
	.long	67
	.long	68
	.long	.Lxtalabel3
.cc_bottom cc_44
.cc_top cc_45,.Lxtalabel14
	.ascii	"../src/button_press.xc"
	.byte	0
	.long	70
	.long	70
	.long	.Lxtalabel14
.cc_bottom cc_45
.cc_top cc_46,.Lxtalabel19
	.ascii	"../src/button_press.xc"
	.byte	0
	.long	70
	.long	70
	.long	.Lxtalabel19
.cc_bottom cc_46
.cc_top cc_47,.Lxtalabel14
	.ascii	"../src/button_press.xc"
	.byte	0
	.long	71
	.long	71
	.long	.Lxtalabel14
.cc_bottom cc_47
.cc_top cc_48,.Lxtalabel19
	.ascii	"../src/button_press.xc"
	.byte	0
	.long	71
	.long	71
	.long	.Lxtalabel19
.cc_bottom cc_48
.cc_top cc_49,.Lxtalabel14
	.ascii	"../src/button_press.xc"
	.byte	0
	.long	73
	.long	73
	.long	.Lxtalabel14
.cc_bottom cc_49
.cc_top cc_50,.Lxtalabel19
	.ascii	"../src/button_press.xc"
	.byte	0
	.long	73
	.long	73
	.long	.Lxtalabel19
.cc_bottom cc_50
.cc_top cc_51,.Lxtalabel14
	.ascii	"../src/button_press.xc"
	.byte	0
	.long	74
	.long	76
	.long	.Lxtalabel14
.cc_bottom cc_51
.cc_top cc_52,.Lxtalabel19
	.ascii	"../src/button_press.xc"
	.byte	0
	.long	74
	.long	76
	.long	.Lxtalabel19
.cc_bottom cc_52
.cc_top cc_53,.Lxtalabel3
	.ascii	"../src/button_press.xc"
	.byte	0
	.long	74
	.long	76
	.long	.Lxtalabel3
.cc_bottom cc_53
.cc_top cc_54,.Lxtalabel3
	.ascii	"../src/button_press.xc"
	.byte	0
	.long	79
	.long	79
	.long	.Lxtalabel3
.cc_bottom cc_54
.cc_top cc_55,.Lxtalabel19
	.ascii	"../src/button_press.xc"
	.byte	0
	.long	79
	.long	79
	.long	.Lxtalabel19
.cc_bottom cc_55
.cc_top cc_56,.Lxtalabel14
	.ascii	"../src/button_press.xc"
	.byte	0
	.long	79
	.long	79
	.long	.Lxtalabel14
.cc_bottom cc_56
.cc_top cc_57,.Lxtalabel3
	.ascii	"../src/button_press.xc"
	.byte	0
	.long	82
	.long	84
	.long	.Lxtalabel3
.cc_bottom cc_57
.cc_top cc_58,.Lxtalabel19
	.ascii	"../src/button_press.xc"
	.byte	0
	.long	82
	.long	84
	.long	.Lxtalabel19
.cc_bottom cc_58
.cc_top cc_59,.Lxtalabel14
	.ascii	"../src/button_press.xc"
	.byte	0
	.long	82
	.long	84
	.long	.Lxtalabel14
.cc_bottom cc_59
.cc_top cc_60,.Lxtalabel5
	.ascii	"../src/button_press.xc"
	.byte	0
	.long	85
	.long	85
	.long	.Lxtalabel5
.cc_bottom cc_60
.cc_top cc_61,.Lxtalabel20
	.ascii	"../src/button_press.xc"
	.byte	0
	.long	85
	.long	85
	.long	.Lxtalabel20
.cc_bottom cc_61
.cc_top cc_62,.Lxtalabel15
	.ascii	"../src/button_press.xc"
	.byte	0
	.long	85
	.long	85
	.long	.Lxtalabel15
.cc_bottom cc_62
.cc_top cc_63,.Lxtalabel15
	.ascii	"../src/button_press.xc"
	.byte	0
	.long	87
	.long	87
	.long	.Lxtalabel15
.cc_bottom cc_63
.cc_top cc_64,.Lxtalabel20
	.ascii	"../src/button_press.xc"
	.byte	0
	.long	87
	.long	87
	.long	.Lxtalabel20
.cc_bottom cc_64
.cc_top cc_65,.Lxtalabel5
	.ascii	"../src/button_press.xc"
	.byte	0
	.long	87
	.long	87
	.long	.Lxtalabel5
.cc_bottom cc_65
.cc_top cc_66,.Lxtalabel17
	.ascii	"../src/button_press.xc"
	.byte	0
	.long	89
	.long	89
	.long	.Lxtalabel17
.cc_bottom cc_66
.cc_top cc_67,.Lxtalabel1
	.ascii	"../src/button_press.xc"
	.byte	0
	.long	89
	.long	89
	.long	.Lxtalabel1
.cc_bottom cc_67
.cc_top cc_68,.Lxtalabel22
	.ascii	"../src/button_press.xc"
	.byte	0
	.long	89
	.long	89
	.long	.Lxtalabel22
.cc_bottom cc_68
.cc_top cc_69,.Lxtalabel17
	.ascii	"../src/button_press.xc"
	.byte	0
	.long	91
	.long	91
	.long	.Lxtalabel17
.cc_bottom cc_69
.cc_top cc_70,.Lxtalabel1
	.ascii	"../src/button_press.xc"
	.byte	0
	.long	91
	.long	91
	.long	.Lxtalabel1
.cc_bottom cc_70
.cc_top cc_71,.Lxtalabel22
	.ascii	"../src/button_press.xc"
	.byte	0
	.long	91
	.long	91
	.long	.Lxtalabel22
.cc_bottom cc_71
.cc_top cc_72,.Lxtalabel21
	.ascii	"../src/button_press.xc"
	.byte	0
	.long	92
	.long	93
	.long	.Lxtalabel21
.cc_bottom cc_72
.cc_top cc_73,.Lxtalabel16
	.ascii	"../src/button_press.xc"
	.byte	0
	.long	92
	.long	93
	.long	.Lxtalabel16
.cc_bottom cc_73
.cc_top cc_74,.Lxtalabel6
	.ascii	"../src/button_press.xc"
	.byte	0
	.long	92
	.long	93
	.long	.Lxtalabel6
.cc_bottom cc_74
.cc_top cc_75,.Lxtalabel6
	.ascii	"../src/button_press.xc"
	.byte	0
	.long	95
	.long	95
	.long	.Lxtalabel6
.cc_bottom cc_75
.cc_top cc_76,.Lxtalabel21
	.ascii	"../src/button_press.xc"
	.byte	0
	.long	95
	.long	95
	.long	.Lxtalabel21
.cc_bottom cc_76
.cc_top cc_77,.Lxtalabel16
	.ascii	"../src/button_press.xc"
	.byte	0
	.long	95
	.long	95
	.long	.Lxtalabel16
.cc_bottom cc_77
.cc_top cc_78,.Lxtalabel18
	.ascii	"../src/button_press.xc"
	.byte	0
	.long	96
	.long	99
	.long	.Lxtalabel18
.cc_bottom cc_78
.cc_top cc_79,.Lxtalabel23
	.ascii	"../src/button_press.xc"
	.byte	0
	.long	96
	.long	99
	.long	.Lxtalabel23
.cc_bottom cc_79
.Lentries_end5:
	.section	.trap_info,"",@progbits
.Ltrap_info_entries_start0:
	.long	.Ltrap_info_entries_end0-.Ltrap_info_entries_start0
	.long	1
.Ltrap_info_entries_end0: