	.text
	.file	"../src/chronodot_ds3231_controller.xc"

	.inline_definition delay_seconds
	.inline_definition delay_milliseconds
	.inline_definition delay_microseconds
	.set chronodot_ds3231_controller.select.0.enable.savedstate,17
	.globl chronodot_ds3231_controller.select.0.enable.savedstate
	.set chronodot_ds3231_controller.select.0.enable.cases.maxtimers,0 $M chronodot_ds3231_controller.select.0.case.0.maxtimers
	.globl chronodot_ds3231_controller.select.0.enable.cases.maxtimers
	.set chronodot_ds3231_controller.select.0.enable.cases.maxcores,0 $M chronodot_ds3231_controller.select.0.case.0.maxcores
	.globl chronodot_ds3231_controller.select.0.enable.cases.maxcores
	.set chronodot_ds3231_controller.select.0.enable.cases.maxchanends,0 $M chronodot_ds3231_controller.select.0.case.0.maxchanends
	.globl chronodot_ds3231_controller.select.0.enable.cases.maxchanends
	.set chronodot_ds3231_controller.select.0.enable.cases,0
	.globl chronodot_ds3231_controller.select.0.enable.cases
	.set chronodot_ds3231_controller.select.0.enable.cases.nstackwords, 0 $M (chronodot_ds3231_controller.select.0.case.0.nstackwords)
	.globl chronodot_ds3231_controller.select.0.enable.cases.nstackwords
	.set chronodot_ds3231_controller.dynalloc_maxchanends, 0
	.globl chronodot_ds3231_controller.dynalloc_maxchanends
	.set chronodot_ds3231_controller.dynalloc_maxcores, 0
	.globl chronodot_ds3231_controller.dynalloc_maxcores
	.set chronodot_ds3231_controller.dynalloc_maxtimers, 0
	.globl chronodot_ds3231_controller.dynalloc_maxtimers
	.set chronodot_ds3231_controller.init.0.savedstate,17
	.globl chronodot_ds3231_controller.init.0.savedstate
	.set chronodot_ds3231_controller.select.y.enable.savedstate,17
	.globl chronodot_ds3231_controller.select.y.enable.savedstate
	.set chronodot_ds3231_controller.select.y.enable.cases.maxtimers,0 $M chronodot_ds3231_controller.select.y.case.1.maxtimers $M chronodot_ds3231_controller.select.y.case.0.maxtimers
	.globl chronodot_ds3231_controller.select.y.enable.cases.maxtimers
	.set chronodot_ds3231_controller.select.y.enable.cases.maxcores,0 $M chronodot_ds3231_controller.select.y.case.1.maxcores $M chronodot_ds3231_controller.select.y.case.0.maxcores
	.globl chronodot_ds3231_controller.select.y.enable.cases.maxcores
	.set chronodot_ds3231_controller.select.y.enable.cases.maxchanends,0 $M chronodot_ds3231_controller.select.y.case.1.maxchanends $M chronodot_ds3231_controller.select.y.case.0.maxchanends
	.globl chronodot_ds3231_controller.select.y.enable.cases.maxchanends
	.set chronodot_ds3231_controller.select.y.enable.cases,0
	.globl chronodot_ds3231_controller.select.y.enable.cases
	.set chronodot_ds3231_controller.select.y.enable.cases.nstackwords, 0 $M (chronodot_ds3231_controller.select.y.case.1.nstackwords) $M (chronodot_ds3231_controller.select.y.case.0.nstackwords)
	.globl chronodot_ds3231_controller.select.y.enable.cases.nstackwords
	.set chronodot_ds3231_controller.select.enable.savedstate,17
	.globl chronodot_ds3231_controller.select.enable.savedstate
	.set chronodot_ds3231_controller.select.enable.cases.maxtimers,0 $M chronodot_ds3231_controller.select.case.1.maxtimers $M chronodot_ds3231_controller.select.case.0.maxtimers
	.globl chronodot_ds3231_controller.select.enable.cases.maxtimers
	.set chronodot_ds3231_controller.select.enable.cases.maxcores,0 $M chronodot_ds3231_controller.select.case.1.maxcores $M chronodot_ds3231_controller.select.case.0.maxcores
	.globl chronodot_ds3231_controller.select.enable.cases.maxcores
	.set chronodot_ds3231_controller.select.enable.cases.maxchanends,0 $M chronodot_ds3231_controller.select.case.1.maxchanends $M chronodot_ds3231_controller.select.case.0.maxchanends
	.globl chronodot_ds3231_controller.select.enable.cases.maxchanends
	.set chronodot_ds3231_controller.select.enable.cases,0
	.globl chronodot_ds3231_controller.select.enable.cases
	.set chronodot_ds3231_controller.select.enable.cases.nstackwords, 0 $M (chronodot_ds3231_controller.select.case.1.nstackwords) $M (chronodot_ds3231_controller.select.case.0.nstackwords)
	.globl chronodot_ds3231_controller.select.enable.cases.nstackwords
	.weak _i.chronodot_ds3231_if.get_time_ok.maxchanends.group
	.max_reduce _i.chronodot_ds3231_if.get_time_ok.max.maxchanends, _i.chronodot_ds3231_if.get_time_ok.maxchanends.group, 0
	.weak _i.chronodot_ds3231_if.get_time_ok.maxcores.group
	.max_reduce _i.chronodot_ds3231_if.get_time_ok.max.maxcores, _i.chronodot_ds3231_if.get_time_ok.maxcores.group, 0
	.weak _i.chronodot_ds3231_if.get_time_ok.maxtimers.group
	.max_reduce _i.chronodot_ds3231_if.get_time_ok.max.maxtimers, _i.chronodot_ds3231_if.get_time_ok.maxtimers.group, 0
	.weak _i.chronodot_ds3231_if.get_time_ok.nstackwords.group
	.globl _i.chronodot_ds3231_if.get_time_ok.nstackwords.group
	.weak _i.chronodot_ds3231_if.get_time_ok.fns.group
	.globl _i.chronodot_ds3231_if.get_time_ok.fns.group
	.max_reduce _i.chronodot_ds3231_if.get_time_ok.max.nstackwords, _i.chronodot_ds3231_if.get_time_ok.nstackwords.group, 0
	.max_reduce _i.chronodot_ds3231_if.get_time_ok.fns, _i.chronodot_ds3231_if.get_time_ok.fns.group, 0
	.weak _i.chronodot_ds3231_if.set_time_ok.maxchanends.group
	.max_reduce _i.chronodot_ds3231_if.set_time_ok.max.maxchanends, _i.chronodot_ds3231_if.set_time_ok.maxchanends.group, 0
	.weak _i.chronodot_ds3231_if.set_time_ok.maxcores.group
	.max_reduce _i.chronodot_ds3231_if.set_time_ok.max.maxcores, _i.chronodot_ds3231_if.set_time_ok.maxcores.group, 0
	.weak _i.chronodot_ds3231_if.set_time_ok.maxtimers.group
	.max_reduce _i.chronodot_ds3231_if.set_time_ok.max.maxtimers, _i.chronodot_ds3231_if.set_time_ok.maxtimers.group, 0
	.weak _i.chronodot_ds3231_if.set_time_ok.nstackwords.group
	.globl _i.chronodot_ds3231_if.set_time_ok.nstackwords.group
	.weak _i.chronodot_ds3231_if.set_time_ok.fns.group
	.globl _i.chronodot_ds3231_if.set_time_ok.fns.group
	.max_reduce _i.chronodot_ds3231_if.set_time_ok.max.nstackwords, _i.chronodot_ds3231_if.set_time_ok.nstackwords.group, 0
	.max_reduce _i.chronodot_ds3231_if.set_time_ok.fns, _i.chronodot_ds3231_if.set_time_ok.fns.group, 0
	.weak _i.chronodot_ds3231_if.__interface_init.maxchanends.group
	.max_reduce _i.chronodot_ds3231_if.__interface_init.max.maxchanends, _i.chronodot_ds3231_if.__interface_init.maxchanends.group, 0
	.weak _i.chronodot_ds3231_if.__interface_init.maxcores.group
	.max_reduce _i.chronodot_ds3231_if.__interface_init.max.maxcores, _i.chronodot_ds3231_if.__interface_init.maxcores.group, 0
	.weak _i.chronodot_ds3231_if.__interface_init.maxtimers.group
	.max_reduce _i.chronodot_ds3231_if.__interface_init.max.maxtimers, _i.chronodot_ds3231_if.__interface_init.maxtimers.group, 0
	.weak _i.chronodot_ds3231_if.__interface_init.nstackwords.group
	.globl _i.chronodot_ds3231_if.__interface_init.nstackwords.group
	.weak _i.chronodot_ds3231_if.__interface_init.fns.group
	.globl _i.chronodot_ds3231_if.__interface_init.fns.group
	.max_reduce _i.chronodot_ds3231_if.__interface_init.max.nstackwords, _i.chronodot_ds3231_if.__interface_init.nstackwords.group, 0
	.max_reduce _i.chronodot_ds3231_if.__interface_init.fns, _i.chronodot_ds3231_if.__interface_init.fns.group, 0
	.weak _i.chronodot_ds3231_if._client_call_y.maxchanends.group
	.add_to_set _i.chronodot_ds3231_if._client_call_y.maxchanends.group, (__interface_client_call_y_other.maxchanends + __interface_client_call_y_extra.maxchanends), __interface_client_call_y_other
	.max_reduce _i.chronodot_ds3231_if._client_call_y.max.maxchanends, _i.chronodot_ds3231_if._client_call_y.maxchanends.group, 0
	.weak _i.chronodot_ds3231_if._client_call_y.maxcores.group
	.add_to_set _i.chronodot_ds3231_if._client_call_y.maxcores.group, (__interface_client_call_y_other.maxcores + __interface_client_call_y_extra.maxcores), __interface_client_call_y_other
	.max_reduce _i.chronodot_ds3231_if._client_call_y.max.maxcores, _i.chronodot_ds3231_if._client_call_y.maxcores.group, 0
	.weak _i.chronodot_ds3231_if._client_call_y.maxtimers.group
	.add_to_set _i.chronodot_ds3231_if._client_call_y.maxtimers.group, (__interface_client_call_y_other.maxtimers + __interface_client_call_y_extra.maxtimers), __interface_client_call_y_other
	.max_reduce _i.chronodot_ds3231_if._client_call_y.max.maxtimers, _i.chronodot_ds3231_if._client_call_y.maxtimers.group, 0
	.weak _i.chronodot_ds3231_if._client_call_y.nstackwords.group
	.globl _i.chronodot_ds3231_if._client_call_y.nstackwords.group
	.weak _i.chronodot_ds3231_if._client_call_y.fns.group
	.globl _i.chronodot_ds3231_if._client_call_y.fns.group
	.add_to_set _i.chronodot_ds3231_if._client_call_y.nstackwords.group, (__interface_client_call_y_other.nstackwords + __interface_client_call_y_extra.nstackwords), __interface_client_call_y_other
	.add_to_set _i.chronodot_ds3231_if._client_call_y.fns.group, __interface_client_call_y_other
	.max_reduce _i.chronodot_ds3231_if._client_call_y.max.nstackwords, _i.chronodot_ds3231_if._client_call_y.nstackwords.group, 0
	.max_reduce _i.chronodot_ds3231_if._client_call_y.fns, _i.chronodot_ds3231_if._client_call_y.fns.group, 0
	.weak _i.temperature_water_commands_if.get_temp_degC_string_filtered.maxchanends.group
	.max_reduce _i.temperature_water_commands_if.get_temp_degC_string_filtered.max.maxchanends, _i.temperature_water_commands_if.get_temp_degC_string_filtered.maxchanends.group, 0
	.weak _i.temperature_water_commands_if.get_temp_degC_string_filtered.maxcores.group
	.max_reduce _i.temperature_water_commands_if.get_temp_degC_string_filtered.max.maxcores, _i.temperature_water_commands_if.get_temp_degC_string_filtered.maxcores.group, 0
	.weak _i.temperature_water_commands_if.get_temp_degC_string_filtered.maxtimers.group
	.max_reduce _i.temperature_water_commands_if.get_temp_degC_string_filtered.max.maxtimers, _i.temperature_water_commands_if.get_temp_degC_string_filtered.maxtimers.group, 0
	.weak _i.temperature_water_commands_if.get_temp_degC_string_filtered.nstackwords.group
	.globl _i.temperature_water_commands_if.get_temp_degC_string_filtered.nstackwords.group
	.weak _i.temperature_water_commands_if.get_temp_degC_string_filtered.fns.group
	.globl _i.temperature_water_commands_if.get_temp_degC_string_filtered.fns.group
	.max_reduce _i.temperature_water_commands_if.get_temp_degC_string_filtered.max.nstackwords, _i.temperature_water_commands_if.get_temp_degC_string_filtered.nstackwords.group, 0
	.max_reduce _i.temperature_water_commands_if.get_temp_degC_string_filtered.fns, _i.temperature_water_commands_if.get_temp_degC_string_filtered.fns.group, 0
	.weak _i.temperature_water_commands_if.get_now_regulating_at.maxchanends.group
	.max_reduce _i.temperature_water_commands_if.get_now_regulating_at.max.maxchanends, _i.temperature_water_commands_if.get_now_regulating_at.maxchanends.group, 0
	.weak _i.temperature_water_commands_if.get_now_regulating_at.maxcores.group
	.max_reduce _i.temperature_water_commands_if.get_now_regulating_at.max.maxcores, _i.temperature_water_commands_if.get_now_regulating_at.maxcores.group, 0
	.weak _i.temperature_water_commands_if.get_now_regulating_at.maxtimers.group
	.max_reduce _i.temperature_water_commands_if.get_now_regulating_at.max.maxtimers, _i.temperature_water_commands_if.get_now_regulating_at.maxtimers.group, 0
	.weak _i.temperature_water_commands_if.get_now_regulating_at.nstackwords.group
	.globl _i.temperature_water_commands_if.get_now_regulating_at.nstackwords.group
	.weak _i.temperature_water_commands_if.get_now_regulating_at.fns.group
	.globl _i.temperature_water_commands_if.get_now_regulating_at.fns.group
	.max_reduce _i.temperature_water_commands_if.get_now_regulating_at.max.nstackwords, _i.temperature_water_commands_if.get_now_regulating_at.nstackwords.group, 0
	.max_reduce _i.temperature_water_commands_if.get_now_regulating_at.fns, _i.temperature_water_commands_if.get_now_regulating_at.fns.group, 0
	.weak _i.temperature_water_commands_if.__interface_init.maxchanends.group
	.max_reduce _i.temperature_water_commands_if.__interface_init.max.maxchanends, _i.temperature_water_commands_if.__interface_init.maxchanends.group, 0
	.weak _i.temperature_water_commands_if.__interface_init.maxcores.group
	.max_reduce _i.temperature_water_commands_if.__interface_init.max.maxcores, _i.temperature_water_commands_if.__interface_init.maxcores.group, 0
	.weak _i.temperature_water_commands_if.__interface_init.maxtimers.group
	.max_reduce _i.temperature_water_commands_if.__interface_init.max.maxtimers, _i.temperature_water_commands_if.__interface_init.maxtimers.group, 0
	.weak _i.temperature_water_commands_if.__interface_init.nstackwords.group
	.globl _i.temperature_water_commands_if.__interface_init.nstackwords.group
	.weak _i.temperature_water_commands_if.__interface_init.fns.group
	.globl _i.temperature_water_commands_if.__interface_init.fns.group
	.max_reduce _i.temperature_water_commands_if.__interface_init.max.nstackwords, _i.temperature_water_commands_if.__interface_init.nstackwords.group, 0
	.max_reduce _i.temperature_water_commands_if.__interface_init.fns, _i.temperature_water_commands_if.__interface_init.fns.group, 0
	.weak _i.temperature_water_commands_if._client_call_y.maxchanends.group
	.add_to_set _i.temperature_water_commands_if._client_call_y.maxchanends.group, (__interface_client_call_y_other.maxchanends + __interface_client_call_y_extra.maxchanends), __interface_client_call_y_other
	.max_reduce _i.temperature_water_commands_if._client_call_y.max.maxchanends, _i.temperature_water_commands_if._client_call_y.maxchanends.group, 0
	.weak _i.temperature_water_commands_if._client_call_y.maxcores.group
	.add_to_set _i.temperature_water_commands_if._client_call_y.maxcores.group, (__interface_client_call_y_other.maxcores + __interface_client_call_y_extra.maxcores), __interface_client_call_y_other
	.max_reduce _i.temperature_water_commands_if._client_call_y.max.maxcores, _i.temperature_water_commands_if._client_call_y.maxcores.group, 0
	.weak _i.temperature_water_commands_if._client_call_y.maxtimers.group
	.add_to_set _i.temperature_water_commands_if._client_call_y.maxtimers.group, (__interface_client_call_y_other.maxtimers + __interface_client_call_y_extra.maxtimers), __interface_client_call_y_other
	.max_reduce _i.temperature_water_commands_if._client_call_y.max.maxtimers, _i.temperature_water_commands_if._client_call_y.maxtimers.group, 0
	.weak _i.temperature_water_commands_if._client_call_y.nstackwords.group
	.globl _i.temperature_water_commands_if._client_call_y.nstackwords.group
	.weak _i.temperature_water_commands_if._client_call_y.fns.group
	.globl _i.temperature_water_commands_if._client_call_y.fns.group
	.add_to_set _i.temperature_water_commands_if._client_call_y.nstackwords.group, (__interface_client_call_y_other.nstackwords + __interface_client_call_y_extra.nstackwords), __interface_client_call_y_other
	.add_to_set _i.temperature_water_commands_if._client_call_y.fns.group, __interface_client_call_y_other
	.max_reduce _i.temperature_water_commands_if._client_call_y.max.nstackwords, _i.temperature_water_commands_if._client_call_y.nstackwords.group, 0
	.max_reduce _i.temperature_water_commands_if._client_call_y.fns, _i.temperature_water_commands_if._client_call_y.fns.group, 0
	.weak _i.temperature_heater_commands_if.heater_set_proportional.maxchanends.group
	.max_reduce _i.temperature_heater_commands_if.heater_set_proportional.max.maxchanends, _i.temperature_heater_commands_if.heater_set_proportional.maxchanends.group, 0
	.weak _i.temperature_heater_commands_if.heater_set_proportional.maxcores.group
	.max_reduce _i.temperature_heater_commands_if.heater_set_proportional.max.maxcores, _i.temperature_heater_commands_if.heater_set_proportional.maxcores.group, 0
	.weak _i.temperature_heater_commands_if.heater_set_proportional.maxtimers.group
	.max_reduce _i.temperature_heater_commands_if.heater_set_proportional.max.maxtimers, _i.temperature_heater_commands_if.heater_set_proportional.maxtimers.group, 0
	.weak _i.temperature_heater_commands_if.heater_set_proportional.nstackwords.group
	.globl _i.temperature_heater_commands_if.heater_set_proportional.nstackwords.group
	.weak _i.temperature_heater_commands_if.heater_set_proportional.fns.group
	.globl _i.temperature_heater_commands_if.heater_set_proportional.fns.group
	.max_reduce _i.temperature_heater_commands_if.heater_set_proportional.max.nstackwords, _i.temperature_heater_commands_if.heater_set_proportional.nstackwords.group, 0
	.max_reduce _i.temperature_heater_commands_if.heater_set_proportional.fns, _i.temperature_heater_commands_if.heater_set_proportional.fns.group, 0
	.weak _i.temperature_heater_commands_if.heater_set_temp_degC.maxchanends.group
	.max_reduce _i.temperature_heater_commands_if.heater_set_temp_degC.max.maxchanends, _i.temperature_heater_commands_if.heater_set_temp_degC.maxchanends.group, 0
	.weak _i.temperature_heater_commands_if.heater_set_temp_degC.maxcores.group
	.max_reduce _i.temperature_heater_commands_if.heater_set_temp_degC.max.maxcores, _i.temperature_heater_commands_if.heater_set_temp_degC.maxcores.group, 0
	.weak _i.temperature_heater_commands_if.heater_set_temp_degC.maxtimers.group
	.max_reduce _i.temperature_heater_commands_if.heater_set_temp_degC.max.maxtimers, _i.temperature_heater_commands_if.heater_set_temp_degC.maxtimers.group, 0
	.weak _i.temperature_heater_commands_if.heater_set_temp_degC.nstackwords.group
	.globl _i.temperature_heater_commands_if.heater_set_temp_degC.nstackwords.group
	.weak _i.temperature_heater_commands_if.heater_set_temp_degC.fns.group
	.globl _i.temperature_heater_commands_if.heater_set_temp_degC.fns.group
	.max_reduce _i.temperature_heater_commands_if.heater_set_temp_degC.max.nstackwords, _i.temperature_heater_commands_if.heater_set_temp_degC.nstackwords.group, 0
	.max_reduce _i.temperature_heater_commands_if.heater_set_temp_degC.fns, _i.temperature_heater_commands_if.heater_set_temp_degC.fns.group, 0
	.weak _i.temperature_heater_commands_if.get_temps.maxchanends.group
	.max_reduce _i.temperature_heater_commands_if.get_temps.max.maxchanends, _i.temperature_heater_commands_if.get_temps.maxchanends.group, 0
	.weak _i.temperature_heater_commands_if.get_temps.maxcores.group
	.max_reduce _i.temperature_heater_commands_if.get_temps.max.maxcores, _i.temperature_heater_commands_if.get_temps.maxcores.group, 0
	.weak _i.temperature_heater_commands_if.get_temps.maxtimers.group
	.max_reduce _i.temperature_heater_commands_if.get_temps.max.maxtimers, _i.temperature_heater_commands_if.get_temps.maxtimers.group, 0
	.weak _i.temperature_heater_commands_if.get_temps.nstackwords.group
	.globl _i.temperature_heater_commands_if.get_temps.nstackwords.group
	.weak _i.temperature_heater_commands_if.get_temps.fns.group
	.globl _i.temperature_heater_commands_if.get_temps.fns.group
	.max_reduce _i.temperature_heater_commands_if.get_temps.max.nstackwords, _i.temperature_heater_commands_if.get_temps.nstackwords.group, 0
	.max_reduce _i.temperature_heater_commands_if.get_temps.fns, _i.temperature_heater_commands_if.get_temps.fns.group, 0
	.weak _i.temperature_heater_commands_if.get_temp_degC_string.maxchanends.group
	.max_reduce _i.temperature_heater_commands_if.get_temp_degC_string.max.maxchanends, _i.temperature_heater_commands_if.get_temp_degC_string.maxchanends.group, 0
	.weak _i.temperature_heater_commands_if.get_temp_degC_string.maxcores.group
	.max_reduce _i.temperature_heater_commands_if.get_temp_degC_string.max.maxcores, _i.temperature_heater_commands_if.get_temp_degC_string.maxcores.group, 0
	.weak _i.temperature_heater_commands_if.get_temp_degC_string.maxtimers.group
	.max_reduce _i.temperature_heater_commands_if.get_temp_degC_string.max.maxtimers, _i.temperature_heater_commands_if.get_temp_degC_string.maxtimers.group, 0
	.weak _i.temperature_heater_commands_if.get_temp_degC_string.nstackwords.group
	.globl _i.temperature_heater_commands_if.get_temp_degC_string.nstackwords.group
	.weak _i.temperature_heater_commands_if.get_temp_degC_string.fns.group
	.globl _i.temperature_heater_commands_if.get_temp_degC_string.fns.group
	.max_reduce _i.temperature_heater_commands_if.get_temp_degC_string.max.nstackwords, _i.temperature_heater_commands_if.get_temp_degC_string.nstackwords.group, 0
	.max_reduce _i.temperature_heater_commands_if.get_temp_degC_string.fns, _i.temperature_heater_commands_if.get_temp_degC_string.fns.group, 0
	.weak _i.temperature_heater_commands_if.get_regulator_data.maxchanends.group
	.max_reduce _i.temperature_heater_commands_if.get_regulator_data.max.maxchanends, _i.temperature_heater_commands_if.get_regulator_data.maxchanends.group, 0
	.weak _i.temperature_heater_commands_if.get_regulator_data.maxcores.group
	.max_reduce _i.temperature_heater_commands_if.get_regulator_data.max.maxcores, _i.temperature_heater_commands_if.get_regulator_data.maxcores.group, 0
	.weak _i.temperature_heater_commands_if.get_regulator_data.maxtimers.group
	.max_reduce _i.temperature_heater_commands_if.get_regulator_data.max.maxtimers, _i.temperature_heater_commands_if.get_regulator_data.maxtimers.group, 0
	.weak _i.temperature_heater_commands_if.get_regulator_data.nstackwords.group
	.globl _i.temperature_heater_commands_if.get_regulator_data.nstackwords.group
	.weak _i.temperature_heater_commands_if.get_regulator_data.fns.group
	.globl _i.temperature_heater_commands_if.get_regulator_data.fns.group
	.max_reduce _i.temperature_heater_commands_if.get_regulator_data.max.nstackwords, _i.temperature_heater_commands_if.get_regulator_data.nstackwords.group, 0
	.max_reduce _i.temperature_heater_commands_if.get_regulator_data.fns, _i.temperature_heater_commands_if.get_regulator_data.fns.group, 0
	.weak _i.temperature_heater_commands_if.__interface_init.maxchanends.group
	.max_reduce _i.temperature_heater_commands_if.__interface_init.max.maxchanends, _i.temperature_heater_commands_if.__interface_init.maxchanends.group, 0
	.weak _i.temperature_heater_commands_if.__interface_init.maxcores.group
	.max_reduce _i.temperature_heater_commands_if.__interface_init.max.maxcores, _i.temperature_heater_commands_if.__interface_init.maxcores.group, 0
	.weak _i.temperature_heater_commands_if.__interface_init.maxtimers.group
	.max_reduce _i.temperature_heater_commands_if.__interface_init.max.maxtimers, _i.temperature_heater_commands_if.__interface_init.maxtimers.group, 0
	.weak _i.temperature_heater_commands_if.__interface_init.nstackwords.group
	.globl _i.temperature_heater_commands_if.__interface_init.nstackwords.group
	.weak _i.temperature_heater_commands_if.__interface_init.fns.group
	.globl _i.temperature_heater_commands_if.__interface_init.fns.group
	.max_reduce _i.temperature_heater_commands_if.__interface_init.max.nstackwords, _i.temperature_heater_commands_if.__interface_init.nstackwords.group, 0
	.max_reduce _i.temperature_heater_commands_if.__interface_init.fns, _i.temperature_heater_commands_if.__interface_init.fns.group, 0
	.weak _i.temperature_heater_commands_if._client_call_y.maxchanends.group
	.add_to_set _i.temperature_heater_commands_if._client_call_y.maxchanends.group, (__interface_client_call_y_other.maxchanends + __interface_client_call_y_extra.maxchanends), __interface_client_call_y_other
	.max_reduce _i.temperature_heater_commands_if._client_call_y.max.maxchanends, _i.temperature_heater_commands_if._client_call_y.maxchanends.group, 0
	.weak _i.temperature_heater_commands_if._client_call_y.maxcores.group
	.add_to_set _i.temperature_heater_commands_if._client_call_y.maxcores.group, (__interface_client_call_y_other.maxcores + __interface_client_call_y_extra.maxcores), __interface_client_call_y_other
	.max_reduce _i.temperature_heater_commands_if._client_call_y.max.maxcores, _i.temperature_heater_commands_if._client_call_y.maxcores.group, 0
	.weak _i.temperature_heater_commands_if._client_call_y.maxtimers.group
	.add_to_set _i.temperature_heater_commands_if._client_call_y.maxtimers.group, (__interface_client_call_y_other.maxtimers + __interface_client_call_y_extra.maxtimers), __interface_client_call_y_other
	.max_reduce _i.temperature_heater_commands_if._client_call_y.max.maxtimers, _i.temperature_heater_commands_if._client_call_y.maxtimers.group, 0
	.weak _i.temperature_heater_commands_if._client_call_y.nstackwords.group
	.globl _i.temperature_heater_commands_if._client_call_y.nstackwords.group
	.weak _i.temperature_heater_commands_if._client_call_y.fns.group
	.globl _i.temperature_heater_commands_if._client_call_y.fns.group
	.add_to_set _i.temperature_heater_commands_if._client_call_y.nstackwords.group, (__interface_client_call_y_other.nstackwords + __interface_client_call_y_extra.nstackwords), __interface_client_call_y_other
	.add_to_set _i.temperature_heater_commands_if._client_call_y.fns.group, __interface_client_call_y_other
	.max_reduce _i.temperature_heater_commands_if._client_call_y.max.nstackwords, _i.temperature_heater_commands_if._client_call_y.nstackwords.group, 0
	.max_reduce _i.temperature_heater_commands_if._client_call_y.fns, _i.temperature_heater_commands_if._client_call_y.fns.group, 0
	.weak _i.port_heat_light_commands_if.light_command.maxchanends.group
	.max_reduce _i.port_heat_light_commands_if.light_command.max.maxchanends, _i.port_heat_light_commands_if.light_command.maxchanends.group, 0
	.weak _i.port_heat_light_commands_if.light_command.maxcores.group
	.max_reduce _i.port_heat_light_commands_if.light_command.max.maxcores, _i.port_heat_light_commands_if.light_command.maxcores.group, 0
	.weak _i.port_heat_light_commands_if.light_command.maxtimers.group
	.max_reduce _i.port_heat_light_commands_if.light_command.max.maxtimers, _i.port_heat_light_commands_if.light_command.maxtimers.group, 0
	.weak _i.port_heat_light_commands_if.light_command.nstackwords.group
	.globl _i.port_heat_light_commands_if.light_command.nstackwords.group
	.weak _i.port_heat_light_commands_if.light_command.fns.group
	.globl _i.port_heat_light_commands_if.light_command.fns.group
	.max_reduce _i.port_heat_light_commands_if.light_command.max.nstackwords, _i.port_heat_light_commands_if.light_command.nstackwords.group, 0
	.max_reduce _i.port_heat_light_commands_if.light_command.fns, _i.port_heat_light_commands_if.light_command.fns.group, 0
	.weak _i.port_heat_light_commands_if.beeper_on_command.maxchanends.group
	.max_reduce _i.port_heat_light_commands_if.beeper_on_command.max.maxchanends, _i.port_heat_light_commands_if.beeper_on_command.maxchanends.group, 0
	.weak _i.port_heat_light_commands_if.beeper_on_command.maxcores.group
	.max_reduce _i.port_heat_light_commands_if.beeper_on_command.max.maxcores, _i.port_heat_light_commands_if.beeper_on_command.maxcores.group, 0
	.weak _i.port_heat_light_commands_if.beeper_on_command.maxtimers.group
	.max_reduce _i.port_heat_light_commands_if.beeper_on_command.max.maxtimers, _i.port_heat_light_commands_if.beeper_on_command.maxtimers.group, 0
	.weak _i.port_heat_light_commands_if.beeper_on_command.nstackwords.group
	.globl _i.port_heat_light_commands_if.beeper_on_command.nstackwords.group
	.weak _i.port_heat_light_commands_if.beeper_on_command.fns.group
	.globl _i.port_heat_light_commands_if.beeper_on_command.fns.group
	.max_reduce _i.port_heat_light_commands_if.beeper_on_command.max.nstackwords, _i.port_heat_light_commands_if.beeper_on_command.nstackwords.group, 0
	.max_reduce _i.port_heat_light_commands_if.beeper_on_command.fns, _i.port_heat_light_commands_if.beeper_on_command.fns.group, 0
	.weak _i.port_heat_light_commands_if.heat_cables_command.maxchanends.group
	.max_reduce _i.port_heat_light_commands_if.heat_cables_command.max.maxchanends, _i.port_heat_light_commands_if.heat_cables_command.maxchanends.group, 0
	.weak _i.port_heat_light_commands_if.heat_cables_command.maxcores.group
	.max_reduce _i.port_heat_light_commands_if.heat_cables_command.max.maxcores, _i.port_heat_light_commands_if.heat_cables_command.maxcores.group, 0
	.weak _i.port_heat_light_commands_if.heat_cables_command.maxtimers.group
	.max_reduce _i.port_heat_light_commands_if.heat_cables_command.max.maxtimers, _i.port_heat_light_commands_if.heat_cables_command.maxtimers.group, 0
	.weak _i.port_heat_light_commands_if.heat_cables_command.nstackwords.group
	.globl _i.port_heat_light_commands_if.heat_cables_command.nstackwords.group
	.weak _i.port_heat_light_commands_if.heat_cables_command.fns.group
	.globl _i.port_heat_light_commands_if.heat_cables_command.fns.group
	.max_reduce _i.port_heat_light_commands_if.heat_cables_command.max.nstackwords, _i.port_heat_light_commands_if.heat_cables_command.nstackwords.group, 0
	.max_reduce _i.port_heat_light_commands_if.heat_cables_command.fns, _i.port_heat_light_commands_if.heat_cables_command.fns.group, 0
	.weak _i.port_heat_light_commands_if.__interface_init.maxchanends.group
	.max_reduce _i.port_heat_light_commands_if.__interface_init.max.maxchanends, _i.port_heat_light_commands_if.__interface_init.maxchanends.group, 0
	.weak _i.port_heat_light_commands_if.__interface_init.maxcores.group
	.max_reduce _i.port_heat_light_commands_if.__interface_init.max.maxcores, _i.port_heat_light_commands_if.__interface_init.maxcores.group, 0
	.weak _i.port_heat_light_commands_if.__interface_init.maxtimers.group
	.max_reduce _i.port_heat_light_commands_if.__interface_init.max.maxtimers, _i.port_heat_light_commands_if.__interface_init.maxtimers.group, 0
	.weak _i.port_heat_light_commands_if.__interface_init.nstackwords.group
	.globl _i.port_heat_light_commands_if.__interface_init.nstackwords.group
	.weak _i.port_heat_light_commands_if.__interface_init.fns.group
	.globl _i.port_heat_light_commands_if.__interface_init.fns.group
	.max_reduce _i.port_heat_light_commands_if.__interface_init.max.nstackwords, _i.port_heat_light_commands_if.__interface_init.nstackwords.group, 0
	.max_reduce _i.port_heat_light_commands_if.__interface_init.fns, _i.port_heat_light_commands_if.__interface_init.fns.group, 0
	.weak _i.port_heat_light_commands_if._client_call_y.maxchanends.group
	.add_to_set _i.port_heat_light_commands_if._client_call_y.maxchanends.group, (__interface_client_call_y_other.maxchanends + __interface_client_call_y_extra.maxchanends), __interface_client_call_y_other
	.max_reduce _i.port_heat_light_commands_if._client_call_y.max.maxchanends, _i.port_heat_light_commands_if._client_call_y.maxchanends.group, 0
	.weak _i.port_heat_light_commands_if._client_call_y.maxcores.group
	.add_to_set _i.port_heat_light_commands_if._client_call_y.maxcores.group, (__interface_client_call_y_other.maxcores + __interface_client_call_y_extra.maxcores), __interface_client_call_y_other
	.max_reduce _i.port_heat_light_commands_if._client_call_y.max.maxcores, _i.port_heat_light_commands_if._client_call_y.maxcores.group, 0
	.weak _i.port_heat_light_commands_if._client_call_y.maxtimers.group
	.add_to_set _i.port_heat_light_commands_if._client_call_y.maxtimers.group, (__interface_client_call_y_other.maxtimers + __interface_client_call_y_extra.maxtimers), __interface_client_call_y_other
	.max_reduce _i.port_heat_light_commands_if._client_call_y.max.maxtimers, _i.port_heat_light_commands_if._client_call_y.maxtimers.group, 0
	.weak _i.port_heat_light_commands_if._client_call_y.nstackwords.group
	.globl _i.port_heat_light_commands_if._client_call_y.nstackwords.group
	.weak _i.port_heat_light_commands_if._client_call_y.fns.group
	.globl _i.port_heat_light_commands_if._client_call_y.fns.group
	.add_to_set _i.port_heat_light_commands_if._client_call_y.nstackwords.group, (__interface_client_call_y_other.nstackwords + __interface_client_call_y_extra.nstackwords), __interface_client_call_y_other
	.add_to_set _i.port_heat_light_commands_if._client_call_y.fns.group, __interface_client_call_y_other
	.max_reduce _i.port_heat_light_commands_if._client_call_y.max.nstackwords, _i.port_heat_light_commands_if._client_call_y.nstackwords.group, 0
	.max_reduce _i.port_heat_light_commands_if._client_call_y.fns, _i.port_heat_light_commands_if._client_call_y.fns.group, 0
	.weak _i.i2c_internal_commands_if.write_display_ok.maxchanends.group
	.max_reduce _i.i2c_internal_commands_if.write_display_ok.max.maxchanends, _i.i2c_internal_commands_if.write_display_ok.maxchanends.group, 0
	.weak _i.i2c_internal_commands_if.write_display_ok.maxcores.group
	.max_reduce _i.i2c_internal_commands_if.write_display_ok.max.maxcores, _i.i2c_internal_commands_if.write_display_ok.maxcores.group, 0
	.weak _i.i2c_internal_commands_if.write_display_ok.maxtimers.group
	.max_reduce _i.i2c_internal_commands_if.write_display_ok.max.maxtimers, _i.i2c_internal_commands_if.write_display_ok.maxtimers.group, 0
	.weak _i.i2c_internal_commands_if.write_display_ok.nstackwords.group
	.globl _i.i2c_internal_commands_if.write_display_ok.nstackwords.group
	.weak _i.i2c_internal_commands_if.write_display_ok.fns.group
	.globl _i.i2c_internal_commands_if.write_display_ok.fns.group
	.max_reduce _i.i2c_internal_commands_if.write_display_ok.max.nstackwords, _i.i2c_internal_commands_if.write_display_ok.nstackwords.group, 0
	.max_reduce _i.i2c_internal_commands_if.write_display_ok.fns, _i.i2c_internal_commands_if.write_display_ok.fns.group, 0
	.weak _i.i2c_internal_commands_if.read_chronodot_ok.maxchanends.group
	.max_reduce _i.i2c_internal_commands_if.read_chronodot_ok.max.maxchanends, _i.i2c_internal_commands_if.read_chronodot_ok.maxchanends.group, 0
	.weak _i.i2c_internal_commands_if.read_chronodot_ok.maxcores.group
	.max_reduce _i.i2c_internal_commands_if.read_chronodot_ok.max.maxcores, _i.i2c_internal_commands_if.read_chronodot_ok.maxcores.group, 0
	.weak _i.i2c_internal_commands_if.read_chronodot_ok.maxtimers.group
	.max_reduce _i.i2c_internal_commands_if.read_chronodot_ok.max.maxtimers, _i.i2c_internal_commands_if.read_chronodot_ok.maxtimers.group, 0
	.weak _i.i2c_internal_commands_if.read_chronodot_ok.nstackwords.group
	.globl _i.i2c_internal_commands_if.read_chronodot_ok.nstackwords.group
	.weak _i.i2c_internal_commands_if.read_chronodot_ok.fns.group
	.globl _i.i2c_internal_commands_if.read_chronodot_ok.fns.group
	.max_reduce _i.i2c_internal_commands_if.read_chronodot_ok.max.nstackwords, _i.i2c_internal_commands_if.read_chronodot_ok.nstackwords.group, 0
	.max_reduce _i.i2c_internal_commands_if.read_chronodot_ok.fns, _i.i2c_internal_commands_if.read_chronodot_ok.fns.group, 0
	.weak _i.i2c_internal_commands_if.write_chronodot_ok.maxchanends.group
	.max_reduce _i.i2c_internal_commands_if.write_chronodot_ok.max.maxchanends, _i.i2c_internal_commands_if.write_chronodot_ok.maxchanends.group, 0
	.weak _i.i2c_internal_commands_if.write_chronodot_ok.maxcores.group
	.max_reduce _i.i2c_internal_commands_if.write_chronodot_ok.max.maxcores, _i.i2c_internal_commands_if.write_chronodot_ok.maxcores.group, 0
	.weak _i.i2c_internal_commands_if.write_chronodot_ok.maxtimers.group
	.max_reduce _i.i2c_internal_commands_if.write_chronodot_ok.max.maxtimers, _i.i2c_internal_commands_if.write_chronodot_ok.maxtimers.group, 0
	.weak _i.i2c_internal_commands_if.write_chronodot_ok.nstackwords.group
	.globl _i.i2c_internal_commands_if.write_chronodot_ok.nstackwords.group
	.weak _i.i2c_internal_commands_if.write_chronodot_ok.fns.group
	.globl _i.i2c_internal_commands_if.write_chronodot_ok.fns.group
	.max_reduce _i.i2c_internal_commands_if.write_chronodot_ok.max.nstackwords, _i.i2c_internal_commands_if.write_chronodot_ok.nstackwords.group, 0
	.max_reduce _i.i2c_internal_commands_if.write_chronodot_ok.fns, _i.i2c_internal_commands_if.write_chronodot_ok.fns.group, 0
	.weak _i.i2c_internal_commands_if.__interface_init.maxchanends.group
	.max_reduce _i.i2c_internal_commands_if.__interface_init.max.maxchanends, _i.i2c_internal_commands_if.__interface_init.maxchanends.group, 0
	.weak _i.i2c_internal_commands_if.__interface_init.maxcores.group
	.max_reduce _i.i2c_internal_commands_if.__interface_init.max.maxcores, _i.i2c_internal_commands_if.__interface_init.maxcores.group, 0
	.weak _i.i2c_internal_commands_if.__interface_init.maxtimers.group
	.max_reduce _i.i2c_internal_commands_if.__interface_init.max.maxtimers, _i.i2c_internal_commands_if.__interface_init.maxtimers.group, 0
	.weak _i.i2c_internal_commands_if.__interface_init.nstackwords.group
	.globl _i.i2c_internal_commands_if.__interface_init.nstackwords.group
	.weak _i.i2c_internal_commands_if.__interface_init.fns.group
	.globl _i.i2c_internal_commands_if.__interface_init.fns.group
	.max_reduce _i.i2c_internal_commands_if.__interface_init.max.nstackwords, _i.i2c_internal_commands_if.__interface_init.nstackwords.group, 0
	.max_reduce _i.i2c_internal_commands_if.__interface_init.fns, _i.i2c_internal_commands_if.__interface_init.fns.group, 0
	.weak _i.i2c_internal_commands_if._client_call_y.maxchanends.group
	.add_to_set _i.i2c_internal_commands_if._client_call_y.maxchanends.group, (__interface_client_call_y_other.maxchanends + __interface_client_call_y_extra.maxchanends), __interface_client_call_y_other
	.max_reduce _i.i2c_internal_commands_if._client_call_y.max.maxchanends, _i.i2c_internal_commands_if._client_call_y.maxchanends.group, 0
	.weak _i.i2c_internal_commands_if._client_call_y.maxcores.group
	.add_to_set _i.i2c_internal_commands_if._client_call_y.maxcores.group, (__interface_client_call_y_other.maxcores + __interface_client_call_y_extra.maxcores), __interface_client_call_y_other
	.max_reduce _i.i2c_internal_commands_if._client_call_y.max.maxcores, _i.i2c_internal_commands_if._client_call_y.maxcores.group, 0
	.weak _i.i2c_internal_commands_if._client_call_y.maxtimers.group
	.add_to_set _i.i2c_internal_commands_if._client_call_y.maxtimers.group, (__interface_client_call_y_other.maxtimers + __interface_client_call_y_extra.maxtimers), __interface_client_call_y_other
	.max_reduce _i.i2c_internal_commands_if._client_call_y.max.maxtimers, _i.i2c_internal_commands_if._client_call_y.maxtimers.group, 0
	.weak _i.i2c_internal_commands_if._client_call_y.nstackwords.group
	.globl _i.i2c_internal_commands_if._client_call_y.nstackwords.group
	.weak _i.i2c_internal_commands_if._client_call_y.fns.group
	.globl _i.i2c_internal_commands_if._client_call_y.fns.group
	.add_to_set _i.i2c_internal_commands_if._client_call_y.nstackwords.group, (__interface_client_call_y_other.nstackwords + __interface_client_call_y_extra.nstackwords), __interface_client_call_y_other
	.add_to_set _i.i2c_internal_commands_if._client_call_y.fns.group, __interface_client_call_y_other
	.max_reduce _i.i2c_internal_commands_if._client_call_y.max.nstackwords, _i.i2c_internal_commands_if._client_call_y.nstackwords.group, 0
	.max_reduce _i.i2c_internal_commands_if._client_call_y.fns, _i.i2c_internal_commands_if._client_call_y.fns.group, 0
	.weak _i.i2c_external_commands_if.read_temperature_ok.maxchanends.group
	.max_reduce _i.i2c_external_commands_if.read_temperature_ok.max.maxchanends, _i.i2c_external_commands_if.read_temperature_ok.maxchanends.group, 0
	.weak _i.i2c_external_commands_if.read_temperature_ok.maxcores.group
	.max_reduce _i.i2c_external_commands_if.read_temperature_ok.max.maxcores, _i.i2c_external_commands_if.read_temperature_ok.maxcores.group, 0
	.weak _i.i2c_external_commands_if.read_temperature_ok.maxtimers.group
	.max_reduce _i.i2c_external_commands_if.read_temperature_ok.max.maxtimers, _i.i2c_external_commands_if.read_temperature_ok.maxtimers.group, 0
	.weak _i.i2c_external_commands_if.read_temperature_ok.nstackwords.group
	.globl _i.i2c_external_commands_if.read_temperature_ok.nstackwords.group
	.weak _i.i2c_external_commands_if.read_temperature_ok.fns.group
	.globl _i.i2c_external_commands_if.read_temperature_ok.fns.group
	.max_reduce _i.i2c_external_commands_if.read_temperature_ok.max.nstackwords, _i.i2c_external_commands_if.read_temperature_ok.nstackwords.group, 0
	.max_reduce _i.i2c_external_commands_if.read_temperature_ok.fns, _i.i2c_external_commands_if.read_temperature_ok.fns.group, 0
	.weak _i.i2c_external_commands_if.command.maxchanends.group
	.max_reduce _i.i2c_external_commands_if.command.max.maxchanends, _i.i2c_external_commands_if.command.maxchanends.group, 0
	.weak _i.i2c_external_commands_if.command.maxcores.group
	.max_reduce _i.i2c_external_commands_if.command.max.maxcores, _i.i2c_external_commands_if.command.maxcores.group, 0
	.weak _i.i2c_external_commands_if.command.maxtimers.group
	.max_reduce _i.i2c_external_commands_if.command.max.maxtimers, _i.i2c_external_commands_if.command.maxtimers.group, 0
	.weak _i.i2c_external_commands_if.command.nstackwords.group
	.globl _i.i2c_external_commands_if.command.nstackwords.group
	.weak _i.i2c_external_commands_if.command.fns.group
	.globl _i.i2c_external_commands_if.command.fns.group
	.max_reduce _i.i2c_external_commands_if.command.max.nstackwords, _i.i2c_external_commands_if.command.nstackwords.group, 0
	.max_reduce _i.i2c_external_commands_if.command.fns, _i.i2c_external_commands_if.command.fns.group, 0
	.weak _i.i2c_external_commands_if.__interface_init.maxchanends.group
	.max_reduce _i.i2c_external_commands_if.__interface_init.max.maxchanends, _i.i2c_external_commands_if.__interface_init.maxchanends.group, 0
	.weak _i.i2c_external_commands_if.__interface_init.maxcores.group
	.max_reduce _i.i2c_external_commands_if.__interface_init.max.maxcores, _i.i2c_external_commands_if.__interface_init.maxcores.group, 0
	.weak _i.i2c_external_commands_if.__interface_init.maxtimers.group
	.max_reduce _i.i2c_external_commands_if.__interface_init.max.maxtimers, _i.i2c_external_commands_if.__interface_init.maxtimers.group, 0
	.weak _i.i2c_external_commands_if.__interface_init.nstackwords.group
	.globl _i.i2c_external_commands_if.__interface_init.nstackwords.group
	.weak _i.i2c_external_commands_if.__interface_init.fns.group
	.globl _i.i2c_external_commands_if.__interface_init.fns.group
	.max_reduce _i.i2c_external_commands_if.__interface_init.max.nstackwords, _i.i2c_external_commands_if.__interface_init.nstackwords.group, 0
	.max_reduce _i.i2c_external_commands_if.__interface_init.fns, _i.i2c_external_commands_if.__interface_init.fns.group, 0
	.weak _i.i2c_external_commands_if._client_call_y.maxchanends.group
	.add_to_set _i.i2c_external_commands_if._client_call_y.maxchanends.group, (__interface_client_call_y_other.maxchanends + __interface_client_call_y_extra.maxchanends), __interface_client_call_y_other
	.max_reduce _i.i2c_external_commands_if._client_call_y.max.maxchanends, _i.i2c_external_commands_if._client_call_y.maxchanends.group, 0
	.weak _i.i2c_external_commands_if._client_call_y.maxcores.group
	.add_to_set _i.i2c_external_commands_if._client_call_y.maxcores.group, (__interface_client_call_y_other.maxcores + __interface_client_call_y_extra.maxcores), __interface_client_call_y_other
	.max_reduce _i.i2c_external_commands_if._client_call_y.max.maxcores, _i.i2c_external_commands_if._client_call_y.maxcores.group, 0
	.weak _i.i2c_external_commands_if._client_call_y.maxtimers.group
	.add_to_set _i.i2c_external_commands_if._client_call_y.maxtimers.group, (__interface_client_call_y_other.maxtimers + __interface_client_call_y_extra.maxtimers), __interface_client_call_y_other
	.max_reduce _i.i2c_external_commands_if._client_call_y.max.maxtimers, _i.i2c_external_commands_if._client_call_y.maxtimers.group, 0
	.weak _i.i2c_external_commands_if._client_call_y.nstackwords.group
	.globl _i.i2c_external_commands_if._client_call_y.nstackwords.group
	.weak _i.i2c_external_commands_if._client_call_y.fns.group
	.globl _i.i2c_external_commands_if._client_call_y.fns.group
	.add_to_set _i.i2c_external_commands_if._client_call_y.nstackwords.group, (__interface_client_call_y_other.nstackwords + __interface_client_call_y_extra.nstackwords), __interface_client_call_y_other
	.add_to_set _i.i2c_external_commands_if._client_call_y.fns.group, __interface_client_call_y_other
	.max_reduce _i.i2c_external_commands_if._client_call_y.max.nstackwords, _i.i2c_external_commands_if._client_call_y.nstackwords.group, 0
	.max_reduce _i.i2c_external_commands_if._client_call_y.fns, _i.i2c_external_commands_if._client_call_y.fns.group, 0
	.weak _i.startkit_adc_acquire_if.trigger.maxchanends.group
	.max_reduce _i.startkit_adc_acquire_if.trigger.max.maxchanends, _i.startkit_adc_acquire_if.trigger.maxchanends.group, 0
	.weak _i.startkit_adc_acquire_if.trigger.maxcores.group
	.max_reduce _i.startkit_adc_acquire_if.trigger.max.maxcores, _i.startkit_adc_acquire_if.trigger.maxcores.group, 0
	.weak _i.startkit_adc_acquire_if.trigger.maxtimers.group
	.max_reduce _i.startkit_adc_acquire_if.trigger.max.maxtimers, _i.startkit_adc_acquire_if.trigger.maxtimers.group, 0
	.weak _i.startkit_adc_acquire_if.trigger.nstackwords.group
	.globl _i.startkit_adc_acquire_if.trigger.nstackwords.group
	.weak _i.startkit_adc_acquire_if.trigger.fns.group
	.globl _i.startkit_adc_acquire_if.trigger.fns.group
	.max_reduce _i.startkit_adc_acquire_if.trigger.max.nstackwords, _i.startkit_adc_acquire_if.trigger.nstackwords.group, 0
	.max_reduce _i.startkit_adc_acquire_if.trigger.fns, _i.startkit_adc_acquire_if.trigger.fns.group, 0
	.weak _i.startkit_adc_acquire_if.read.maxchanends.group
	.max_reduce _i.startkit_adc_acquire_if.read.max.maxchanends, _i.startkit_adc_acquire_if.read.maxchanends.group, 0
	.weak _i.startkit_adc_acquire_if.read.maxcores.group
	.max_reduce _i.startkit_adc_acquire_if.read.max.maxcores, _i.startkit_adc_acquire_if.read.maxcores.group, 0
	.weak _i.startkit_adc_acquire_if.read.maxtimers.group
	.max_reduce _i.startkit_adc_acquire_if.read.max.maxtimers, _i.startkit_adc_acquire_if.read.maxtimers.group, 0
	.weak _i.startkit_adc_acquire_if.read.nstackwords.group
	.globl _i.startkit_adc_acquire_if.read.nstackwords.group
	.weak _i.startkit_adc_acquire_if.read.fns.group
	.globl _i.startkit_adc_acquire_if.read.fns.group
	.max_reduce _i.startkit_adc_acquire_if.read.max.nstackwords, _i.startkit_adc_acquire_if.read.nstackwords.group, 0
	.max_reduce _i.startkit_adc_acquire_if.read.fns, _i.startkit_adc_acquire_if.read.fns.group, 0
	.weak _i.startkit_adc_acquire_if.__interface_init.maxchanends.group
	.max_reduce _i.startkit_adc_acquire_if.__interface_init.max.maxchanends, _i.startkit_adc_acquire_if.__interface_init.maxchanends.group, 0
	.weak _i.startkit_adc_acquire_if.__interface_init.maxcores.group
	.max_reduce _i.startkit_adc_acquire_if.__interface_init.max.maxcores, _i.startkit_adc_acquire_if.__interface_init.maxcores.group, 0
	.weak _i.startkit_adc_acquire_if.__interface_init.maxtimers.group
	.max_reduce _i.startkit_adc_acquire_if.__interface_init.max.maxtimers, _i.startkit_adc_acquire_if.__interface_init.maxtimers.group, 0
	.weak _i.startkit_adc_acquire_if.__interface_init.nstackwords.group
	.globl _i.startkit_adc_acquire_if.__interface_init.nstackwords.group
	.weak _i.startkit_adc_acquire_if.__interface_init.fns.group
	.globl _i.startkit_adc_acquire_if.__interface_init.fns.group
	.max_reduce _i.startkit_adc_acquire_if.__interface_init.max.nstackwords, _i.startkit_adc_acquire_if.__interface_init.nstackwords.group, 0
	.max_reduce _i.startkit_adc_acquire_if.__interface_init.fns, _i.startkit_adc_acquire_if.__interface_init.fns.group, 0
	.weak _i.startkit_adc_acquire_if._client_call_y.maxchanends.group
	.add_to_set _i.startkit_adc_acquire_if._client_call_y.maxchanends.group, (__interface_client_call_y_other.maxchanends + __interface_client_call_y_extra.maxchanends), __interface_client_call_y_other
	.max_reduce _i.startkit_adc_acquire_if._client_call_y.max.maxchanends, _i.startkit_adc_acquire_if._client_call_y.maxchanends.group, 0
	.weak _i.startkit_adc_acquire_if._client_call_y.maxcores.group
	.add_to_set _i.startkit_adc_acquire_if._client_call_y.maxcores.group, (__interface_client_call_y_other.maxcores + __interface_client_call_y_extra.maxcores), __interface_client_call_y_other
	.max_reduce _i.startkit_adc_acquire_if._client_call_y.max.maxcores, _i.startkit_adc_acquire_if._client_call_y.maxcores.group, 0
	.weak _i.startkit_adc_acquire_if._client_call_y.maxtimers.group
	.add_to_set _i.startkit_adc_acquire_if._client_call_y.maxtimers.group, (__interface_client_call_y_other.maxtimers + __interface_client_call_y_extra.maxtimers), __interface_client_call_y_other
	.max_reduce _i.startkit_adc_acquire_if._client_call_y.max.maxtimers, _i.startkit_adc_acquire_if._client_call_y.maxtimers.group, 0
	.weak _i.startkit_adc_acquire_if._client_call_y.nstackwords.group
	.globl _i.startkit_adc_acquire_if._client_call_y.nstackwords.group
	.weak _i.startkit_adc_acquire_if._client_call_y.fns.group
	.globl _i.startkit_adc_acquire_if._client_call_y.fns.group
	.add_to_set _i.startkit_adc_acquire_if._client_call_y.nstackwords.group, (__interface_client_call_y_other.nstackwords + __interface_client_call_y_extra.nstackwords), __interface_client_call_y_other
	.add_to_set _i.startkit_adc_acquire_if._client_call_y.fns.group, __interface_client_call_y_other
	.max_reduce _i.startkit_adc_acquire_if._client_call_y.max.nstackwords, _i.startkit_adc_acquire_if._client_call_y.nstackwords.group, 0
	.max_reduce _i.startkit_adc_acquire_if._client_call_y.fns, _i.startkit_adc_acquire_if._client_call_y.fns.group, 0
	.set usage.anon.0,0
	.set usage.anon.1,0
	.set usage.anon.2,0
	.call chronodot_ds3231_controller,printf
	.call chronodot_ds3231_controller,bin2bcd_8
	.call chronodot_ds3231_controller,bcd2bin_8
	.call datetime_to_chronodot_registers,bin2bcd_8
	.call chronodot_registers_to_datetime,bcd2bin_8
	.call usage.anon.2,delay_ticks_longlong
	.call usage.anon.1,delay_ticks_longlong
	.call usage.anon.0,delay_ticks_longlong
	.set chronodot_ds3231_controller.locnoside, 0
	.set chronodot_ds3231_controller.locnointerfaceaccess, 0
	.assert 1,bin2bcd_8.actnonotificationselect,"../src/chronodot_ds3231_controller.xc:138:78: error: call to function `bin2bcd_8\' which selects on a notification in a combinable function select case\n                chronodot_d3231_registers.registers[DS3231_REG_SECOND]     = bin2bcd_8((uint8_t)  datetime.second);\n                                                                             ^~~~~~~~~~~~~~~~~~~~~~~~~~~~~~~~~~~~~"
	.assert 1,bcd2bin_8.actnonotificationselect,"../src/chronodot_ds3231_controller.xc:113:39: error: call to function `bcd2bin_8\' which selects on a notification in a combinable function select case\n                    datetime.second = bcd2bin_8(chronodot_d3231_registers.registers[DS3231_REG_SECOND] bitand 0x7F);\n                                      ^~~~~~~~~~~~~~~~~~~~~~~~~~~~~~~~~~~~~~~~~~~~~~~~~~~~~~~~~~~~~~~~~~~~~~~~~~~~~"


	.text
	.globl	_i.chronodot_ds3231_if.chronodot_ds3231_controller._c0.set_time_ok
	.align	4
	.type	_i.chronodot_ds3231_if.chronodot_ds3231_controller._c0.set_time_ok,@function
	.cc_top _i.chronodot_ds3231_if.chronodot_ds3231_controller._c0.set_time_ok.function,_i.chronodot_ds3231_if.chronodot_ds3231_controller._c0.set_time_ok
_i.chronodot_ds3231_if.chronodot_ds3231_controller._c0.set_time_ok:
.Lfunc_begin0:
	.loc	1 130 0
	.cfi_startproc
	entsp 10
.Ltmp0:
	.cfi_def_cfa_offset 40
.Ltmp1:
	.cfi_offset 15, 0
	stw r4, sp[9]
.Ltmp2:
	.cfi_offset 4, -4
	stw r5, sp[8]
.Ltmp3:
	.cfi_offset 5, -8
	stw r6, sp[7]
.Ltmp4:
	.cfi_offset 6, -12
	mov r4, r0
.Ltmp5:
	ldaw r0, sp[1]
	ldc r6, 24
	mov r2, r6
	bl __memcpy_4
.Ltmp6:
.LBB0_1:
	ldw r0, r4[0]
	bf r0, .LBB0_1
.Ltmp7:
	ldc r0, 0
	stw r0, r4[0]
	.loc	1 131 0 prologue_end
.Ltmp8:
	ldaw r0, r4[4]
	ldaw r1, sp[1]
	.loc	1 131 0
	mov r2, r6
	bl __memcpy_4
	.loc	1 133 0
	ldaw r5, r4[10]
	.loc	1 133 0
	ldw r0, r4[4]
	ldc r1, 48
	.loc	1 133 0
	add r0, r0, r1
	.loc	1 133 0
	zext r0, 8
.Lxta.call_labels0:
	bl bin2bcd_8
	ldc r1, 46
	.loc	1 133 0
	st8 r0, r4[r1]
	ldc r0, 20
	.loc	1 134 0
	ld8u r0, r4[r0]
.Lxta.call_labels1:
	bl bin2bcd_8
	ldc r1, 45
	.loc	1 134 0
	st8 r0, r4[r1]
	.loc	1 135 0
	ld8u r0, r4[r6]
.Lxta.call_labels2:
	bl bin2bcd_8
	ldc r1, 44
	.loc	1 135 0
	st8 r0, r4[r1]
	ldc r0, 28
	.loc	1 136 0
	ld8u r0, r4[r0]
.Lxta.call_labels3:
	bl bin2bcd_8
	ldc r1, 42
	.loc	1 136 0
	st8 r0, r4[r1]
	ldc r0, 32
	.loc	1 137 0
	ld8u r0, r4[r0]
.Lxta.call_labels4:
	bl bin2bcd_8
	ldc r1, 41
	.loc	1 137 0
	st8 r0, r4[r1]
	ldc r0, 36
	.loc	1 138 0
	ld8u r0, r4[r0]
.Lxta.call_labels5:
	bl bin2bcd_8
	ldc r1, 40
	.loc	1 138 0
	st8 r0, r4[r1]
	ldc r0, 60
	.loc	1 140 0
	add r6, r4, r0
	.loc	1 140 0
	ldw r1, r4[3]
	.loc	1 140 0
	ldw r0, r1[0]
	.loc	1 140 0
	ldw r1, r1[1]
	.loc	1 140 0
	ldw r3, r1[2]
	ldc r1, 104
	.loc	1 140 0
	mov r2, r5
.Lxta.call_labels6:
	bla r3
	.loc	1 140 0
	stw r0, r6[0]
	mkmsk r1, 1
	stw r1, r4[0]
	ldw r6, sp[7]
	ldw r5, sp[8]
	ldw r4, sp[9]
.Ltmp9:
	retsp 10
	# RETURN_REG_HOLDER
.Ltmp10:
	.cc_bottom _i.chronodot_ds3231_if.chronodot_ds3231_controller._c0.set_time_ok.function
	.set	_i.chronodot_ds3231_if.chronodot_ds3231_controller._c0.set_time_ok.nstackwords,((__memcpy_4.nstackwords $M bin2bcd_8.nstackwords $M _i.i2c_internal_commands_if.write_chronodot_ok.max.nstackwords) + 10)
	.globl	_i.chronodot_ds3231_if.chronodot_ds3231_controller._c0.set_time_ok.nstackwords
	.set	_i.chronodot_ds3231_if.chronodot_ds3231_controller._c0.set_time_ok.maxcores,_i.i2c_internal_commands_if.write_chronodot_ok.max.maxcores $M bin2bcd_8.maxcores $M 1
	.globl	_i.chronodot_ds3231_if.chronodot_ds3231_controller._c0.set_time_ok.maxcores
	.set	_i.chronodot_ds3231_if.chronodot_ds3231_controller._c0.set_time_ok.maxtimers,_i.i2c_internal_commands_if.write_chronodot_ok.max.maxtimers $M bin2bcd_8.maxtimers $M 0
	.globl	_i.chronodot_ds3231_if.chronodot_ds3231_controller._c0.set_time_ok.maxtimers
	.set	_i.chronodot_ds3231_if.chronodot_ds3231_controller._c0.set_time_ok.maxchanends,_i.i2c_internal_commands_if.write_chronodot_ok.max.maxchanends $M bin2bcd_8.maxchanends $M 0
	.globl	_i.chronodot_ds3231_if.chronodot_ds3231_controller._c0.set_time_ok.maxchanends
.Ltmp11:
	.size	_i.chronodot_ds3231_if.chronodot_ds3231_controller._c0.set_time_ok, .Ltmp11-_i.chronodot_ds3231_if.chronodot_ds3231_controller._c0.set_time_ok
.Lfunc_end0:
	.cfi_endproc

	.globl	_i.chronodot_ds3231_if.chronodot_ds3231_controller._c0.get_time_ok
	.align	4
	.type	_i.chronodot_ds3231_if.chronodot_ds3231_controller._c0.get_time_ok,@function
	.cc_top _i.chronodot_ds3231_if.chronodot_ds3231_controller._c0.get_time_ok.function,_i.chronodot_ds3231_if.chronodot_ds3231_controller._c0.get_time_ok
_i.chronodot_ds3231_if.chronodot_ds3231_controller._c0.get_time_ok:
.Lfunc_begin1:
	.loc	1 125 0
	.cfi_startproc
	entsp 2
.Ltmp12:
	.cfi_def_cfa_offset 8
.Ltmp13:
	.cfi_offset 15, 0
	stw r4, sp[1]
.Ltmp14:
	.cfi_offset 4, -4
.LBB1_1:
	ldw r2, r1[0]
	bf r2, .LBB1_1
.Ltmp15:
	.loc	1 126 0 prologue_end
	ldaw r3, r1[4]
	ldc r2, 60
	.loc	1 127 0
	add r2, r1, r2
	.loc	1 127 0
	ldw r4, r2[0]
	mkmsk r2, 1
	stw r2, r1[0]
	ldc r2, 24
	mov r1, r3
.Ltmp16:
	bl __memcpy_4
	mov r0, r4
	ldw r4, sp[1]
	retsp 2
	# RETURN_REG_HOLDER
.Ltmp17:
	.cc_bottom _i.chronodot_ds3231_if.chronodot_ds3231_controller._c0.get_time_ok.function
	.set	_i.chronodot_ds3231_if.chronodot_ds3231_controller._c0.get_time_ok.nstackwords,(__memcpy_4.nstackwords + 2)
	.globl	_i.chronodot_ds3231_if.chronodot_ds3231_controller._c0.get_time_ok.nstackwords
	.set	_i.chronodot_ds3231_if.chronodot_ds3231_controller._c0.get_time_ok.maxcores,1
	.globl	_i.chronodot_ds3231_if.chronodot_ds3231_controller._c0.get_time_ok.maxcores
	.set	_i.chronodot_ds3231_if.chronodot_ds3231_controller._c0.get_time_ok.maxtimers,0
	.globl	_i.chronodot_ds3231_if.chronodot_ds3231_controller._c0.get_time_ok.maxtimers
	.set	_i.chronodot_ds3231_if.chronodot_ds3231_controller._c0.get_time_ok.maxchanends,0
	.globl	_i.chronodot_ds3231_if.chronodot_ds3231_controller._c0.get_time_ok.maxchanends
.Ltmp18:
	.size	_i.chronodot_ds3231_if.chronodot_ds3231_controller._c0.get_time_ok, .Ltmp18-_i.chronodot_ds3231_if.chronodot_ds3231_controller._c0.get_time_ok
.Lfunc_end1:
	.cfi_endproc

	.weak	_i.startkit_adc_acquire_if._chan.read
	.align	4
	.type	_i.startkit_adc_acquire_if._chan.read,@function
	.cc_top _i.startkit_adc_acquire_if._chan.read.function,_i.startkit_adc_acquire_if._chan.read
_i.startkit_adc_acquire_if._chan.read:
	.cfi_startproc
	entsp 5
.Ltmp19:
	.cfi_def_cfa_offset 20
.Ltmp20:
	.cfi_offset 15, 0
	stw r4, sp[4]
.Ltmp21:
	.cfi_offset 4, -4
	stw r5, sp[3]
.Ltmp22:
	.cfi_offset 5, -8
	stw r6, sp[2]
.Ltmp23:
	.cfi_offset 6, -12
	mov r4, r2
	mov r5, r1
	getr r6, 2
	setd res[r6], r0
	add r0, r6, 1
	out res[r6], r0
	outct res[r6], 2
	ldc r1, 0
	mov r0, r6
	bl __interface_wait_and_yield
	chkct res[r6], 1
	out res[r6], r5
	stw r4, sp[1]
	outct res[r6], 2
	ldaw r1, sp[1]
	mov r0, r6
	bl __interface_client_call
	in r0, res[r6]
	chkct res[r6], 1
	freer res[r6]
	ldw r6, sp[2]
	ldw r5, sp[3]
	ldw r4, sp[4]
	retsp 5
	# RETURN_REG_HOLDER
	.cc_bottom _i.startkit_adc_acquire_if._chan.read.function
	.set	_i.startkit_adc_acquire_if._chan.read.nstackwords,((_i.startkit_adc_acquire_if._client_call_y.max.nstackwords $M ($D __interface_wait_and_yield.nstackwords ? __interface_wait_and_yield.nstackwords $: _i.startkit_adc_acquire_if._client_call_y.max.nstackwords) $M __interface_client_call.nstackwords) + 5)
	.globl	_i.startkit_adc_acquire_if._chan.read.nstackwords
	.weak	_i.startkit_adc_acquire_if._chan.read.nstackwords
	.set	_i.startkit_adc_acquire_if._chan.read.maxcores,__interface_client_call.maxcores $M ($D __interface_wait_and_yield.maxcores ? __interface_wait_and_yield.maxcores $: _i.startkit_adc_acquire_if._client_call_y.max.maxcores) $M 1
	.globl	_i.startkit_adc_acquire_if._chan.read.maxcores
	.weak	_i.startkit_adc_acquire_if._chan.read.maxcores
	.set	_i.startkit_adc_acquire_if._chan.read.maxtimers,__interface_client_call.maxtimers $M ($D __interface_wait_and_yield.maxtimers ? __interface_wait_and_yield.maxtimers $: _i.startkit_adc_acquire_if._client_call_y.max.maxtimers) $M 0
	.globl	_i.startkit_adc_acquire_if._chan.read.maxtimers
	.weak	_i.startkit_adc_acquire_if._chan.read.maxtimers
	.set	_i.startkit_adc_acquire_if._chan.read.maxchanends,(1 + __interface_client_call.maxchanends) $M (1 + ($D __interface_wait_and_yield.maxchanends ? __interface_wait_and_yield.maxchanends $: _i.startkit_adc_acquire_if._client_call_y.max.maxchanends)) $M 1
	.globl	_i.startkit_adc_acquire_if._chan.read.maxchanends
	.weak	_i.startkit_adc_acquire_if._chan.read.maxchanends
.Ltmp24:
	.size	_i.startkit_adc_acquire_if._chan.read, .Ltmp24-_i.startkit_adc_acquire_if._chan.read
	.cfi_endproc

	.weak	_i.startkit_adc_acquire_if._chan.trigger
	.align	4
	.type	_i.startkit_adc_acquire_if._chan.trigger,@function
	.cc_top _i.startkit_adc_acquire_if._chan.trigger.function,_i.startkit_adc_acquire_if._chan.trigger
_i.startkit_adc_acquire_if._chan.trigger:
	.cfi_startproc
	entsp 2
.Ltmp25:
	.cfi_def_cfa_offset 8
.Ltmp26:
	.cfi_offset 15, 0
	stw r4, sp[1]
.Ltmp27:
	.cfi_offset 4, -4
	getr r4, 2
	setd res[r4], r0
	out res[r4], r4
	outct res[r4], 2
	ldc r1, 0
	mov r0, r4
	bl __interface_wait_and_yield
	in r0, res[r4]
	chkct res[r4], 1
	freer res[r4]
	ldw r4, sp[1]
	retsp 2
	# RETURN_REG_HOLDER
	.cc_bottom _i.startkit_adc_acquire_if._chan.trigger.function
	.set	_i.startkit_adc_acquire_if._chan.trigger.nstackwords,((_i.startkit_adc_acquire_if._client_call_y.max.nstackwords $M ($D __interface_wait_and_yield.nstackwords ? __interface_wait_and_yield.nstackwords $: _i.startkit_adc_acquire_if._client_call_y.max.nstackwords)) + 2)
	.globl	_i.startkit_adc_acquire_if._chan.trigger.nstackwords
	.weak	_i.startkit_adc_acquire_if._chan.trigger.nstackwords
	.set	_i.startkit_adc_acquire_if._chan.trigger.maxcores,($D __interface_wait_and_yield.maxcores ? __interface_wait_and_yield.maxcores $: _i.startkit_adc_acquire_if._client_call_y.max.maxcores) $M 1
	.globl	_i.startkit_adc_acquire_if._chan.trigger.maxcores
	.weak	_i.startkit_adc_acquire_if._chan.trigger.maxcores
	.set	_i.startkit_adc_acquire_if._chan.trigger.maxtimers,($D __interface_wait_and_yield.maxtimers ? __interface_wait_and_yield.maxtimers $: _i.startkit_adc_acquire_if._client_call_y.max.maxtimers) $M 0
	.globl	_i.startkit_adc_acquire_if._chan.trigger.maxtimers
	.weak	_i.startkit_adc_acquire_if._chan.trigger.maxtimers
	.set	_i.startkit_adc_acquire_if._chan.trigger.maxchanends,(1 + ($D __interface_wait_and_yield.maxchanends ? __interface_wait_and_yield.maxchanends $: _i.startkit_adc_acquire_if._client_call_y.max.maxchanends)) $M 1
	.globl	_i.startkit_adc_acquire_if._chan.trigger.maxchanends
	.weak	_i.startkit_adc_acquire_if._chan.trigger.maxchanends
.Ltmp28:
	.size	_i.startkit_adc_acquire_if._chan.trigger, .Ltmp28-_i.startkit_adc_acquire_if._chan.trigger
	.cfi_endproc

	.weak	_i.startkit_adc_acquire_if._chan_y.read
	.align	4
	.type	_i.startkit_adc_acquire_if._chan_y.read,@function
	.cc_top _i.startkit_adc_acquire_if._chan_y.read.function,_i.startkit_adc_acquire_if._chan_y.read
_i.startkit_adc_acquire_if._chan_y.read:
	.cfi_startproc
	entsp 6
.Ltmp29:
	.cfi_def_cfa_offset 24
.Ltmp30:
	.cfi_offset 15, 0
	stw r4, sp[5]
.Ltmp31:
	.cfi_offset 4, -4
	stw r5, sp[4]
.Ltmp32:
	.cfi_offset 5, -8
	stw r6, sp[3]
.Ltmp33:
	.cfi_offset 6, -12
	stw r7, sp[2]
.Ltmp34:
	.cfi_offset 7, -16
	mov r4, r2
	mov r5, r1
	ldw r1, r0[0]
	getr r6, 2
	setd res[r6], r1
	add r1, r6, 1
	out res[r6], r1
	outct res[r6], 2
	ldw r7, r0[1]
	mov r0, r6
	mov r1, r7
	bl __interface_wait_and_yield
	chkct res[r6], 1
	out res[r6], r5
	stw r4, sp[1]
	outct res[r6], 2
	ldaw r1, sp[1]
	mov r0, r6
	mov r2, r7
	bl __interface_client_call_y
	in r0, res[r6]
	chkct res[r6], 1
	freer res[r6]
	ldw r7, sp[2]
	ldw r6, sp[3]
	ldw r5, sp[4]
	ldw r4, sp[5]
	retsp 6
	# RETURN_REG_HOLDER
	.cc_bottom _i.startkit_adc_acquire_if._chan_y.read.function
	.set	_i.startkit_adc_acquire_if._chan_y.read.nstackwords,((($D __interface_wait_and_yield.nstackwords ? __interface_wait_and_yield.nstackwords $: _i.startkit_adc_acquire_if._client_call_y.max.nstackwords) $M _i.startkit_adc_acquire_if._client_call_y.max.nstackwords $M ($D __interface_client_call_y.nstackwords ? __interface_client_call_y.nstackwords $: _i.startkit_adc_acquire_if._client_call_y.max.nstackwords)) + 6)
	.globl	_i.startkit_adc_acquire_if._chan_y.read.nstackwords
	.weak	_i.startkit_adc_acquire_if._chan_y.read.nstackwords
	.set	_i.startkit_adc_acquire_if._chan_y.read.maxcores,($D __interface_client_call_y.maxcores ? __interface_client_call_y.maxcores $: _i.startkit_adc_acquire_if._client_call_y.max.maxcores) $M ($D __interface_wait_and_yield.maxcores ? __interface_wait_and_yield.maxcores $: _i.startkit_adc_acquire_if._client_call_y.max.maxcores) $M 1
	.globl	_i.startkit_adc_acquire_if._chan_y.read.maxcores
	.weak	_i.startkit_adc_acquire_if._chan_y.read.maxcores
	.set	_i.startkit_adc_acquire_if._chan_y.read.maxtimers,($D __interface_client_call_y.maxtimers ? __interface_client_call_y.maxtimers $: _i.startkit_adc_acquire_if._client_call_y.max.maxtimers) $M ($D __interface_wait_and_yield.maxtimers ? __interface_wait_and_yield.maxtimers $: _i.startkit_adc_acquire_if._client_call_y.max.maxtimers) $M 0
	.globl	_i.startkit_adc_acquire_if._chan_y.read.maxtimers
	.weak	_i.startkit_adc_acquire_if._chan_y.read.maxtimers
	.set	_i.startkit_adc_acquire_if._chan_y.read.maxchanends,(1 + ($D __interface_client_call_y.maxchanends ? __interface_client_call_y.maxchanends $: _i.startkit_adc_acquire_if._client_call_y.max.maxchanends)) $M (1 + ($D __interface_wait_and_yield.maxchanends ? __interface_wait_and_yield.maxchanends $: _i.startkit_adc_acquire_if._client_call_y.max.maxchanends)) $M 1
	.globl	_i.startkit_adc_acquire_if._chan_y.read.maxchanends
	.weak	_i.startkit_adc_acquire_if._chan_y.read.maxchanends
.Ltmp35:
	.size	_i.startkit_adc_acquire_if._chan_y.read, .Ltmp35-_i.startkit_adc_acquire_if._chan_y.read
	.cfi_endproc

	.weak	_i.startkit_adc_acquire_if._chan_y.trigger
	.align	4
	.type	_i.startkit_adc_acquire_if._chan_y.trigger,@function
	.cc_top _i.startkit_adc_acquire_if._chan_y.trigger.function,_i.startkit_adc_acquire_if._chan_y.trigger
_i.startkit_adc_acquire_if._chan_y.trigger:
	.cfi_startproc
	entsp 3
.Ltmp36:
	.cfi_def_cfa_offset 12
.Ltmp37:
	.cfi_offset 15, 0
	stw r4, sp[2]
.Ltmp38:
	.cfi_offset 4, -4
	stw r5, sp[1]
.Ltmp39:
	.cfi_offset 5, -8
	ldw r1, r0[0]
	getr r4, 2
	setd res[r4], r1
	out res[r4], r4
	outct res[r4], 2
	ldw r5, r0[1]
	mov r0, r4
	mov r1, r5
	bl __interface_wait_and_yield
	ldc r1, 0
	mov r0, r4
	mov r2, r5
	bl __interface_client_call_y
	chkct res[r4], 1
	freer res[r4]
	ldw r5, sp[1]
	ldw r4, sp[2]
	retsp 3
	# RETURN_REG_HOLDER
	.cc_bottom _i.startkit_adc_acquire_if._chan_y.trigger.function
	.set	_i.startkit_adc_acquire_if._chan_y.trigger.nstackwords,((($D __interface_wait_and_yield.nstackwords ? __interface_wait_and_yield.nstackwords $: _i.startkit_adc_acquire_if._client_call_y.max.nstackwords) $M _i.startkit_adc_acquire_if._client_call_y.max.nstackwords $M ($D __interface_client_call_y.nstackwords ? __interface_client_call_y.nstackwords $: _i.startkit_adc_acquire_if._client_call_y.max.nstackwords)) + 3)
	.globl	_i.startkit_adc_acquire_if._chan_y.trigger.nstackwords
	.weak	_i.startkit_adc_acquire_if._chan_y.trigger.nstackwords
	.set	_i.startkit_adc_acquire_if._chan_y.trigger.maxcores,($D __interface_client_call_y.maxcores ? __interface_client_call_y.maxcores $: _i.startkit_adc_acquire_if._client_call_y.max.maxcores) $M ($D __interface_wait_and_yield.maxcores ? __interface_wait_and_yield.maxcores $: _i.startkit_adc_acquire_if._client_call_y.max.maxcores) $M 1
	.globl	_i.startkit_adc_acquire_if._chan_y.trigger.maxcores
	.weak	_i.startkit_adc_acquire_if._chan_y.trigger.maxcores
	.set	_i.startkit_adc_acquire_if._chan_y.trigger.maxtimers,($D __interface_client_call_y.maxtimers ? __interface_client_call_y.maxtimers $: _i.startkit_adc_acquire_if._client_call_y.max.maxtimers) $M ($D __interface_wait_and_yield.maxtimers ? __interface_wait_and_yield.maxtimers $: _i.startkit_adc_acquire_if._client_call_y.max.maxtimers) $M 0
	.globl	_i.startkit_adc_acquire_if._chan_y.trigger.maxtimers
	.weak	_i.startkit_adc_acquire_if._chan_y.trigger.maxtimers
	.set	_i.startkit_adc_acquire_if._chan_y.trigger.maxchanends,(1 + ($D __interface_client_call_y.maxchanends ? __interface_client_call_y.maxchanends $: _i.startkit_adc_acquire_if._client_call_y.max.maxchanends)) $M (1 + ($D __interface_wait_and_yield.maxchanends ? __interface_wait_and_yield.maxchanends $: _i.startkit_adc_acquire_if._client_call_y.max.maxchanends)) $M 1
	.globl	_i.startkit_adc_acquire_if._chan_y.trigger.maxchanends
	.weak	_i.startkit_adc_acquire_if._chan_y.trigger.maxchanends
.Ltmp40:
	.size	_i.startkit_adc_acquire_if._chan_y.trigger, .Ltmp40-_i.startkit_adc_acquire_if._chan_y.trigger
	.cfi_endproc

	.weak	_i.i2c_external_commands_if._chan.command
	.align	4
	.type	_i.i2c_external_commands_if._chan.command,@function
	.cc_top _i.i2c_external_commands_if._chan.command.function,_i.i2c_external_commands_if._chan.command
_i.i2c_external_commands_if._chan.command:
	.cfi_startproc
	getr r2, 2
	setd res[r2], r0
	add r0, r2, 1
	out res[r2], r0
	outct res[r2], 2
	chkct res[r2], 1
	out res[r2], r1
	outct res[r2], 2
	in r0, res[r2]
	chkct res[r2], 1
	freer res[r2]
	retsp 0
	# RETURN_REG_HOLDER
	.cc_bottom _i.i2c_external_commands_if._chan.command.function
	.set	_i.i2c_external_commands_if._chan.command.nstackwords,0
	.globl	_i.i2c_external_commands_if._chan.command.nstackwords
	.weak	_i.i2c_external_commands_if._chan.command.nstackwords
	.set	_i.i2c_external_commands_if._chan.command.maxcores,1
	.globl	_i.i2c_external_commands_if._chan.command.maxcores
	.weak	_i.i2c_external_commands_if._chan.command.maxcores
	.set	_i.i2c_external_commands_if._chan.command.maxtimers,0
	.globl	_i.i2c_external_commands_if._chan.command.maxtimers
	.weak	_i.i2c_external_commands_if._chan.command.maxtimers
	.set	_i.i2c_external_commands_if._chan.command.maxchanends,1
	.globl	_i.i2c_external_commands_if._chan.command.maxchanends
	.weak	_i.i2c_external_commands_if._chan.command.maxchanends
.Ltmp41:
	.size	_i.i2c_external_commands_if._chan.command, .Ltmp41-_i.i2c_external_commands_if._chan.command
	.cfi_endproc

	.weak	_i.i2c_external_commands_if._chan.read_temperature_ok
	.align	4
	.type	_i.i2c_external_commands_if._chan.read_temperature_ok,@function
	.cc_top _i.i2c_external_commands_if._chan.read_temperature_ok.function,_i.i2c_external_commands_if._chan.read_temperature_ok
_i.i2c_external_commands_if._chan.read_temperature_ok:
	.cfi_startproc
	entsp 2
.Ltmp42:
	.cfi_def_cfa_offset 8
.Ltmp43:
	.cfi_offset 15, 0
	stw r4, sp[1]
.Ltmp44:
	.cfi_offset 4, -4
	mov r3, r0
	getr r4, 2
	setd res[r4], r1
	out res[r4], r4
	outct res[r4], 2
	chkct res[r4], 1
	out res[r4], r2
	outct res[r4], 2
	in r0, res[r4]
	ldc r2, 20
	mov r0, r4
	mov r1, r3
	bl sin_char_array
	chkct res[r4], 1
	freer res[r4]
	ldw r4, sp[1]
	retsp 2
	# RETURN_REG_HOLDER
	.cc_bottom _i.i2c_external_commands_if._chan.read_temperature_ok.function
	.set	_i.i2c_external_commands_if._chan.read_temperature_ok.nstackwords,(sin_char_array.nstackwords + 2)
	.globl	_i.i2c_external_commands_if._chan.read_temperature_ok.nstackwords
	.weak	_i.i2c_external_commands_if._chan.read_temperature_ok.nstackwords
	.set	_i.i2c_external_commands_if._chan.read_temperature_ok.maxcores,sin_char_array.maxcores $M 1
	.globl	_i.i2c_external_commands_if._chan.read_temperature_ok.maxcores
	.weak	_i.i2c_external_commands_if._chan.read_temperature_ok.maxcores
	.set	_i.i2c_external_commands_if._chan.read_temperature_ok.maxtimers,sin_char_array.maxtimers $M 0
	.globl	_i.i2c_external_commands_if._chan.read_temperature_ok.maxtimers
	.weak	_i.i2c_external_commands_if._chan.read_temperature_ok.maxtimers
	.set	_i.i2c_external_commands_if._chan.read_temperature_ok.maxchanends,(1 + sin_char_array.maxchanends) $M 1
	.globl	_i.i2c_external_commands_if._chan.read_temperature_ok.maxchanends
	.weak	_i.i2c_external_commands_if._chan.read_temperature_ok.maxchanends
.Ltmp45:
	.size	_i.i2c_external_commands_if._chan.read_temperature_ok, .Ltmp45-_i.i2c_external_commands_if._chan.read_temperature_ok
	.cfi_endproc

	.weak	_i.i2c_external_commands_if._chan_y.command
	.align	4
	.type	_i.i2c_external_commands_if._chan_y.command,@function
	.cc_top _i.i2c_external_commands_if._chan_y.command.function,_i.i2c_external_commands_if._chan_y.command
_i.i2c_external_commands_if._chan_y.command:
	.cfi_startproc
	entsp 2
.Ltmp46:
	.cfi_def_cfa_offset 8
.Ltmp47:
	.cfi_offset 15, 0
	stw r4, sp[1]
.Ltmp48:
	.cfi_offset 4, -4
	ldw r2, r0[0]
	getr r4, 2
	setd res[r4], r2
	add r2, r4, 1
	out res[r4], r2
	outct res[r4], 2
	chkct res[r4], 1
	out res[r4], r1
	outct res[r4], 2
	ldw r2, r0[1]
	ldc r1, 0
	mov r0, r4
	bl __interface_client_call_y
	chkct res[r4], 1
	freer res[r4]
	ldw r4, sp[1]
	retsp 2
	# RETURN_REG_HOLDER
	.cc_bottom _i.i2c_external_commands_if._chan_y.command.function
	.set	_i.i2c_external_commands_if._chan_y.command.nstackwords,((_i.i2c_external_commands_if._client_call_y.max.nstackwords $M ($D __interface_client_call_y.nstackwords ? __interface_client_call_y.nstackwords $: _i.i2c_external_commands_if._client_call_y.max.nstackwords)) + 2)
	.globl	_i.i2c_external_commands_if._chan_y.command.nstackwords
	.weak	_i.i2c_external_commands_if._chan_y.command.nstackwords
	.set	_i.i2c_external_commands_if._chan_y.command.maxcores,($D __interface_client_call_y.maxcores ? __interface_client_call_y.maxcores $: _i.i2c_external_commands_if._client_call_y.max.maxcores) $M 1
	.globl	_i.i2c_external_commands_if._chan_y.command.maxcores
	.weak	_i.i2c_external_commands_if._chan_y.command.maxcores
	.set	_i.i2c_external_commands_if._chan_y.command.maxtimers,($D __interface_client_call_y.maxtimers ? __interface_client_call_y.maxtimers $: _i.i2c_external_commands_if._client_call_y.max.maxtimers) $M 0
	.globl	_i.i2c_external_commands_if._chan_y.command.maxtimers
	.weak	_i.i2c_external_commands_if._chan_y.command.maxtimers
	.set	_i.i2c_external_commands_if._chan_y.command.maxchanends,(1 + ($D __interface_client_call_y.maxchanends ? __interface_client_call_y.maxchanends $: _i.i2c_external_commands_if._client_call_y.max.maxchanends)) $M 1
	.globl	_i.i2c_external_commands_if._chan_y.command.maxchanends
	.weak	_i.i2c_external_commands_if._chan_y.command.maxchanends
.Ltmp49:
	.size	_i.i2c_external_commands_if._chan_y.command, .Ltmp49-_i.i2c_external_commands_if._chan_y.command
	.cfi_endproc

	.weak	_i.i2c_external_commands_if._chan_y.read_temperature_ok
	.align	4
	.type	_i.i2c_external_commands_if._chan_y.read_temperature_ok,@function
	.cc_top _i.i2c_external_commands_if._chan_y.read_temperature_ok.function,_i.i2c_external_commands_if._chan_y.read_temperature_ok
_i.i2c_external_commands_if._chan_y.read_temperature_ok:
	.cfi_startproc
	entsp 3
.Ltmp50:
	.cfi_def_cfa_offset 12
.Ltmp51:
	.cfi_offset 15, 0
	stw r4, sp[2]
.Ltmp52:
	.cfi_offset 4, -4
	stw r5, sp[1]
.Ltmp53:
	.cfi_offset 5, -8
	mov r4, r0
	ldw r0, r1[0]
	getr r5, 2
	setd res[r5], r0
	out res[r5], r5
	outct res[r5], 2
	chkct res[r5], 1
	out res[r5], r2
	outct res[r5], 2
	ldw r2, r1[1]
	ldc r1, 0
	mov r0, r5
	bl __interface_client_call_y
	ldc r2, 20
	mov r0, r5
	mov r1, r4
	bl sin_char_array
	chkct res[r5], 1
	freer res[r5]
	ldw r5, sp[1]
	ldw r4, sp[2]
	retsp 3
	# RETURN_REG_HOLDER
	.cc_bottom _i.i2c_external_commands_if._chan_y.read_temperature_ok.function
	.set	_i.i2c_external_commands_if._chan_y.read_temperature_ok.nstackwords,((_i.i2c_external_commands_if._client_call_y.max.nstackwords $M ($D __interface_client_call_y.nstackwords ? __interface_client_call_y.nstackwords $: _i.i2c_external_commands_if._client_call_y.max.nstackwords) $M sin_char_array.nstackwords) + 3)
	.globl	_i.i2c_external_commands_if._chan_y.read_temperature_ok.nstackwords
	.weak	_i.i2c_external_commands_if._chan_y.read_temperature_ok.nstackwords
	.set	_i.i2c_external_commands_if._chan_y.read_temperature_ok.maxcores,($D __interface_client_call_y.maxcores ? __interface_client_call_y.maxcores $: _i.i2c_external_commands_if._client_call_y.max.maxcores) $M sin_char_array.maxcores $M 1
	.globl	_i.i2c_external_commands_if._chan_y.read_temperature_ok.maxcores
	.weak	_i.i2c_external_commands_if._chan_y.read_temperature_ok.maxcores
	.set	_i.i2c_external_commands_if._chan_y.read_temperature_ok.maxtimers,($D __interface_client_call_y.maxtimers ? __interface_client_call_y.maxtimers $: _i.i2c_external_commands_if._client_call_y.max.maxtimers) $M sin_char_array.maxtimers $M 0
	.globl	_i.i2c_external_commands_if._chan_y.read_temperature_ok.maxtimers
	.weak	_i.i2c_external_commands_if._chan_y.read_temperature_ok.maxtimers
	.set	_i.i2c_external_commands_if._chan_y.read_temperature_ok.maxchanends,(1 + ($D __interface_client_call_y.maxchanends ? __interface_client_call_y.maxchanends $: _i.i2c_external_commands_if._client_call_y.max.maxchanends)) $M (1 + sin_char_array.maxchanends) $M 1
	.globl	_i.i2c_external_commands_if._chan_y.read_temperature_ok.maxchanends
	.weak	_i.i2c_external_commands_if._chan_y.read_temperature_ok.maxchanends
.Ltmp54:
	.size	_i.i2c_external_commands_if._chan_y.read_temperature_ok, .Ltmp54-_i.i2c_external_commands_if._chan_y.read_temperature_ok
	.cfi_endproc

	.weak	_i.i2c_internal_commands_if._chan.write_chronodot_ok
	.align	4
	.type	_i.i2c_internal_commands_if._chan.write_chronodot_ok,@function
	.cc_top _i.i2c_internal_commands_if._chan.write_chronodot_ok.function,_i.i2c_internal_commands_if._chan.write_chronodot_ok
_i.i2c_internal_commands_if._chan.write_chronodot_ok:
	.cfi_startproc
	entsp 11
.Ltmp55:
	.cfi_def_cfa_offset 44
.Ltmp56:
	.cfi_offset 15, 0
	stw r4, sp[10]
.Ltmp57:
	.cfi_offset 4, -4
	stw r5, sp[9]
.Ltmp58:
	.cfi_offset 5, -8
	stw r6, sp[8]
.Ltmp59:
	.cfi_offset 6, -12
	stw r7, sp[7]
.Ltmp60:
	.cfi_offset 7, -16
	stw r8, sp[6]
.Ltmp61:
	.cfi_offset 8, -20
	mov r4, r1
	mov r5, r0
	ldaw r6, sp[1]
	ldc r7, 19
	mov r0, r6
	mov r1, r2
	mov r2, r7
	bl memcpy
	getr r8, 2
	setd res[r8], r5
	add r0, r8, 2
	out res[r8], r0
	outct res[r8], 2
	chkct res[r8], 1
	outt res[r8], r4
	mov r0, r8
	mov r1, r6
	mov r2, r7
	bl sout_char_array
	outct res[r8], 2
	in r0, res[r8]
	in r0, res[r8]
	chkct res[r8], 1
	freer res[r8]
	ldw r8, sp[6]
	ldw r7, sp[7]
	ldw r6, sp[8]
	ldw r5, sp[9]
	ldw r4, sp[10]
	retsp 11
	# RETURN_REG_HOLDER
	.cc_bottom _i.i2c_internal_commands_if._chan.write_chronodot_ok.function
	.set	_i.i2c_internal_commands_if._chan.write_chronodot_ok.nstackwords,((memcpy.nstackwords $M sout_char_array.nstackwords) + 11)
	.globl	_i.i2c_internal_commands_if._chan.write_chronodot_ok.nstackwords
	.weak	_i.i2c_internal_commands_if._chan.write_chronodot_ok.nstackwords
	.set	_i.i2c_internal_commands_if._chan.write_chronodot_ok.maxcores,sout_char_array.maxcores $M 1
	.globl	_i.i2c_internal_commands_if._chan.write_chronodot_ok.maxcores
	.weak	_i.i2c_internal_commands_if._chan.write_chronodot_ok.maxcores
	.set	_i.i2c_internal_commands_if._chan.write_chronodot_ok.maxtimers,sout_char_array.maxtimers $M 0
	.globl	_i.i2c_internal_commands_if._chan.write_chronodot_ok.maxtimers
	.weak	_i.i2c_internal_commands_if._chan.write_chronodot_ok.maxtimers
	.set	_i.i2c_internal_commands_if._chan.write_chronodot_ok.maxchanends,(1 + sout_char_array.maxchanends) $M 1
	.globl	_i.i2c_internal_commands_if._chan.write_chronodot_ok.maxchanends
	.weak	_i.i2c_internal_commands_if._chan.write_chronodot_ok.maxchanends
.Ltmp62:
	.size	_i.i2c_internal_commands_if._chan.write_chronodot_ok, .Ltmp62-_i.i2c_internal_commands_if._chan.write_chronodot_ok
	.cfi_endproc

	.weak	_i.i2c_internal_commands_if._chan.read_chronodot_ok
	.align	4
	.type	_i.i2c_internal_commands_if._chan.read_chronodot_ok,@function
	.cc_top _i.i2c_internal_commands_if._chan.read_chronodot_ok.function,_i.i2c_internal_commands_if._chan.read_chronodot_ok
_i.i2c_internal_commands_if._chan.read_chronodot_ok:
	.cfi_startproc
	entsp 11
.Ltmp63:
	.cfi_def_cfa_offset 44
.Ltmp64:
	.cfi_offset 15, 0
	stw r4, sp[10]
.Ltmp65:
	.cfi_offset 4, -4
	stw r5, sp[9]
.Ltmp66:
	.cfi_offset 5, -8
	stw r6, sp[8]
.Ltmp67:
	.cfi_offset 6, -12
	stw r7, sp[7]
.Ltmp68:
	.cfi_offset 7, -16
	stw r8, sp[6]
.Ltmp69:
	.cfi_offset 8, -20
	mov r5, r0
	getr r4, 2
	setd res[r4], r1
	add r0, r4, 1
	out res[r4], r0
	outct res[r4], 2
	chkct res[r4], 1
	outt res[r4], r2
	outct res[r4], 2
	in r0, res[r4]
	ldaw r6, sp[1]
	ldc r7, 19
	mov r0, r4
	mov r1, r6
	mov r2, r7
	bl sin_char_array
	in r8, res[r4]
	chkct res[r4], 1
	mov r0, r5
	mov r1, r6
	mov r2, r7
	bl memcpy
	freer res[r4]
	mov r0, r8
	ldw r8, sp[6]
	ldw r7, sp[7]
	ldw r6, sp[8]
	ldw r5, sp[9]
	ldw r4, sp[10]
	retsp 11
	# RETURN_REG_HOLDER
	.cc_bottom _i.i2c_internal_commands_if._chan.read_chronodot_ok.function
	.set	_i.i2c_internal_commands_if._chan.read_chronodot_ok.nstackwords,((sin_char_array.nstackwords $M memcpy.nstackwords) + 11)
	.globl	_i.i2c_internal_commands_if._chan.read_chronodot_ok.nstackwords
	.weak	_i.i2c_internal_commands_if._chan.read_chronodot_ok.nstackwords
	.set	_i.i2c_internal_commands_if._chan.read_chronodot_ok.maxcores,sin_char_array.maxcores $M 1
	.globl	_i.i2c_internal_commands_if._chan.read_chronodot_ok.maxcores
	.weak	_i.i2c_internal_commands_if._chan.read_chronodot_ok.maxcores
	.set	_i.i2c_internal_commands_if._chan.read_chronodot_ok.maxtimers,sin_char_array.maxtimers $M 0
	.globl	_i.i2c_internal_commands_if._chan.read_chronodot_ok.maxtimers
	.weak	_i.i2c_internal_commands_if._chan.read_chronodot_ok.maxtimers
	.set	_i.i2c_internal_commands_if._chan.read_chronodot_ok.maxchanends,(1 + sin_char_array.maxchanends) $M 1
	.globl	_i.i2c_internal_commands_if._chan.read_chronodot_ok.maxchanends
	.weak	_i.i2c_internal_commands_if._chan.read_chronodot_ok.maxchanends
.Ltmp70:
	.size	_i.i2c_internal_commands_if._chan.read_chronodot_ok, .Ltmp70-_i.i2c_internal_commands_if._chan.read_chronodot_ok
	.cfi_endproc

	.weak	_i.i2c_internal_commands_if._chan.write_display_ok
	.align	4
	.type	_i.i2c_internal_commands_if._chan.write_display_ok,@function
	.cc_top _i.i2c_internal_commands_if._chan.write_display_ok.function,_i.i2c_internal_commands_if._chan.write_display_ok
_i.i2c_internal_commands_if._chan.write_display_ok:
	.cfi_startproc
	entsp 4
.Ltmp71:
	.cfi_def_cfa_offset 16
.Ltmp72:
	.cfi_offset 15, 0
	stw r4, sp[3]
.Ltmp73:
	.cfi_offset 4, -4
	stw r5, sp[2]
.Ltmp74:
	.cfi_offset 5, -8
	ldw r11, sp[5]
	ldw r5, sp[6]
	getr r4, 2
	setd res[r4], r0
	out res[r4], r4
	outct res[r4], 2
	chkct res[r4], 1
	outt res[r4], r1
	outt res[r4], r2
	out res[r4], r5
	stw r3, sp[1]
	out res[r4], r11
	outct res[r4], 2
	ldaw r1, sp[1]
	mov r0, r4
	bl __interface_client_call
	in r0, res[r4]
	chkct res[r4], 1
	freer res[r4]
	ldw r5, sp[2]
	ldw r4, sp[3]
	retsp 4
	# RETURN_REG_HOLDER
	.cc_bottom _i.i2c_internal_commands_if._chan.write_display_ok.function
	.set	_i.i2c_internal_commands_if._chan.write_display_ok.nstackwords,(__interface_client_call.nstackwords + 4)
	.globl	_i.i2c_internal_commands_if._chan.write_display_ok.nstackwords
	.weak	_i.i2c_internal_commands_if._chan.write_display_ok.nstackwords
	.set	_i.i2c_internal_commands_if._chan.write_display_ok.maxcores,__interface_client_call.maxcores $M 1
	.globl	_i.i2c_internal_commands_if._chan.write_display_ok.maxcores
	.weak	_i.i2c_internal_commands_if._chan.write_display_ok.maxcores
	.set	_i.i2c_internal_commands_if._chan.write_display_ok.maxtimers,__interface_client_call.maxtimers $M 0
	.globl	_i.i2c_internal_commands_if._chan.write_display_ok.maxtimers
	.weak	_i.i2c_internal_commands_if._chan.write_display_ok.maxtimers
	.set	_i.i2c_internal_commands_if._chan.write_display_ok.maxchanends,(1 + __interface_client_call.maxchanends) $M 1
	.globl	_i.i2c_internal_commands_if._chan.write_display_ok.maxchanends
	.weak	_i.i2c_internal_commands_if._chan.write_display_ok.maxchanends
.Ltmp75:
	.size	_i.i2c_internal_commands_if._chan.write_display_ok, .Ltmp75-_i.i2c_internal_commands_if._chan.write_display_ok
	.cfi_endproc

	.weak	_i.i2c_internal_commands_if._chan_y.write_chronodot_ok
	.align	4
	.type	_i.i2c_internal_commands_if._chan_y.write_chronodot_ok,@function
	.cc_top _i.i2c_internal_commands_if._chan_y.write_chronodot_ok.function,_i.i2c_internal_commands_if._chan_y.write_chronodot_ok
_i.i2c_internal_commands_if._chan_y.write_chronodot_ok:
	.cfi_startproc
	entsp 11
.Ltmp76:
	.cfi_def_cfa_offset 44
.Ltmp77:
	.cfi_offset 15, 0
	stw r4, sp[10]
.Ltmp78:
	.cfi_offset 4, -4
	stw r5, sp[9]
.Ltmp79:
	.cfi_offset 5, -8
	stw r6, sp[8]
.Ltmp80:
	.cfi_offset 6, -12
	stw r7, sp[7]
.Ltmp81:
	.cfi_offset 7, -16
	stw r8, sp[6]
.Ltmp82:
	.cfi_offset 8, -20
	mov r4, r1
	mov r5, r0
	ldaw r6, sp[1]
	ldc r7, 19
	mov r0, r6
	mov r1, r2
	mov r2, r7
	bl memcpy
	ldw r0, r5[0]
	getr r8, 2
	setd res[r8], r0
	add r0, r8, 2
	out res[r8], r0
	outct res[r8], 2
	chkct res[r8], 1
	outt res[r8], r4
	mov r0, r8
	mov r1, r6
	mov r2, r7
	bl sout_char_array
	outct res[r8], 2
	ldw r2, r5[1]
	ldc r1, 0
	mov r0, r8
	bl __interface_client_call_y
	in r0, res[r8]
	chkct res[r8], 1
	freer res[r8]
	ldw r8, sp[6]
	ldw r7, sp[7]
	ldw r6, sp[8]
	ldw r5, sp[9]
	ldw r4, sp[10]
	retsp 11
	# RETURN_REG_HOLDER
	.cc_bottom _i.i2c_internal_commands_if._chan_y.write_chronodot_ok.function
	.set	_i.i2c_internal_commands_if._chan_y.write_chronodot_ok.nstackwords,((memcpy.nstackwords $M sout_char_array.nstackwords $M _i.i2c_internal_commands_if._client_call_y.max.nstackwords $M ($D __interface_client_call_y.nstackwords ? __interface_client_call_y.nstackwords $: _i.i2c_internal_commands_if._client_call_y.max.nstackwords)) + 11)
	.globl	_i.i2c_internal_commands_if._chan_y.write_chronodot_ok.nstackwords
	.weak	_i.i2c_internal_commands_if._chan_y.write_chronodot_ok.nstackwords
	.set	_i.i2c_internal_commands_if._chan_y.write_chronodot_ok.maxcores,($D __interface_client_call_y.maxcores ? __interface_client_call_y.maxcores $: _i.i2c_internal_commands_if._client_call_y.max.maxcores) $M sout_char_array.maxcores $M 1
	.globl	_i.i2c_internal_commands_if._chan_y.write_chronodot_ok.maxcores
	.weak	_i.i2c_internal_commands_if._chan_y.write_chronodot_ok.maxcores
	.set	_i.i2c_internal_commands_if._chan_y.write_chronodot_ok.maxtimers,($D __interface_client_call_y.maxtimers ? __interface_client_call_y.maxtimers $: _i.i2c_internal_commands_if._client_call_y.max.maxtimers) $M sout_char_array.maxtimers $M 0
	.globl	_i.i2c_internal_commands_if._chan_y.write_chronodot_ok.maxtimers
	.weak	_i.i2c_internal_commands_if._chan_y.write_chronodot_ok.maxtimers
	.set	_i.i2c_internal_commands_if._chan_y.write_chronodot_ok.maxchanends,(1 + ($D __interface_client_call_y.maxchanends ? __interface_client_call_y.maxchanends $: _i.i2c_internal_commands_if._client_call_y.max.maxchanends)) $M (1 + sout_char_array.maxchanends) $M 1
	.globl	_i.i2c_internal_commands_if._chan_y.write_chronodot_ok.maxchanends
	.weak	_i.i2c_internal_commands_if._chan_y.write_chronodot_ok.maxchanends
.Ltmp83:
	.size	_i.i2c_internal_commands_if._chan_y.write_chronodot_ok, .Ltmp83-_i.i2c_internal_commands_if._chan_y.write_chronodot_ok
	.cfi_endproc

	.weak	_i.i2c_internal_commands_if._chan_y.read_chronodot_ok
	.align	4
	.type	_i.i2c_internal_commands_if._chan_y.read_chronodot_ok,@function
	.cc_top _i.i2c_internal_commands_if._chan_y.read_chronodot_ok.function,_i.i2c_internal_commands_if._chan_y.read_chronodot_ok
_i.i2c_internal_commands_if._chan_y.read_chronodot_ok:
	.cfi_startproc
	entsp 11
.Ltmp84:
	.cfi_def_cfa_offset 44
.Ltmp85:
	.cfi_offset 15, 0
	stw r4, sp[10]
.Ltmp86:
	.cfi_offset 4, -4
	stw r5, sp[9]
.Ltmp87:
	.cfi_offset 5, -8
	stw r6, sp[8]
.Ltmp88:
	.cfi_offset 6, -12
	stw r7, sp[7]
.Ltmp89:
	.cfi_offset 7, -16
	stw r8, sp[6]
.Ltmp90:
	.cfi_offset 8, -20
	mov r5, r0
	ldw r0, r1[0]
	getr r4, 2
	setd res[r4], r0
	add r0, r4, 1
	out res[r4], r0
	outct res[r4], 2
	chkct res[r4], 1
	outt res[r4], r2
	outct res[r4], 2
	ldw r2, r1[1]
	ldc r1, 0
	mov r0, r4
	bl __interface_client_call_y
	ldaw r6, sp[1]
	ldc r7, 19
	mov r0, r4
	mov r1, r6
	mov r2, r7
	bl sin_char_array
	in r8, res[r4]
	chkct res[r4], 1
	mov r0, r5
	mov r1, r6
	mov r2, r7
	bl memcpy
	freer res[r4]
	mov r0, r8
	ldw r8, sp[6]
	ldw r7, sp[7]
	ldw r6, sp[8]
	ldw r5, sp[9]
	ldw r4, sp[10]
	retsp 11
	# RETURN_REG_HOLDER
	.cc_bottom _i.i2c_internal_commands_if._chan_y.read_chronodot_ok.function
	.set	_i.i2c_internal_commands_if._chan_y.read_chronodot_ok.nstackwords,((_i.i2c_internal_commands_if._client_call_y.max.nstackwords $M ($D __interface_client_call_y.nstackwords ? __interface_client_call_y.nstackwords $: _i.i2c_internal_commands_if._client_call_y.max.nstackwords) $M sin_char_array.nstackwords $M memcpy.nstackwords) + 11)
	.globl	_i.i2c_internal_commands_if._chan_y.read_chronodot_ok.nstackwords
	.weak	_i.i2c_internal_commands_if._chan_y.read_chronodot_ok.nstackwords
	.set	_i.i2c_internal_commands_if._chan_y.read_chronodot_ok.maxcores,($D __interface_client_call_y.maxcores ? __interface_client_call_y.maxcores $: _i.i2c_internal_commands_if._client_call_y.max.maxcores) $M sin_char_array.maxcores $M 1
	.globl	_i.i2c_internal_commands_if._chan_y.read_chronodot_ok.maxcores
	.weak	_i.i2c_internal_commands_if._chan_y.read_chronodot_ok.maxcores
	.set	_i.i2c_internal_commands_if._chan_y.read_chronodot_ok.maxtimers,($D __interface_client_call_y.maxtimers ? __interface_client_call_y.maxtimers $: _i.i2c_internal_commands_if._client_call_y.max.maxtimers) $M sin_char_array.maxtimers $M 0
	.globl	_i.i2c_internal_commands_if._chan_y.read_chronodot_ok.maxtimers
	.weak	_i.i2c_internal_commands_if._chan_y.read_chronodot_ok.maxtimers
	.set	_i.i2c_internal_commands_if._chan_y.read_chronodot_ok.maxchanends,(1 + ($D __interface_client_call_y.maxchanends ? __interface_client_call_y.maxchanends $: _i.i2c_internal_commands_if._client_call_y.max.maxchanends)) $M (1 + sin_char_array.maxchanends) $M 1
	.globl	_i.i2c_internal_commands_if._chan_y.read_chronodot_ok.maxchanends
	.weak	_i.i2c_internal_commands_if._chan_y.read_chronodot_ok.maxchanends
.Ltmp91:
	.size	_i.i2c_internal_commands_if._chan_y.read_chronodot_ok, .Ltmp91-_i.i2c_internal_commands_if._chan_y.read_chronodot_ok
	.cfi_endproc

	.weak	_i.i2c_internal_commands_if._chan_y.write_display_ok
	.align	4
	.type	_i.i2c_internal_commands_if._chan_y.write_display_ok,@function
	.cc_top _i.i2c_internal_commands_if._chan_y.write_display_ok.function,_i.i2c_internal_commands_if._chan_y.write_display_ok
_i.i2c_internal_commands_if._chan_y.write_display_ok:
	.cfi_startproc
	entsp 5
.Ltmp92:
	.cfi_def_cfa_offset 20
.Ltmp93:
	.cfi_offset 15, 0
	stw r4, sp[4]
.Ltmp94:
	.cfi_offset 4, -4
	stw r5, sp[3]
.Ltmp95:
	.cfi_offset 5, -8
	stw r6, sp[2]
.Ltmp96:
	.cfi_offset 6, -12
	ldw r11, sp[6]
	ldw r5, sp[7]
	ldw r6, r0[0]
	getr r4, 2
	setd res[r4], r6
	out res[r4], r4
	outct res[r4], 2
	chkct res[r4], 1
	outt res[r4], r1
	outt res[r4], r2
	out res[r4], r5
	stw r3, sp[1]
	out res[r4], r11
	outct res[r4], 2
	ldw r2, r0[1]
	ldaw r1, sp[1]
	mov r0, r4
	bl __interface_client_call_y
	in r0, res[r4]
	chkct res[r4], 1
	freer res[r4]
	ldw r6, sp[2]
	ldw r5, sp[3]
	ldw r4, sp[4]
	retsp 5
	# RETURN_REG_HOLDER
	.cc_bottom _i.i2c_internal_commands_if._chan_y.write_display_ok.function
	.set	_i.i2c_internal_commands_if._chan_y.write_display_ok.nstackwords,((_i.i2c_internal_commands_if._client_call_y.max.nstackwords $M ($D __interface_client_call_y.nstackwords ? __interface_client_call_y.nstackwords $: _i.i2c_internal_commands_if._client_call_y.max.nstackwords)) + 5)
	.globl	_i.i2c_internal_commands_if._chan_y.write_display_ok.nstackwords
	.weak	_i.i2c_internal_commands_if._chan_y.write_display_ok.nstackwords
	.set	_i.i2c_internal_commands_if._chan_y.write_display_ok.maxcores,($D __interface_client_call_y.maxcores ? __interface_client_call_y.maxcores $: _i.i2c_internal_commands_if._client_call_y.max.maxcores) $M 1
	.globl	_i.i2c_internal_commands_if._chan_y.write_display_ok.maxcores
	.weak	_i.i2c_internal_commands_if._chan_y.write_display_ok.maxcores
	.set	_i.i2c_internal_commands_if._chan_y.write_display_ok.maxtimers,($D __interface_client_call_y.maxtimers ? __interface_client_call_y.maxtimers $: _i.i2c_internal_commands_if._client_call_y.max.maxtimers) $M 0
	.globl	_i.i2c_internal_commands_if._chan_y.write_display_ok.maxtimers
	.weak	_i.i2c_internal_commands_if._chan_y.write_display_ok.maxtimers
	.set	_i.i2c_internal_commands_if._chan_y.write_display_ok.maxchanends,(1 + ($D __interface_client_call_y.maxchanends ? __interface_client_call_y.maxchanends $: _i.i2c_internal_commands_if._client_call_y.max.maxchanends)) $M 1
	.globl	_i.i2c_internal_commands_if._chan_y.write_display_ok.maxchanends
	.weak	_i.i2c_internal_commands_if._chan_y.write_display_ok.maxchanends
.Ltmp97:
	.size	_i.i2c_internal_commands_if._chan_y.write_display_ok, .Ltmp97-_i.i2c_internal_commands_if._chan_y.write_display_ok
	.cfi_endproc

	.weak	_i.port_heat_light_commands_if._chan.heat_cables_command
	.align	4
	.type	_i.port_heat_light_commands_if._chan.heat_cables_command,@function
	.cc_top _i.port_heat_light_commands_if._chan.heat_cables_command.function,_i.port_heat_light_commands_if._chan.heat_cables_command
_i.port_heat_light_commands_if._chan.heat_cables_command:
	.cfi_startproc
	getr r2, 2
	setd res[r2], r0
	add r0, r2, 2
	out res[r2], r0
	outct res[r2], 2
	chkct res[r2], 1
	out res[r2], r1
	outct res[r2], 2
	in r0, res[r2]
	chkct res[r2], 1
	freer res[r2]
	retsp 0
	# RETURN_REG_HOLDER
	.cc_bottom _i.port_heat_light_commands_if._chan.heat_cables_command.function
	.set	_i.port_heat_light_commands_if._chan.heat_cables_command.nstackwords,0
	.globl	_i.port_heat_light_commands_if._chan.heat_cables_command.nstackwords
	.weak	_i.port_heat_light_commands_if._chan.heat_cables_command.nstackwords
	.set	_i.port_heat_light_commands_if._chan.heat_cables_command.maxcores,1
	.globl	_i.port_heat_light_commands_if._chan.heat_cables_command.maxcores
	.weak	_i.port_heat_light_commands_if._chan.heat_cables_command.maxcores
	.set	_i.port_heat_light_commands_if._chan.heat_cables_command.maxtimers,0
	.globl	_i.port_heat_light_commands_if._chan.heat_cables_command.maxtimers
	.weak	_i.port_heat_light_commands_if._chan.heat_cables_command.maxtimers
	.set	_i.port_heat_light_commands_if._chan.heat_cables_command.maxchanends,1
	.globl	_i.port_heat_light_commands_if._chan.heat_cables_command.maxchanends
	.weak	_i.port_heat_light_commands_if._chan.heat_cables_command.maxchanends
.Ltmp98:
	.size	_i.port_heat_light_commands_if._chan.heat_cables_command, .Ltmp98-_i.port_heat_light_commands_if._chan.heat_cables_command
	.cfi_endproc

	.weak	_i.port_heat_light_commands_if._chan.beeper_on_command
	.align	4
	.type	_i.port_heat_light_commands_if._chan.beeper_on_command,@function
	.cc_top _i.port_heat_light_commands_if._chan.beeper_on_command.function,_i.port_heat_light_commands_if._chan.beeper_on_command
_i.port_heat_light_commands_if._chan.beeper_on_command:
	.cfi_startproc
	getr r2, 2
	setd res[r2], r0
	add r0, r2, 1
	out res[r2], r0
	outct res[r2], 2
	chkct res[r2], 1
	out res[r2], r1
	outct res[r2], 2
	in r0, res[r2]
	chkct res[r2], 1
	freer res[r2]
	retsp 0
	# RETURN_REG_HOLDER
	.cc_bottom _i.port_heat_light_commands_if._chan.beeper_on_command.function
	.set	_i.port_heat_light_commands_if._chan.beeper_on_command.nstackwords,0
	.globl	_i.port_heat_light_commands_if._chan.beeper_on_command.nstackwords
	.weak	_i.port_heat_light_commands_if._chan.beeper_on_command.nstackwords
	.set	_i.port_heat_light_commands_if._chan.beeper_on_command.maxcores,1
	.globl	_i.port_heat_light_commands_if._chan.beeper_on_command.maxcores
	.weak	_i.port_heat_light_commands_if._chan.beeper_on_command.maxcores
	.set	_i.port_heat_light_commands_if._chan.beeper_on_command.maxtimers,0
	.globl	_i.port_heat_light_commands_if._chan.beeper_on_command.maxtimers
	.weak	_i.port_heat_light_commands_if._chan.beeper_on_command.maxtimers
	.set	_i.port_heat_light_commands_if._chan.beeper_on_command.maxchanends,1
	.globl	_i.port_heat_light_commands_if._chan.beeper_on_command.maxchanends
	.weak	_i.port_heat_light_commands_if._chan.beeper_on_command.maxchanends
.Ltmp99:
	.size	_i.port_heat_light_commands_if._chan.beeper_on_command, .Ltmp99-_i.port_heat_light_commands_if._chan.beeper_on_command
	.cfi_endproc

	.weak	_i.port_heat_light_commands_if._chan.light_command
	.align	4
	.type	_i.port_heat_light_commands_if._chan.light_command,@function
	.cc_top _i.port_heat_light_commands_if._chan.light_command.function,_i.port_heat_light_commands_if._chan.light_command
_i.port_heat_light_commands_if._chan.light_command:
	.cfi_startproc
	getr r2, 2
	setd res[r2], r0
	out res[r2], r2
	outct res[r2], 2
	chkct res[r2], 1
	out res[r2], r1
	outct res[r2], 2
	in r0, res[r2]
	chkct res[r2], 1
	freer res[r2]
	retsp 0
	# RETURN_REG_HOLDER
	.cc_bottom _i.port_heat_light_commands_if._chan.light_command.function
	.set	_i.port_heat_light_commands_if._chan.light_command.nstackwords,0
	.globl	_i.port_heat_light_commands_if._chan.light_command.nstackwords
	.weak	_i.port_heat_light_commands_if._chan.light_command.nstackwords
	.set	_i.port_heat_light_commands_if._chan.light_command.maxcores,1
	.globl	_i.port_heat_light_commands_if._chan.light_command.maxcores
	.weak	_i.port_heat_light_commands_if._chan.light_command.maxcores
	.set	_i.port_heat_light_commands_if._chan.light_command.maxtimers,0
	.globl	_i.port_heat_light_commands_if._chan.light_command.maxtimers
	.weak	_i.port_heat_light_commands_if._chan.light_command.maxtimers
	.set	_i.port_heat_light_commands_if._chan.light_command.maxchanends,1
	.globl	_i.port_heat_light_commands_if._chan.light_command.maxchanends
	.weak	_i.port_heat_light_commands_if._chan.light_command.maxchanends
.Ltmp100:
	.size	_i.port_heat_light_commands_if._chan.light_command, .Ltmp100-_i.port_heat_light_commands_if._chan.light_command
	.cfi_endproc

	.weak	_i.port_heat_light_commands_if._chan_y.heat_cables_command
	.align	4
	.type	_i.port_heat_light_commands_if._chan_y.heat_cables_command,@function
	.cc_top _i.port_heat_light_commands_if._chan_y.heat_cables_command.function,_i.port_heat_light_commands_if._chan_y.heat_cables_command
_i.port_heat_light_commands_if._chan_y.heat_cables_command:
	.cfi_startproc
	entsp 2
.Ltmp101:
	.cfi_def_cfa_offset 8
.Ltmp102:
	.cfi_offset 15, 0
	stw r4, sp[1]
.Ltmp103:
	.cfi_offset 4, -4
	ldw r2, r0[0]
	getr r4, 2
	setd res[r4], r2
	add r2, r4, 2
	out res[r4], r2
	outct res[r4], 2
	chkct res[r4], 1
	out res[r4], r1
	outct res[r4], 2
	ldw r2, r0[1]
	ldc r1, 0
	mov r0, r4
	bl __interface_client_call_y
	chkct res[r4], 1
	freer res[r4]
	ldw r4, sp[1]
	retsp 2
	# RETURN_REG_HOLDER
	.cc_bottom _i.port_heat_light_commands_if._chan_y.heat_cables_command.function
	.set	_i.port_heat_light_commands_if._chan_y.heat_cables_command.nstackwords,((_i.port_heat_light_commands_if._client_call_y.max.nstackwords $M ($D __interface_client_call_y.nstackwords ? __interface_client_call_y.nstackwords $: _i.port_heat_light_commands_if._client_call_y.max.nstackwords)) + 2)
	.globl	_i.port_heat_light_commands_if._chan_y.heat_cables_command.nstackwords
	.weak	_i.port_heat_light_commands_if._chan_y.heat_cables_command.nstackwords
	.set	_i.port_heat_light_commands_if._chan_y.heat_cables_command.maxcores,($D __interface_client_call_y.maxcores ? __interface_client_call_y.maxcores $: _i.port_heat_light_commands_if._client_call_y.max.maxcores) $M 1
	.globl	_i.port_heat_light_commands_if._chan_y.heat_cables_command.maxcores
	.weak	_i.port_heat_light_commands_if._chan_y.heat_cables_command.maxcores
	.set	_i.port_heat_light_commands_if._chan_y.heat_cables_command.maxtimers,($D __interface_client_call_y.maxtimers ? __interface_client_call_y.maxtimers $: _i.port_heat_light_commands_if._client_call_y.max.maxtimers) $M 0
	.globl	_i.port_heat_light_commands_if._chan_y.heat_cables_command.maxtimers
	.weak	_i.port_heat_light_commands_if._chan_y.heat_cables_command.maxtimers
	.set	_i.port_heat_light_commands_if._chan_y.heat_cables_command.maxchanends,(1 + ($D __interface_client_call_y.maxchanends ? __interface_client_call_y.maxchanends $: _i.port_heat_light_commands_if._client_call_y.max.maxchanends)) $M 1
	.globl	_i.port_heat_light_commands_if._chan_y.heat_cables_command.maxchanends
	.weak	_i.port_heat_light_commands_if._chan_y.heat_cables_command.maxchanends
.Ltmp104:
	.size	_i.port_heat_light_commands_if._chan_y.heat_cables_command, .Ltmp104-_i.port_heat_light_commands_if._chan_y.heat_cables_command
	.cfi_endproc

	.weak	_i.port_heat_light_commands_if._chan_y.beeper_on_command
	.align	4
	.type	_i.port_heat_light_commands_if._chan_y.beeper_on_command,@function
	.cc_top _i.port_heat_light_commands_if._chan_y.beeper_on_command.function,_i.port_heat_light_commands_if._chan_y.beeper_on_command
_i.port_heat_light_commands_if._chan_y.beeper_on_command:
	.cfi_startproc
	entsp 2
.Ltmp105:
	.cfi_def_cfa_offset 8
.Ltmp106:
	.cfi_offset 15, 0
	stw r4, sp[1]
.Ltmp107:
	.cfi_offset 4, -4
	ldw r2, r0[0]
	getr r4, 2
	setd res[r4], r2
	add r2, r4, 1
	out res[r4], r2
	outct res[r4], 2
	chkct res[r4], 1
	out res[r4], r1
	outct res[r4], 2
	ldw r2, r0[1]
	ldc r1, 0
	mov r0, r4
	bl __interface_client_call_y
	chkct res[r4], 1
	freer res[r4]
	ldw r4, sp[1]
	retsp 2
	# RETURN_REG_HOLDER
	.cc_bottom _i.port_heat_light_commands_if._chan_y.beeper_on_command.function
	.set	_i.port_heat_light_commands_if._chan_y.beeper_on_command.nstackwords,((_i.port_heat_light_commands_if._client_call_y.max.nstackwords $M ($D __interface_client_call_y.nstackwords ? __interface_client_call_y.nstackwords $: _i.port_heat_light_commands_if._client_call_y.max.nstackwords)) + 2)
	.globl	_i.port_heat_light_commands_if._chan_y.beeper_on_command.nstackwords
	.weak	_i.port_heat_light_commands_if._chan_y.beeper_on_command.nstackwords
	.set	_i.port_heat_light_commands_if._chan_y.beeper_on_command.maxcores,($D __interface_client_call_y.maxcores ? __interface_client_call_y.maxcores $: _i.port_heat_light_commands_if._client_call_y.max.maxcores) $M 1
	.globl	_i.port_heat_light_commands_if._chan_y.beeper_on_command.maxcores
	.weak	_i.port_heat_light_commands_if._chan_y.beeper_on_command.maxcores
	.set	_i.port_heat_light_commands_if._chan_y.beeper_on_command.maxtimers,($D __interface_client_call_y.maxtimers ? __interface_client_call_y.maxtimers $: _i.port_heat_light_commands_if._client_call_y.max.maxtimers) $M 0
	.globl	_i.port_heat_light_commands_if._chan_y.beeper_on_command.maxtimers
	.weak	_i.port_heat_light_commands_if._chan_y.beeper_on_command.maxtimers
	.set	_i.port_heat_light_commands_if._chan_y.beeper_on_command.maxchanends,(1 + ($D __interface_client_call_y.maxchanends ? __interface_client_call_y.maxchanends $: _i.port_heat_light_commands_if._client_call_y.max.maxchanends)) $M 1
	.globl	_i.port_heat_light_commands_if._chan_y.beeper_on_command.maxchanends
	.weak	_i.port_heat_light_commands_if._chan_y.beeper_on_command.maxchanends
.Ltmp108:
	.size	_i.port_heat_light_commands_if._chan_y.beeper_on_command, .Ltmp108-_i.port_heat_light_commands_if._chan_y.beeper_on_command
	.cfi_endproc

	.weak	_i.port_heat_light_commands_if._chan_y.light_command
	.align	4
	.type	_i.port_heat_light_commands_if._chan_y.light_command,@function
	.cc_top _i.port_heat_light_commands_if._chan_y.light_command.function,_i.port_heat_light_commands_if._chan_y.light_command
_i.port_heat_light_commands_if._chan_y.light_command:
	.cfi_startproc
	entsp 2
.Ltmp109:
	.cfi_def_cfa_offset 8
.Ltmp110:
	.cfi_offset 15, 0
	stw r4, sp[1]
.Ltmp111:
	.cfi_offset 4, -4
	ldw r2, r0[0]
	getr r4, 2
	setd res[r4], r2
	out res[r4], r4
	outct res[r4], 2
	chkct res[r4], 1
	out res[r4], r1
	outct res[r4], 2
	ldw r2, r0[1]
	ldc r1, 0
	mov r0, r4
	bl __interface_client_call_y
	chkct res[r4], 1
	freer res[r4]
	ldw r4, sp[1]
	retsp 2
	# RETURN_REG_HOLDER
	.cc_bottom _i.port_heat_light_commands_if._chan_y.light_command.function
	.set	_i.port_heat_light_commands_if._chan_y.light_command.nstackwords,((_i.port_heat_light_commands_if._client_call_y.max.nstackwords $M ($D __interface_client_call_y.nstackwords ? __interface_client_call_y.nstackwords $: _i.port_heat_light_commands_if._client_call_y.max.nstackwords)) + 2)
	.globl	_i.port_heat_light_commands_if._chan_y.light_command.nstackwords
	.weak	_i.port_heat_light_commands_if._chan_y.light_command.nstackwords
	.set	_i.port_heat_light_commands_if._chan_y.light_command.maxcores,($D __interface_client_call_y.maxcores ? __interface_client_call_y.maxcores $: _i.port_heat_light_commands_if._client_call_y.max.maxcores) $M 1
	.globl	_i.port_heat_light_commands_if._chan_y.light_command.maxcores
	.weak	_i.port_heat_light_commands_if._chan_y.light_command.maxcores
	.set	_i.port_heat_light_commands_if._chan_y.light_command.maxtimers,($D __interface_client_call_y.maxtimers ? __interface_client_call_y.maxtimers $: _i.port_heat_light_commands_if._client_call_y.max.maxtimers) $M 0
	.globl	_i.port_heat_light_commands_if._chan_y.light_command.maxtimers
	.weak	_i.port_heat_light_commands_if._chan_y.light_command.maxtimers
	.set	_i.port_heat_light_commands_if._chan_y.light_command.maxchanends,(1 + ($D __interface_client_call_y.maxchanends ? __interface_client_call_y.maxchanends $: _i.port_heat_light_commands_if._client_call_y.max.maxchanends)) $M 1
	.globl	_i.port_heat_light_commands_if._chan_y.light_command.maxchanends
	.weak	_i.port_heat_light_commands_if._chan_y.light_command.maxchanends
.Ltmp112:
	.size	_i.port_heat_light_commands_if._chan_y.light_command, .Ltmp112-_i.port_heat_light_commands_if._chan_y.light_command
	.cfi_endproc

	.weak	_i.temperature_heater_commands_if._chan.get_regulator_data
	.align	4
	.type	_i.temperature_heater_commands_if._chan.get_regulator_data,@function
	.cc_top _i.temperature_heater_commands_if._chan.get_regulator_data.function,_i.temperature_heater_commands_if._chan.get_regulator_data
_i.temperature_heater_commands_if._chan.get_regulator_data:
	.cfi_startproc
	entsp 3
.Ltmp113:
	.cfi_def_cfa_offset 12
.Ltmp114:
	.cfi_offset 15, 0
	stw r4, sp[2]
.Ltmp115:
	.cfi_offset 4, -4
	stw r5, sp[1]
.Ltmp116:
	.cfi_offset 5, -8
	mov r4, r1
	getr r5, 2
	setd res[r5], r0
	add r0, r5, 4
	out res[r5], r0
	outct res[r5], 2
	ldc r1, 0
	mov r0, r5
	bl __interface_wait_and_yield
	chkct res[r5], 1
	out res[r5], r4
	outct res[r5], 2
	in r0, res[r5]
	in r0, res[r5]
	in r1, res[r5]
	chkct res[r5], 1
	freer res[r5]
	ldw r5, sp[1]
	ldw r4, sp[2]
	retsp 3
	# RETURN_REG_HOLDER
	.cc_bottom _i.temperature_heater_commands_if._chan.get_regulator_data.function
	.set	_i.temperature_heater_commands_if._chan.get_regulator_data.nstackwords,((_i.temperature_heater_commands_if._client_call_y.max.nstackwords $M ($D __interface_wait_and_yield.nstackwords ? __interface_wait_and_yield.nstackwords $: _i.temperature_heater_commands_if._client_call_y.max.nstackwords)) + 3)
	.globl	_i.temperature_heater_commands_if._chan.get_regulator_data.nstackwords
	.weak	_i.temperature_heater_commands_if._chan.get_regulator_data.nstackwords
	.set	_i.temperature_heater_commands_if._chan.get_regulator_data.maxcores,($D __interface_wait_and_yield.maxcores ? __interface_wait_and_yield.maxcores $: _i.temperature_heater_commands_if._client_call_y.max.maxcores) $M 1
	.globl	_i.temperature_heater_commands_if._chan.get_regulator_data.maxcores
	.weak	_i.temperature_heater_commands_if._chan.get_regulator_data.maxcores
	.set	_i.temperature_heater_commands_if._chan.get_regulator_data.maxtimers,($D __interface_wait_and_yield.maxtimers ? __interface_wait_and_yield.maxtimers $: _i.temperature_heater_commands_if._client_call_y.max.maxtimers) $M 0
	.globl	_i.temperature_heater_commands_if._chan.get_regulator_data.maxtimers
	.weak	_i.temperature_heater_commands_if._chan.get_regulator_data.maxtimers
	.set	_i.temperature_heater_commands_if._chan.get_regulator_data.maxchanends,(1 + ($D __interface_wait_and_yield.maxchanends ? __interface_wait_and_yield.maxchanends $: _i.temperature_heater_commands_if._client_call_y.max.maxchanends)) $M 1
	.globl	_i.temperature_heater_commands_if._chan.get_regulator_data.maxchanends
	.weak	_i.temperature_heater_commands_if._chan.get_regulator_data.maxchanends
.Ltmp117:
	.size	_i.temperature_heater_commands_if._chan.get_regulator_data, .Ltmp117-_i.temperature_heater_commands_if._chan.get_regulator_data
	.cfi_endproc

	.weak	_i.temperature_heater_commands_if._chan.get_temp_degC_string
	.align	4
	.type	_i.temperature_heater_commands_if._chan.get_temp_degC_string,@function
	.cc_top _i.temperature_heater_commands_if._chan.get_temp_degC_string.function,_i.temperature_heater_commands_if._chan.get_temp_degC_string
_i.temperature_heater_commands_if._chan.get_temp_degC_string:
	.cfi_startproc
	entsp 5
.Ltmp118:
	.cfi_def_cfa_offset 20
.Ltmp119:
	.cfi_offset 15, 0
	stw r4, sp[4]
.Ltmp120:
	.cfi_offset 4, -4
	stw r5, sp[3]
.Ltmp121:
	.cfi_offset 5, -8
	stw r6, sp[2]
.Ltmp122:
	.cfi_offset 6, -12
	mov r4, r2
	mov r5, r1
	getr r6, 2
	setd res[r6], r0
	add r0, r6, 3
	out res[r6], r0
	outct res[r6], 2
	ldc r1, 0
	mov r0, r6
	bl __interface_wait_and_yield
	chkct res[r6], 1
	out res[r6], r5
	stw r4, sp[1]
	outct res[r6], 2
	ldaw r1, sp[1]
	mov r0, r6
	bl __interface_client_call
	chkct res[r6], 1
	freer res[r6]
	ldw r6, sp[2]
	ldw r5, sp[3]
	ldw r4, sp[4]
	retsp 5
	# RETURN_REG_HOLDER
	.cc_bottom _i.temperature_heater_commands_if._chan.get_temp_degC_string.function
	.set	_i.temperature_heater_commands_if._chan.get_temp_degC_string.nstackwords,((_i.temperature_heater_commands_if._client_call_y.max.nstackwords $M ($D __interface_wait_and_yield.nstackwords ? __interface_wait_and_yield.nstackwords $: _i.temperature_heater_commands_if._client_call_y.max.nstackwords) $M __interface_client_call.nstackwords) + 5)
	.globl	_i.temperature_heater_commands_if._chan.get_temp_degC_string.nstackwords
	.weak	_i.temperature_heater_commands_if._chan.get_temp_degC_string.nstackwords
	.set	_i.temperature_heater_commands_if._chan.get_temp_degC_string.maxcores,__interface_client_call.maxcores $M ($D __interface_wait_and_yield.maxcores ? __interface_wait_and_yield.maxcores $: _i.temperature_heater_commands_if._client_call_y.max.maxcores) $M 1
	.globl	_i.temperature_heater_commands_if._chan.get_temp_degC_string.maxcores
	.weak	_i.temperature_heater_commands_if._chan.get_temp_degC_string.maxcores
	.set	_i.temperature_heater_commands_if._chan.get_temp_degC_string.maxtimers,__interface_client_call.maxtimers $M ($D __interface_wait_and_yield.maxtimers ? __interface_wait_and_yield.maxtimers $: _i.temperature_heater_commands_if._client_call_y.max.maxtimers) $M 0
	.globl	_i.temperature_heater_commands_if._chan.get_temp_degC_string.maxtimers
	.weak	_i.temperature_heater_commands_if._chan.get_temp_degC_string.maxtimers
	.set	_i.temperature_heater_commands_if._chan.get_temp_degC_string.maxchanends,(1 + __interface_client_call.maxchanends) $M (1 + ($D __interface_wait_and_yield.maxchanends ? __interface_wait_and_yield.maxchanends $: _i.temperature_heater_commands_if._client_call_y.max.maxchanends)) $M 1
	.globl	_i.temperature_heater_commands_if._chan.get_temp_degC_string.maxchanends
	.weak	_i.temperature_heater_commands_if._chan.get_temp_degC_string.maxchanends
.Ltmp123:
	.size	_i.temperature_heater_commands_if._chan.get_temp_degC_string, .Ltmp123-_i.temperature_heater_commands_if._chan.get_temp_degC_string
	.cfi_endproc

	.weak	_i.temperature_heater_commands_if._chan.get_temps
	.align	4
	.type	_i.temperature_heater_commands_if._chan.get_temps,@function
	.cc_top _i.temperature_heater_commands_if._chan.get_temps.function,_i.temperature_heater_commands_if._chan.get_temps
_i.temperature_heater_commands_if._chan.get_temps:
	.cfi_startproc
	entsp 4
.Ltmp124:
	.cfi_def_cfa_offset 16
.Ltmp125:
	.cfi_offset 15, 0
	stw r4, sp[3]
.Ltmp126:
	.cfi_offset 4, -4
	stw r5, sp[2]
.Ltmp127:
	.cfi_offset 5, -8
	mov r4, r1
	getr r5, 2
	setd res[r5], r0
	add r0, r5, 2
	out res[r5], r0
	outct res[r5], 2
	ldc r1, 0
	mov r0, r5
	bl __interface_wait_and_yield
	chkct res[r5], 1
	stw r4, sp[1]
	outct res[r5], 2
	ldaw r1, sp[1]
	mov r0, r5
	bl __interface_client_call
	chkct res[r5], 1
	freer res[r5]
	ldw r5, sp[2]
	ldw r4, sp[3]
	retsp 4
	# RETURN_REG_HOLDER
	.cc_bottom _i.temperature_heater_commands_if._chan.get_temps.function
	.set	_i.temperature_heater_commands_if._chan.get_temps.nstackwords,((_i.temperature_heater_commands_if._client_call_y.max.nstackwords $M ($D __interface_wait_and_yield.nstackwords ? __interface_wait_and_yield.nstackwords $: _i.temperature_heater_commands_if._client_call_y.max.nstackwords) $M __interface_client_call.nstackwords) + 4)
	.globl	_i.temperature_heater_commands_if._chan.get_temps.nstackwords
	.weak	_i.temperature_heater_commands_if._chan.get_temps.nstackwords
	.set	_i.temperature_heater_commands_if._chan.get_temps.maxcores,__interface_client_call.maxcores $M ($D __interface_wait_and_yield.maxcores ? __interface_wait_and_yield.maxcores $: _i.temperature_heater_commands_if._client_call_y.max.maxcores) $M 1
	.globl	_i.temperature_heater_commands_if._chan.get_temps.maxcores
	.weak	_i.temperature_heater_commands_if._chan.get_temps.maxcores
	.set	_i.temperature_heater_commands_if._chan.get_temps.maxtimers,__interface_client_call.maxtimers $M ($D __interface_wait_and_yield.maxtimers ? __interface_wait_and_yield.maxtimers $: _i.temperature_heater_commands_if._client_call_y.max.maxtimers) $M 0
	.globl	_i.temperature_heater_commands_if._chan.get_temps.maxtimers
	.weak	_i.temperature_heater_commands_if._chan.get_temps.maxtimers
	.set	_i.temperature_heater_commands_if._chan.get_temps.maxchanends,(1 + __interface_client_call.maxchanends) $M (1 + ($D __interface_wait_and_yield.maxchanends ? __interface_wait_and_yield.maxchanends $: _i.temperature_heater_commands_if._client_call_y.max.maxchanends)) $M 1
	.globl	_i.temperature_heater_commands_if._chan.get_temps.maxchanends
	.weak	_i.temperature_heater_commands_if._chan.get_temps.maxchanends
.Ltmp128:
	.size	_i.temperature_heater_commands_if._chan.get_temps, .Ltmp128-_i.temperature_heater_commands_if._chan.get_temps
	.cfi_endproc

	.weak	_i.temperature_heater_commands_if._chan.heater_set_temp_degC
	.align	4
	.type	_i.temperature_heater_commands_if._chan.heater_set_temp_degC,@function
	.cc_top _i.temperature_heater_commands_if._chan.heater_set_temp_degC.function,_i.temperature_heater_commands_if._chan.heater_set_temp_degC
_i.temperature_heater_commands_if._chan.heater_set_temp_degC:
	.cfi_startproc
	entsp 4
.Ltmp129:
	.cfi_def_cfa_offset 16
.Ltmp130:
	.cfi_offset 15, 0
	stw r4, sp[3]
.Ltmp131:
	.cfi_offset 4, -4
	stw r5, sp[2]
.Ltmp132:
	.cfi_offset 5, -8
	stw r6, sp[1]
.Ltmp133:
	.cfi_offset 6, -12
	mov r4, r2
	mov r5, r1
	getr r6, 2
	setd res[r6], r0
	add r0, r6, 1
	out res[r6], r0
	outct res[r6], 2
	ldc r1, 0
	mov r0, r6
	bl __interface_wait_and_yield
	chkct res[r6], 1
	out res[r6], r5
	out res[r6], r4
	outct res[r6], 2
	in r0, res[r6]
	chkct res[r6], 1
	freer res[r6]
	ldw r6, sp[1]
	ldw r5, sp[2]
	ldw r4, sp[3]
	retsp 4
	# RETURN_REG_HOLDER
	.cc_bottom _i.temperature_heater_commands_if._chan.heater_set_temp_degC.function
	.set	_i.temperature_heater_commands_if._chan.heater_set_temp_degC.nstackwords,((_i.temperature_heater_commands_if._client_call_y.max.nstackwords $M ($D __interface_wait_and_yield.nstackwords ? __interface_wait_and_yield.nstackwords $: _i.temperature_heater_commands_if._client_call_y.max.nstackwords)) + 4)
	.globl	_i.temperature_heater_commands_if._chan.heater_set_temp_degC.nstackwords
	.weak	_i.temperature_heater_commands_if._chan.heater_set_temp_degC.nstackwords
	.set	_i.temperature_heater_commands_if._chan.heater_set_temp_degC.maxcores,($D __interface_wait_and_yield.maxcores ? __interface_wait_and_yield.maxcores $: _i.temperature_heater_commands_if._client_call_y.max.maxcores) $M 1
	.globl	_i.temperature_heater_commands_if._chan.heater_set_temp_degC.maxcores
	.weak	_i.temperature_heater_commands_if._chan.heater_set_temp_degC.maxcores
	.set	_i.temperature_heater_commands_if._chan.heater_set_temp_degC.maxtimers,($D __interface_wait_and_yield.maxtimers ? __interface_wait_and_yield.maxtimers $: _i.temperature_heater_commands_if._client_call_y.max.maxtimers) $M 0
	.globl	_i.temperature_heater_commands_if._chan.heater_set_temp_degC.maxtimers
	.weak	_i.temperature_heater_commands_if._chan.heater_set_temp_degC.maxtimers
	.set	_i.temperature_heater_commands_if._chan.heater_set_temp_degC.maxchanends,(1 + ($D __interface_wait_and_yield.maxchanends ? __interface_wait_and_yield.maxchanends $: _i.temperature_heater_commands_if._client_call_y.max.maxchanends)) $M 1
	.globl	_i.temperature_heater_commands_if._chan.heater_set_temp_degC.maxchanends
	.weak	_i.temperature_heater_commands_if._chan.heater_set_temp_degC.maxchanends
.Ltmp134:
	.size	_i.temperature_heater_commands_if._chan.heater_set_temp_degC, .Ltmp134-_i.temperature_heater_commands_if._chan.heater_set_temp_degC
	.cfi_endproc

	.weak	_i.temperature_heater_commands_if._chan.heater_set_proportional
	.align	4
	.type	_i.temperature_heater_commands_if._chan.heater_set_proportional,@function
	.cc_top _i.temperature_heater_commands_if._chan.heater_set_proportional.function,_i.temperature_heater_commands_if._chan.heater_set_proportional
_i.temperature_heater_commands_if._chan.heater_set_proportional:
	.cfi_startproc
	entsp 4
.Ltmp135:
	.cfi_def_cfa_offset 16
.Ltmp136:
	.cfi_offset 15, 0
	stw r4, sp[3]
.Ltmp137:
	.cfi_offset 4, -4
	stw r5, sp[2]
.Ltmp138:
	.cfi_offset 5, -8
	stw r6, sp[1]
.Ltmp139:
	.cfi_offset 6, -12
	mov r4, r2
	mov r5, r1
	getr r6, 2
	setd res[r6], r0
	out res[r6], r6
	outct res[r6], 2
	ldc r1, 0
	mov r0, r6
	bl __interface_wait_and_yield
	chkct res[r6], 1
	out res[r6], r5
	out res[r6], r4
	outct res[r6], 2
	in r0, res[r6]
	chkct res[r6], 1
	freer res[r6]
	ldw r6, sp[1]
	ldw r5, sp[2]
	ldw r4, sp[3]
	retsp 4
	# RETURN_REG_HOLDER
	.cc_bottom _i.temperature_heater_commands_if._chan.heater_set_proportional.function
	.set	_i.temperature_heater_commands_if._chan.heater_set_proportional.nstackwords,((_i.temperature_heater_commands_if._client_call_y.max.nstackwords $M ($D __interface_wait_and_yield.nstackwords ? __interface_wait_and_yield.nstackwords $: _i.temperature_heater_commands_if._client_call_y.max.nstackwords)) + 4)
	.globl	_i.temperature_heater_commands_if._chan.heater_set_proportional.nstackwords
	.weak	_i.temperature_heater_commands_if._chan.heater_set_proportional.nstackwords
	.set	_i.temperature_heater_commands_if._chan.heater_set_proportional.maxcores,($D __interface_wait_and_yield.maxcores ? __interface_wait_and_yield.maxcores $: _i.temperature_heater_commands_if._client_call_y.max.maxcores) $M 1
	.globl	_i.temperature_heater_commands_if._chan.heater_set_proportional.maxcores
	.weak	_i.temperature_heater_commands_if._chan.heater_set_proportional.maxcores
	.set	_i.temperature_heater_commands_if._chan.heater_set_proportional.maxtimers,($D __interface_wait_and_yield.maxtimers ? __interface_wait_and_yield.maxtimers $: _i.temperature_heater_commands_if._client_call_y.max.maxtimers) $M 0
	.globl	_i.temperature_heater_commands_if._chan.heater_set_proportional.maxtimers
	.weak	_i.temperature_heater_commands_if._chan.heater_set_proportional.maxtimers
	.set	_i.temperature_heater_commands_if._chan.heater_set_proportional.maxchanends,(1 + ($D __interface_wait_and_yield.maxchanends ? __interface_wait_and_yield.maxchanends $: _i.temperature_heater_commands_if._client_call_y.max.maxchanends)) $M 1
	.globl	_i.temperature_heater_commands_if._chan.heater_set_proportional.maxchanends
	.weak	_i.temperature_heater_commands_if._chan.heater_set_proportional.maxchanends
.Ltmp140:
	.size	_i.temperature_heater_commands_if._chan.heater_set_proportional, .Ltmp140-_i.temperature_heater_commands_if._chan.heater_set_proportional
	.cfi_endproc

	.weak	_i.temperature_heater_commands_if._chan_y.get_regulator_data
	.align	4
	.type	_i.temperature_heater_commands_if._chan_y.get_regulator_data,@function
	.cc_top _i.temperature_heater_commands_if._chan_y.get_regulator_data.function,_i.temperature_heater_commands_if._chan_y.get_regulator_data
_i.temperature_heater_commands_if._chan_y.get_regulator_data:
	.cfi_startproc
	entsp 4
.Ltmp141:
	.cfi_def_cfa_offset 16
.Ltmp142:
	.cfi_offset 15, 0
	stw r4, sp[3]
.Ltmp143:
	.cfi_offset 4, -4
	stw r5, sp[2]
.Ltmp144:
	.cfi_offset 5, -8
	stw r6, sp[1]
.Ltmp145:
	.cfi_offset 6, -12
	mov r4, r1
	ldw r1, r0[0]
	getr r5, 2
	setd res[r5], r1
	add r1, r5, 4
	out res[r5], r1
	outct res[r5], 2
	ldw r6, r0[1]
	mov r0, r5
	mov r1, r6
	bl __interface_wait_and_yield
	chkct res[r5], 1
	out res[r5], r4
	outct res[r5], 2
	ldc r1, 0
	mov r0, r5
	mov r2, r6
	bl __interface_client_call_y
	in r0, res[r5]
	in r1, res[r5]
	chkct res[r5], 1
	freer res[r5]
	ldw r6, sp[1]
	ldw r5, sp[2]
	ldw r4, sp[3]
	retsp 4
	# RETURN_REG_HOLDER
	.cc_bottom _i.temperature_heater_commands_if._chan_y.get_regulator_data.function
	.set	_i.temperature_heater_commands_if._chan_y.get_regulator_data.nstackwords,((($D __interface_wait_and_yield.nstackwords ? __interface_wait_and_yield.nstackwords $: _i.temperature_heater_commands_if._client_call_y.max.nstackwords) $M _i.temperature_heater_commands_if._client_call_y.max.nstackwords $M ($D __interface_client_call_y.nstackwords ? __interface_client_call_y.nstackwords $: _i.temperature_heater_commands_if._client_call_y.max.nstackwords)) + 4)
	.globl	_i.temperature_heater_commands_if._chan_y.get_regulator_data.nstackwords
	.weak	_i.temperature_heater_commands_if._chan_y.get_regulator_data.nstackwords
	.set	_i.temperature_heater_commands_if._chan_y.get_regulator_data.maxcores,($D __interface_client_call_y.maxcores ? __interface_client_call_y.maxcores $: _i.temperature_heater_commands_if._client_call_y.max.maxcores) $M ($D __interface_wait_and_yield.maxcores ? __interface_wait_and_yield.maxcores $: _i.temperature_heater_commands_if._client_call_y.max.maxcores) $M 1
	.globl	_i.temperature_heater_commands_if._chan_y.get_regulator_data.maxcores
	.weak	_i.temperature_heater_commands_if._chan_y.get_regulator_data.maxcores
	.set	_i.temperature_heater_commands_if._chan_y.get_regulator_data.maxtimers,($D __interface_client_call_y.maxtimers ? __interface_client_call_y.maxtimers $: _i.temperature_heater_commands_if._client_call_y.max.maxtimers) $M ($D __interface_wait_and_yield.maxtimers ? __interface_wait_and_yield.maxtimers $: _i.temperature_heater_commands_if._client_call_y.max.maxtimers) $M 0
	.globl	_i.temperature_heater_commands_if._chan_y.get_regulator_data.maxtimers
	.weak	_i.temperature_heater_commands_if._chan_y.get_regulator_data.maxtimers
	.set	_i.temperature_heater_commands_if._chan_y.get_regulator_data.maxchanends,(1 + ($D __interface_client_call_y.maxchanends ? __interface_client_call_y.maxchanends $: _i.temperature_heater_commands_if._client_call_y.max.maxchanends)) $M (1 + ($D __interface_wait_and_yield.maxchanends ? __interface_wait_and_yield.maxchanends $: _i.temperature_heater_commands_if._client_call_y.max.maxchanends)) $M 1
	.globl	_i.temperature_heater_commands_if._chan_y.get_regulator_data.maxchanends
	.weak	_i.temperature_heater_commands_if._chan_y.get_regulator_data.maxchanends
.Ltmp146:
	.size	_i.temperature_heater_commands_if._chan_y.get_regulator_data, .Ltmp146-_i.temperature_heater_commands_if._chan_y.get_regulator_data
	.cfi_endproc

	.weak	_i.temperature_heater_commands_if._chan_y.get_temp_degC_string
	.align	4
	.type	_i.temperature_heater_commands_if._chan_y.get_temp_degC_string,@function
	.cc_top _i.temperature_heater_commands_if._chan_y.get_temp_degC_string.function,_i.temperature_heater_commands_if._chan_y.get_temp_degC_string
_i.temperature_heater_commands_if._chan_y.get_temp_degC_string:
	.cfi_startproc
	entsp 6
.Ltmp147:
	.cfi_def_cfa_offset 24
.Ltmp148:
	.cfi_offset 15, 0
	stw r4, sp[5]
.Ltmp149:
	.cfi_offset 4, -4
	stw r5, sp[4]
.Ltmp150:
	.cfi_offset 5, -8
	stw r6, sp[3]
.Ltmp151:
	.cfi_offset 6, -12
	stw r7, sp[2]
.Ltmp152:
	.cfi_offset 7, -16
	mov r4, r2
	mov r5, r1
	ldw r1, r0[0]
	getr r6, 2
	setd res[r6], r1
	add r1, r6, 3
	out res[r6], r1
	outct res[r6], 2
	ldw r7, r0[1]
	mov r0, r6
	mov r1, r7
	bl __interface_wait_and_yield
	chkct res[r6], 1
	out res[r6], r5
	stw r4, sp[1]
	outct res[r6], 2
	ldaw r1, sp[1]
	mov r0, r6
	mov r2, r7
	bl __interface_client_call_y
	chkct res[r6], 1
	freer res[r6]
	ldw r7, sp[2]
	ldw r6, sp[3]
	ldw r5, sp[4]
	ldw r4, sp[5]
	retsp 6
	# RETURN_REG_HOLDER
	.cc_bottom _i.temperature_heater_commands_if._chan_y.get_temp_degC_string.function
	.set	_i.temperature_heater_commands_if._chan_y.get_temp_degC_string.nstackwords,((($D __interface_wait_and_yield.nstackwords ? __interface_wait_and_yield.nstackwords $: _i.temperature_heater_commands_if._client_call_y.max.nstackwords) $M _i.temperature_heater_commands_if._client_call_y.max.nstackwords $M ($D __interface_client_call_y.nstackwords ? __interface_client_call_y.nstackwords $: _i.temperature_heater_commands_if._client_call_y.max.nstackwords)) + 6)
	.globl	_i.temperature_heater_commands_if._chan_y.get_temp_degC_string.nstackwords
	.weak	_i.temperature_heater_commands_if._chan_y.get_temp_degC_string.nstackwords
	.set	_i.temperature_heater_commands_if._chan_y.get_temp_degC_string.maxcores,($D __interface_client_call_y.maxcores ? __interface_client_call_y.maxcores $: _i.temperature_heater_commands_if._client_call_y.max.maxcores) $M ($D __interface_wait_and_yield.maxcores ? __interface_wait_and_yield.maxcores $: _i.temperature_heater_commands_if._client_call_y.max.maxcores) $M 1
	.globl	_i.temperature_heater_commands_if._chan_y.get_temp_degC_string.maxcores
	.weak	_i.temperature_heater_commands_if._chan_y.get_temp_degC_string.maxcores
	.set	_i.temperature_heater_commands_if._chan_y.get_temp_degC_string.maxtimers,($D __interface_client_call_y.maxtimers ? __interface_client_call_y.maxtimers $: _i.temperature_heater_commands_if._client_call_y.max.maxtimers) $M ($D __interface_wait_and_yield.maxtimers ? __interface_wait_and_yield.maxtimers $: _i.temperature_heater_commands_if._client_call_y.max.maxtimers) $M 0
	.globl	_i.temperature_heater_commands_if._chan_y.get_temp_degC_string.maxtimers
	.weak	_i.temperature_heater_commands_if._chan_y.get_temp_degC_string.maxtimers
	.set	_i.temperature_heater_commands_if._chan_y.get_temp_degC_string.maxchanends,(1 + ($D __interface_client_call_y.maxchanends ? __interface_client_call_y.maxchanends $: _i.temperature_heater_commands_if._client_call_y.max.maxchanends)) $M (1 + ($D __interface_wait_and_yield.maxchanends ? __interface_wait_and_yield.maxchanends $: _i.temperature_heater_commands_if._client_call_y.max.maxchanends)) $M 1
	.globl	_i.temperature_heater_commands_if._chan_y.get_temp_degC_string.maxchanends
	.weak	_i.temperature_heater_commands_if._chan_y.get_temp_degC_string.maxchanends
.Ltmp153:
	.size	_i.temperature_heater_commands_if._chan_y.get_temp_degC_string, .Ltmp153-_i.temperature_heater_commands_if._chan_y.get_temp_degC_string
	.cfi_endproc

	.weak	_i.temperature_heater_commands_if._chan_y.get_temps
	.align	4
	.type	_i.temperature_heater_commands_if._chan_y.get_temps,@function
	.cc_top _i.temperature_heater_commands_if._chan_y.get_temps.function,_i.temperature_heater_commands_if._chan_y.get_temps
_i.temperature_heater_commands_if._chan_y.get_temps:
	.cfi_startproc
	entsp 5
.Ltmp154:
	.cfi_def_cfa_offset 20
.Ltmp155:
	.cfi_offset 15, 0
	stw r4, sp[4]
.Ltmp156:
	.cfi_offset 4, -4
	stw r5, sp[3]
.Ltmp157:
	.cfi_offset 5, -8
	stw r6, sp[2]
.Ltmp158:
	.cfi_offset 6, -12
	mov r4, r1
	ldw r1, r0[0]
	getr r5, 2
	setd res[r5], r1
	add r1, r5, 2
	out res[r5], r1
	outct res[r5], 2
	ldw r6, r0[1]
	mov r0, r5
	mov r1, r6
	bl __interface_wait_and_yield
	chkct res[r5], 1
	stw r4, sp[1]
	outct res[r5], 2
	ldaw r1, sp[1]
	mov r0, r5
	mov r2, r6
	bl __interface_client_call_y
	chkct res[r5], 1
	freer res[r5]
	ldw r6, sp[2]
	ldw r5, sp[3]
	ldw r4, sp[4]
	retsp 5
	# RETURN_REG_HOLDER
	.cc_bottom _i.temperature_heater_commands_if._chan_y.get_temps.function
	.set	_i.temperature_heater_commands_if._chan_y.get_temps.nstackwords,((($D __interface_wait_and_yield.nstackwords ? __interface_wait_and_yield.nstackwords $: _i.temperature_heater_commands_if._client_call_y.max.nstackwords) $M _i.temperature_heater_commands_if._client_call_y.max.nstackwords $M ($D __interface_client_call_y.nstackwords ? __interface_client_call_y.nstackwords $: _i.temperature_heater_commands_if._client_call_y.max.nstackwords)) + 5)
	.globl	_i.temperature_heater_commands_if._chan_y.get_temps.nstackwords
	.weak	_i.temperature_heater_commands_if._chan_y.get_temps.nstackwords
	.set	_i.temperature_heater_commands_if._chan_y.get_temps.maxcores,($D __interface_client_call_y.maxcores ? __interface_client_call_y.maxcores $: _i.temperature_heater_commands_if._client_call_y.max.maxcores) $M ($D __interface_wait_and_yield.maxcores ? __interface_wait_and_yield.maxcores $: _i.temperature_heater_commands_if._client_call_y.max.maxcores) $M 1
	.globl	_i.temperature_heater_commands_if._chan_y.get_temps.maxcores
	.weak	_i.temperature_heater_commands_if._chan_y.get_temps.maxcores
	.set	_i.temperature_heater_commands_if._chan_y.get_temps.maxtimers,($D __interface_client_call_y.maxtimers ? __interface_client_call_y.maxtimers $: _i.temperature_heater_commands_if._client_call_y.max.maxtimers) $M ($D __interface_wait_and_yield.maxtimers ? __interface_wait_and_yield.maxtimers $: _i.temperature_heater_commands_if._client_call_y.max.maxtimers) $M 0
	.globl	_i.temperature_heater_commands_if._chan_y.get_temps.maxtimers
	.weak	_i.temperature_heater_commands_if._chan_y.get_temps.maxtimers
	.set	_i.temperature_heater_commands_if._chan_y.get_temps.maxchanends,(1 + ($D __interface_client_call_y.maxchanends ? __interface_client_call_y.maxchanends $: _i.temperature_heater_commands_if._client_call_y.max.maxchanends)) $M (1 + ($D __interface_wait_and_yield.maxchanends ? __interface_wait_and_yield.maxchanends $: _i.temperature_heater_commands_if._client_call_y.max.maxchanends)) $M 1
	.globl	_i.temperature_heater_commands_if._chan_y.get_temps.maxchanends
	.weak	_i.temperature_heater_commands_if._chan_y.get_temps.maxchanends
.Ltmp159:
	.size	_i.temperature_heater_commands_if._chan_y.get_temps, .Ltmp159-_i.temperature_heater_commands_if._chan_y.get_temps
	.cfi_endproc

	.weak	_i.temperature_heater_commands_if._chan_y.heater_set_temp_degC
	.align	4
	.type	_i.temperature_heater_commands_if._chan_y.heater_set_temp_degC,@function
	.cc_top _i.temperature_heater_commands_if._chan_y.heater_set_temp_degC.function,_i.temperature_heater_commands_if._chan_y.heater_set_temp_degC
_i.temperature_heater_commands_if._chan_y.heater_set_temp_degC:
	.cfi_startproc
	entsp 5
.Ltmp160:
	.cfi_def_cfa_offset 20
.Ltmp161:
	.cfi_offset 15, 0
	stw r4, sp[4]
.Ltmp162:
	.cfi_offset 4, -4
	stw r5, sp[3]
.Ltmp163:
	.cfi_offset 5, -8
	stw r6, sp[2]
.Ltmp164:
	.cfi_offset 6, -12
	stw r7, sp[1]
.Ltmp165:
	.cfi_offset 7, -16
	mov r4, r2
	mov r5, r1
	ldw r1, r0[0]
	getr r6, 2
	setd res[r6], r1
	add r1, r6, 1
	out res[r6], r1
	outct res[r6], 2
	ldw r7, r0[1]
	mov r0, r6
	mov r1, r7
	bl __interface_wait_and_yield
	chkct res[r6], 1
	out res[r6], r5
	out res[r6], r4
	outct res[r6], 2
	ldc r1, 0
	mov r0, r6
	mov r2, r7
	bl __interface_client_call_y
	chkct res[r6], 1
	freer res[r6]
	ldw r7, sp[1]
	ldw r6, sp[2]
	ldw r5, sp[3]
	ldw r4, sp[4]
	retsp 5
	# RETURN_REG_HOLDER
	.cc_bottom _i.temperature_heater_commands_if._chan_y.heater_set_temp_degC.function
	.set	_i.temperature_heater_commands_if._chan_y.heater_set_temp_degC.nstackwords,((($D __interface_wait_and_yield.nstackwords ? __interface_wait_and_yield.nstackwords $: _i.temperature_heater_commands_if._client_call_y.max.nstackwords) $M _i.temperature_heater_commands_if._client_call_y.max.nstackwords $M ($D __interface_client_call_y.nstackwords ? __interface_client_call_y.nstackwords $: _i.temperature_heater_commands_if._client_call_y.max.nstackwords)) + 5)
	.globl	_i.temperature_heater_commands_if._chan_y.heater_set_temp_degC.nstackwords
	.weak	_i.temperature_heater_commands_if._chan_y.heater_set_temp_degC.nstackwords
	.set	_i.temperature_heater_commands_if._chan_y.heater_set_temp_degC.maxcores,($D __interface_client_call_y.maxcores ? __interface_client_call_y.maxcores $: _i.temperature_heater_commands_if._client_call_y.max.maxcores) $M ($D __interface_wait_and_yield.maxcores ? __interface_wait_and_yield.maxcores $: _i.temperature_heater_commands_if._client_call_y.max.maxcores) $M 1
	.globl	_i.temperature_heater_commands_if._chan_y.heater_set_temp_degC.maxcores
	.weak	_i.temperature_heater_commands_if._chan_y.heater_set_temp_degC.maxcores
	.set	_i.temperature_heater_commands_if._chan_y.heater_set_temp_degC.maxtimers,($D __interface_client_call_y.maxtimers ? __interface_client_call_y.maxtimers $: _i.temperature_heater_commands_if._client_call_y.max.maxtimers) $M ($D __interface_wait_and_yield.maxtimers ? __interface_wait_and_yield.maxtimers $: _i.temperature_heater_commands_if._client_call_y.max.maxtimers) $M 0
	.globl	_i.temperature_heater_commands_if._chan_y.heater_set_temp_degC.maxtimers
	.weak	_i.temperature_heater_commands_if._chan_y.heater_set_temp_degC.maxtimers
	.set	_i.temperature_heater_commands_if._chan_y.heater_set_temp_degC.maxchanends,(1 + ($D __interface_client_call_y.maxchanends ? __interface_client_call_y.maxchanends $: _i.temperature_heater_commands_if._client_call_y.max.maxchanends)) $M (1 + ($D __interface_wait_and_yield.maxchanends ? __interface_wait_and_yield.maxchanends $: _i.temperature_heater_commands_if._client_call_y.max.maxchanends)) $M 1
	.globl	_i.temperature_heater_commands_if._chan_y.heater_set_temp_degC.maxchanends
	.weak	_i.temperature_heater_commands_if._chan_y.heater_set_temp_degC.maxchanends
.Ltmp166:
	.size	_i.temperature_heater_commands_if._chan_y.heater_set_temp_degC, .Ltmp166-_i.temperature_heater_commands_if._chan_y.heater_set_temp_degC
	.cfi_endproc

	.weak	_i.temperature_heater_commands_if._chan_y.heater_set_proportional
	.align	4
	.type	_i.temperature_heater_commands_if._chan_y.heater_set_proportional,@function
	.cc_top _i.temperature_heater_commands_if._chan_y.heater_set_proportional.function,_i.temperature_heater_commands_if._chan_y.heater_set_proportional
_i.temperature_heater_commands_if._chan_y.heater_set_proportional:
	.cfi_startproc
	entsp 5
.Ltmp167:
	.cfi_def_cfa_offset 20
.Ltmp168:
	.cfi_offset 15, 0
	stw r4, sp[4]
.Ltmp169:
	.cfi_offset 4, -4
	stw r5, sp[3]
.Ltmp170:
	.cfi_offset 5, -8
	stw r6, sp[2]
.Ltmp171:
	.cfi_offset 6, -12
	stw r7, sp[1]
.Ltmp172:
	.cfi_offset 7, -16
	mov r4, r2
	mov r5, r1
	ldw r1, r0[0]
	getr r6, 2
	setd res[r6], r1
	out res[r6], r6
	outct res[r6], 2
	ldw r7, r0[1]
	mov r0, r6
	mov r1, r7
	bl __interface_wait_and_yield
	chkct res[r6], 1
	out res[r6], r5
	out res[r6], r4
	outct res[r6], 2
	ldc r1, 0
	mov r0, r6
	mov r2, r7
	bl __interface_client_call_y
	chkct res[r6], 1
	freer res[r6]
	ldw r7, sp[1]
	ldw r6, sp[2]
	ldw r5, sp[3]
	ldw r4, sp[4]
	retsp 5
	# RETURN_REG_HOLDER
	.cc_bottom _i.temperature_heater_commands_if._chan_y.heater_set_proportional.function
	.set	_i.temperature_heater_commands_if._chan_y.heater_set_proportional.nstackwords,((($D __interface_wait_and_yield.nstackwords ? __interface_wait_and_yield.nstackwords $: _i.temperature_heater_commands_if._client_call_y.max.nstackwords) $M _i.temperature_heater_commands_if._client_call_y.max.nstackwords $M ($D __interface_client_call_y.nstackwords ? __interface_client_call_y.nstackwords $: _i.temperature_heater_commands_if._client_call_y.max.nstackwords)) + 5)
	.globl	_i.temperature_heater_commands_if._chan_y.heater_set_proportional.nstackwords
	.weak	_i.temperature_heater_commands_if._chan_y.heater_set_proportional.nstackwords
	.set	_i.temperature_heater_commands_if._chan_y.heater_set_proportional.maxcores,($D __interface_client_call_y.maxcores ? __interface_client_call_y.maxcores $: _i.temperature_heater_commands_if._client_call_y.max.maxcores) $M ($D __interface_wait_and_yield.maxcores ? __interface_wait_and_yield.maxcores $: _i.temperature_heater_commands_if._client_call_y.max.maxcores) $M 1
	.globl	_i.temperature_heater_commands_if._chan_y.heater_set_proportional.maxcores
	.weak	_i.temperature_heater_commands_if._chan_y.heater_set_proportional.maxcores
	.set	_i.temperature_heater_commands_if._chan_y.heater_set_proportional.maxtimers,($D __interface_client_call_y.maxtimers ? __interface_client_call_y.maxtimers $: _i.temperature_heater_commands_if._client_call_y.max.maxtimers) $M ($D __interface_wait_and_yield.maxtimers ? __interface_wait_and_yield.maxtimers $: _i.temperature_heater_commands_if._client_call_y.max.maxtimers) $M 0
	.globl	_i.temperature_heater_commands_if._chan_y.heater_set_proportional.maxtimers
	.weak	_i.temperature_heater_commands_if._chan_y.heater_set_proportional.maxtimers
	.set	_i.temperature_heater_commands_if._chan_y.heater_set_proportional.maxchanends,(1 + ($D __interface_client_call_y.maxchanends ? __interface_client_call_y.maxchanends $: _i.temperature_heater_commands_if._client_call_y.max.maxchanends)) $M (1 + ($D __interface_wait_and_yield.maxchanends ? __interface_wait_and_yield.maxchanends $: _i.temperature_heater_commands_if._client_call_y.max.maxchanends)) $M 1
	.globl	_i.temperature_heater_commands_if._chan_y.heater_set_proportional.maxchanends
	.weak	_i.temperature_heater_commands_if._chan_y.heater_set_proportional.maxchanends
.Ltmp173:
	.size	_i.temperature_heater_commands_if._chan_y.heater_set_proportional, .Ltmp173-_i.temperature_heater_commands_if._chan_y.heater_set_proportional
	.cfi_endproc

	.weak	_i.temperature_water_commands_if._chan.get_now_regulating_at
	.align	4
	.type	_i.temperature_water_commands_if._chan.get_now_regulating_at,@function
	.cc_top _i.temperature_water_commands_if._chan.get_now_regulating_at.function,_i.temperature_water_commands_if._chan.get_now_regulating_at
_i.temperature_water_commands_if._chan.get_now_regulating_at:
	.cfi_startproc
	getr r1, 2
	setd res[r1], r0
	add r0, r1, 1
	out res[r1], r0
	outct res[r1], 2
	in r0, res[r1]
	in r0, res[r1]
	chkct res[r1], 1
	freer res[r1]
	retsp 0
	# RETURN_REG_HOLDER
	.cc_bottom _i.temperature_water_commands_if._chan.get_now_regulating_at.function
	.set	_i.temperature_water_commands_if._chan.get_now_regulating_at.nstackwords,0
	.globl	_i.temperature_water_commands_if._chan.get_now_regulating_at.nstackwords
	.weak	_i.temperature_water_commands_if._chan.get_now_regulating_at.nstackwords
	.set	_i.temperature_water_commands_if._chan.get_now_regulating_at.maxcores,1
	.globl	_i.temperature_water_commands_if._chan.get_now_regulating_at.maxcores
	.weak	_i.temperature_water_commands_if._chan.get_now_regulating_at.maxcores
	.set	_i.temperature_water_commands_if._chan.get_now_regulating_at.maxtimers,0
	.globl	_i.temperature_water_commands_if._chan.get_now_regulating_at.maxtimers
	.weak	_i.temperature_water_commands_if._chan.get_now_regulating_at.maxtimers
	.set	_i.temperature_water_commands_if._chan.get_now_regulating_at.maxchanends,1
	.globl	_i.temperature_water_commands_if._chan.get_now_regulating_at.maxchanends
	.weak	_i.temperature_water_commands_if._chan.get_now_regulating_at.maxchanends
.Ltmp174:
	.size	_i.temperature_water_commands_if._chan.get_now_regulating_at, .Ltmp174-_i.temperature_water_commands_if._chan.get_now_regulating_at
	.cfi_endproc

	.weak	_i.temperature_water_commands_if._chan.get_temp_degC_string_filtered
	.align	4
	.type	_i.temperature_water_commands_if._chan.get_temp_degC_string_filtered,@function
	.cc_top _i.temperature_water_commands_if._chan.get_temp_degC_string_filtered.function,_i.temperature_water_commands_if._chan.get_temp_degC_string_filtered
_i.temperature_water_commands_if._chan.get_temp_degC_string_filtered:
	.cfi_startproc
	entsp 3
.Ltmp175:
	.cfi_def_cfa_offset 12
.Ltmp176:
	.cfi_offset 15, 0
	stw r4, sp[2]
.Ltmp177:
	.cfi_offset 4, -4
	getr r4, 2
	setd res[r4], r0
	out res[r4], r4
	outct res[r4], 2
	chkct res[r4], 1
	out res[r4], r1
	stw r2, sp[1]
	outct res[r4], 2
	ldaw r1, sp[1]
	mov r0, r4
	bl __interface_client_call
	chkct res[r4], 1
	freer res[r4]
	ldw r4, sp[2]
	retsp 3
	# RETURN_REG_HOLDER
	.cc_bottom _i.temperature_water_commands_if._chan.get_temp_degC_string_filtered.function
	.set	_i.temperature_water_commands_if._chan.get_temp_degC_string_filtered.nstackwords,(__interface_client_call.nstackwords + 3)
	.globl	_i.temperature_water_commands_if._chan.get_temp_degC_string_filtered.nstackwords
	.weak	_i.temperature_water_commands_if._chan.get_temp_degC_string_filtered.nstackwords
	.set	_i.temperature_water_commands_if._chan.get_temp_degC_string_filtered.maxcores,__interface_client_call.maxcores $M 1
	.globl	_i.temperature_water_commands_if._chan.get_temp_degC_string_filtered.maxcores
	.weak	_i.temperature_water_commands_if._chan.get_temp_degC_string_filtered.maxcores
	.set	_i.temperature_water_commands_if._chan.get_temp_degC_string_filtered.maxtimers,__interface_client_call.maxtimers $M 0
	.globl	_i.temperature_water_commands_if._chan.get_temp_degC_string_filtered.maxtimers
	.weak	_i.temperature_water_commands_if._chan.get_temp_degC_string_filtered.maxtimers
	.set	_i.temperature_water_commands_if._chan.get_temp_degC_string_filtered.maxchanends,(1 + __interface_client_call.maxchanends) $M 1
	.globl	_i.temperature_water_commands_if._chan.get_temp_degC_string_filtered.maxchanends
	.weak	_i.temperature_water_commands_if._chan.get_temp_degC_string_filtered.maxchanends
.Ltmp178:
	.size	_i.temperature_water_commands_if._chan.get_temp_degC_string_filtered, .Ltmp178-_i.temperature_water_commands_if._chan.get_temp_degC_string_filtered
	.cfi_endproc

	.weak	_i.temperature_water_commands_if._chan_y.get_now_regulating_at
	.align	4
	.type	_i.temperature_water_commands_if._chan_y.get_now_regulating_at,@function
	.cc_top _i.temperature_water_commands_if._chan_y.get_now_regulating_at.function,_i.temperature_water_commands_if._chan_y.get_now_regulating_at
_i.temperature_water_commands_if._chan_y.get_now_regulating_at:
	.cfi_startproc
	entsp 2
.Ltmp179:
	.cfi_def_cfa_offset 8
.Ltmp180:
	.cfi_offset 15, 0
	stw r4, sp[1]
.Ltmp181:
	.cfi_offset 4, -4
	ldw r1, r0[0]
	getr r4, 2
	setd res[r4], r1
	add r1, r4, 1
	out res[r4], r1
	outct res[r4], 2
	ldw r2, r0[1]
	ldc r1, 0
	mov r0, r4
	bl __interface_client_call_y
	in r0, res[r4]
	chkct res[r4], 1
	freer res[r4]
	ldw r4, sp[1]
	retsp 2
	# RETURN_REG_HOLDER
	.cc_bottom _i.temperature_water_commands_if._chan_y.get_now_regulating_at.function
	.set	_i.temperature_water_commands_if._chan_y.get_now_regulating_at.nstackwords,((_i.temperature_water_commands_if._client_call_y.max.nstackwords $M ($D __interface_client_call_y.nstackwords ? __interface_client_call_y.nstackwords $: _i.temperature_water_commands_if._client_call_y.max.nstackwords)) + 2)
	.globl	_i.temperature_water_commands_if._chan_y.get_now_regulating_at.nstackwords
	.weak	_i.temperature_water_commands_if._chan_y.get_now_regulating_at.nstackwords
	.set	_i.temperature_water_commands_if._chan_y.get_now_regulating_at.maxcores,($D __interface_client_call_y.maxcores ? __interface_client_call_y.maxcores $: _i.temperature_water_commands_if._client_call_y.max.maxcores) $M 1
	.globl	_i.temperature_water_commands_if._chan_y.get_now_regulating_at.maxcores
	.weak	_i.temperature_water_commands_if._chan_y.get_now_regulating_at.maxcores
	.set	_i.temperature_water_commands_if._chan_y.get_now_regulating_at.maxtimers,($D __interface_client_call_y.maxtimers ? __interface_client_call_y.maxtimers $: _i.temperature_water_commands_if._client_call_y.max.maxtimers) $M 0
	.globl	_i.temperature_water_commands_if._chan_y.get_now_regulating_at.maxtimers
	.weak	_i.temperature_water_commands_if._chan_y.get_now_regulating_at.maxtimers
	.set	_i.temperature_water_commands_if._chan_y.get_now_regulating_at.maxchanends,(1 + ($D __interface_client_call_y.maxchanends ? __interface_client_call_y.maxchanends $: _i.temperature_water_commands_if._client_call_y.max.maxchanends)) $M 1
	.globl	_i.temperature_water_commands_if._chan_y.get_now_regulating_at.maxchanends
	.weak	_i.temperature_water_commands_if._chan_y.get_now_regulating_at.maxchanends
.Ltmp182:
	.size	_i.temperature_water_commands_if._chan_y.get_now_regulating_at, .Ltmp182-_i.temperature_water_commands_if._chan_y.get_now_regulating_at
	.cfi_endproc

	.weak	_i.temperature_water_commands_if._chan_y.get_temp_degC_string_filtered
	.align	4
	.type	_i.temperature_water_commands_if._chan_y.get_temp_degC_string_filtered,@function
	.cc_top _i.temperature_water_commands_if._chan_y.get_temp_degC_string_filtered.function,_i.temperature_water_commands_if._chan_y.get_temp_degC_string_filtered
_i.temperature_water_commands_if._chan_y.get_temp_degC_string_filtered:
	.cfi_startproc
	entsp 3
.Ltmp183:
	.cfi_def_cfa_offset 12
.Ltmp184:
	.cfi_offset 15, 0
	stw r4, sp[2]
.Ltmp185:
	.cfi_offset 4, -4
	ldw r3, r0[0]
	getr r4, 2
	setd res[r4], r3
	out res[r4], r4
	outct res[r4], 2
	chkct res[r4], 1
	out res[r4], r1
	stw r2, sp[1]
	outct res[r4], 2
	ldw r2, r0[1]
	ldaw r1, sp[1]
	mov r0, r4
	bl __interface_client_call_y
	chkct res[r4], 1
	freer res[r4]
	ldw r4, sp[2]
	retsp 3
	# RETURN_REG_HOLDER
	.cc_bottom _i.temperature_water_commands_if._chan_y.get_temp_degC_string_filtered.function
	.set	_i.temperature_water_commands_if._chan_y.get_temp_degC_string_filtered.nstackwords,((_i.temperature_water_commands_if._client_call_y.max.nstackwords $M ($D __interface_client_call_y.nstackwords ? __interface_client_call_y.nstackwords $: _i.temperature_water_commands_if._client_call_y.max.nstackwords)) + 3)
	.globl	_i.temperature_water_commands_if._chan_y.get_temp_degC_string_filtered.nstackwords
	.weak	_i.temperature_water_commands_if._chan_y.get_temp_degC_string_filtered.nstackwords
	.set	_i.temperature_water_commands_if._chan_y.get_temp_degC_string_filtered.maxcores,($D __interface_client_call_y.maxcores ? __interface_client_call_y.maxcores $: _i.temperature_water_commands_if._client_call_y.max.maxcores) $M 1
	.globl	_i.temperature_water_commands_if._chan_y.get_temp_degC_string_filtered.maxcores
	.weak	_i.temperature_water_commands_if._chan_y.get_temp_degC_string_filtered.maxcores
	.set	_i.temperature_water_commands_if._chan_y.get_temp_degC_string_filtered.maxtimers,($D __interface_client_call_y.maxtimers ? __interface_client_call_y.maxtimers $: _i.temperature_water_commands_if._client_call_y.max.maxtimers) $M 0
	.globl	_i.temperature_water_commands_if._chan_y.get_temp_degC_string_filtered.maxtimers
	.weak	_i.temperature_water_commands_if._chan_y.get_temp_degC_string_filtered.maxtimers
	.set	_i.temperature_water_commands_if._chan_y.get_temp_degC_string_filtered.maxchanends,(1 + ($D __interface_client_call_y.maxchanends ? __interface_client_call_y.maxchanends $: _i.temperature_water_commands_if._client_call_y.max.maxchanends)) $M 1
	.globl	_i.temperature_water_commands_if._chan_y.get_temp_degC_string_filtered.maxchanends
	.weak	_i.temperature_water_commands_if._chan_y.get_temp_degC_string_filtered.maxchanends
.Ltmp186:
	.size	_i.temperature_water_commands_if._chan_y.get_temp_degC_string_filtered, .Ltmp186-_i.temperature_water_commands_if._chan_y.get_temp_degC_string_filtered
	.cfi_endproc

	.weak	_i.chronodot_ds3231_if._chan.set_time_ok
	.align	4
	.type	_i.chronodot_ds3231_if._chan.set_time_ok,@function
	.cc_top _i.chronodot_ds3231_if._chan.set_time_ok.function,_i.chronodot_ds3231_if._chan.set_time_ok
_i.chronodot_ds3231_if._chan.set_time_ok:
	.cfi_startproc
	entsp 11
.Ltmp187:
	.cfi_def_cfa_offset 44
.Ltmp188:
	.cfi_offset 15, 0
	stw r4, sp[10]
.Ltmp189:
	.cfi_offset 4, -4
	stw r5, sp[9]
.Ltmp190:
	.cfi_offset 5, -8
	stw r6, sp[8]
.Ltmp191:
	.cfi_offset 6, -12
	stw r7, sp[7]
.Ltmp192:
	.cfi_offset 7, -16
	mov r4, r0
	ldaw r5, sp[1]
	ldc r6, 24
	mov r0, r5
	mov r2, r6
	bl __memcpy_4
	getr r7, 2
	setd res[r7], r4
	add r0, r7, 1
	out res[r7], r0
	outct res[r7], 2
	chkct res[r7], 1
	mov r0, r7
	mov r1, r5
	mov r2, r6
	bl sout_char_array
	outct res[r7], 2
	in r0, res[r7]
	in r0, res[r7]
	chkct res[r7], 1
	freer res[r7]
	ldw r7, sp[7]
	ldw r6, sp[8]
	ldw r5, sp[9]
	ldw r4, sp[10]
	retsp 11
	# RETURN_REG_HOLDER
	.cc_bottom _i.chronodot_ds3231_if._chan.set_time_ok.function
	.set	_i.chronodot_ds3231_if._chan.set_time_ok.nstackwords,((__memcpy_4.nstackwords $M sout_char_array.nstackwords) + 11)
	.globl	_i.chronodot_ds3231_if._chan.set_time_ok.nstackwords
	.weak	_i.chronodot_ds3231_if._chan.set_time_ok.nstackwords
	.set	_i.chronodot_ds3231_if._chan.set_time_ok.maxcores,sout_char_array.maxcores $M 1
	.globl	_i.chronodot_ds3231_if._chan.set_time_ok.maxcores
	.weak	_i.chronodot_ds3231_if._chan.set_time_ok.maxcores
	.set	_i.chronodot_ds3231_if._chan.set_time_ok.maxtimers,sout_char_array.maxtimers $M 0
	.globl	_i.chronodot_ds3231_if._chan.set_time_ok.maxtimers
	.weak	_i.chronodot_ds3231_if._chan.set_time_ok.maxtimers
	.set	_i.chronodot_ds3231_if._chan.set_time_ok.maxchanends,(1 + sout_char_array.maxchanends) $M 1
	.globl	_i.chronodot_ds3231_if._chan.set_time_ok.maxchanends
	.weak	_i.chronodot_ds3231_if._chan.set_time_ok.maxchanends
.Ltmp193:
	.size	_i.chronodot_ds3231_if._chan.set_time_ok, .Ltmp193-_i.chronodot_ds3231_if._chan.set_time_ok
	.cfi_endproc

	.weak	_i.chronodot_ds3231_if._chan.get_time_ok
	.align	4
	.type	_i.chronodot_ds3231_if._chan.get_time_ok,@function
	.cc_top _i.chronodot_ds3231_if._chan.get_time_ok.function,_i.chronodot_ds3231_if._chan.get_time_ok
_i.chronodot_ds3231_if._chan.get_time_ok:
	.cfi_startproc
	entsp 12
.Ltmp194:
	.cfi_def_cfa_offset 48
.Ltmp195:
	.cfi_offset 15, 0
	stw r4, sp[11]
.Ltmp196:
	.cfi_offset 4, -4
	stw r5, sp[10]
.Ltmp197:
	.cfi_offset 5, -8
	stw r6, sp[9]
.Ltmp198:
	.cfi_offset 6, -12
	stw r7, sp[8]
.Ltmp199:
	.cfi_offset 7, -16
	stw r8, sp[7]
.Ltmp200:
	.cfi_offset 8, -20
	mov r4, r0
	getr r5, 2
	setd res[r5], r1
	out res[r5], r5
	outct res[r5], 2
	in r0, res[r5]
	ldaw r6, sp[1]
	ldc r7, 24
	mov r0, r5
	mov r1, r6
	mov r2, r7
	bl sin_char_array
	in r8, res[r5]
	chkct res[r5], 1
	mov r0, r4
	mov r1, r6
	mov r2, r7
	bl __memcpy_4
	freer res[r5]
	mov r0, r8
	ldw r8, sp[7]
	ldw r7, sp[8]
	ldw r6, sp[9]
	ldw r5, sp[10]
	ldw r4, sp[11]
	retsp 12
	# RETURN_REG_HOLDER
	.cc_bottom _i.chronodot_ds3231_if._chan.get_time_ok.function
	.set	_i.chronodot_ds3231_if._chan.get_time_ok.nstackwords,((sin_char_array.nstackwords $M __memcpy_4.nstackwords) + 12)
	.globl	_i.chronodot_ds3231_if._chan.get_time_ok.nstackwords
	.weak	_i.chronodot_ds3231_if._chan.get_time_ok.nstackwords
	.set	_i.chronodot_ds3231_if._chan.get_time_ok.maxcores,sin_char_array.maxcores $M 1
	.globl	_i.chronodot_ds3231_if._chan.get_time_ok.maxcores
	.weak	_i.chronodot_ds3231_if._chan.get_time_ok.maxcores
	.set	_i.chronodot_ds3231_if._chan.get_time_ok.maxtimers,sin_char_array.maxtimers $M 0
	.globl	_i.chronodot_ds3231_if._chan.get_time_ok.maxtimers
	.weak	_i.chronodot_ds3231_if._chan.get_time_ok.maxtimers
	.set	_i.chronodot_ds3231_if._chan.get_time_ok.maxchanends,(1 + sin_char_array.maxchanends) $M 1
	.globl	_i.chronodot_ds3231_if._chan.get_time_ok.maxchanends
	.weak	_i.chronodot_ds3231_if._chan.get_time_ok.maxchanends
.Ltmp201:
	.size	_i.chronodot_ds3231_if._chan.get_time_ok, .Ltmp201-_i.chronodot_ds3231_if._chan.get_time_ok
	.cfi_endproc

	.weak	_i.chronodot_ds3231_if._chan_y.set_time_ok
	.align	4
	.type	_i.chronodot_ds3231_if._chan_y.set_time_ok,@function
	.cc_top _i.chronodot_ds3231_if._chan_y.set_time_ok.function,_i.chronodot_ds3231_if._chan_y.set_time_ok
_i.chronodot_ds3231_if._chan_y.set_time_ok:
	.cfi_startproc
	entsp 11
.Ltmp202:
	.cfi_def_cfa_offset 44
.Ltmp203:
	.cfi_offset 15, 0
	stw r4, sp[10]
.Ltmp204:
	.cfi_offset 4, -4
	stw r5, sp[9]
.Ltmp205:
	.cfi_offset 5, -8
	stw r6, sp[8]
.Ltmp206:
	.cfi_offset 6, -12
	stw r7, sp[7]
.Ltmp207:
	.cfi_offset 7, -16
	mov r4, r0
	ldaw r5, sp[1]
	ldc r6, 24
	mov r0, r5
	mov r2, r6
	bl __memcpy_4
	ldw r0, r4[0]
	getr r7, 2
	setd res[r7], r0
	add r0, r7, 1
	out res[r7], r0
	outct res[r7], 2
	chkct res[r7], 1
	mov r0, r7
	mov r1, r5
	mov r2, r6
	bl sout_char_array
	outct res[r7], 2
	ldw r2, r4[1]
	ldc r1, 0
	mov r0, r7
	bl __interface_client_call_y
	in r0, res[r7]
	chkct res[r7], 1
	freer res[r7]
	ldw r7, sp[7]
	ldw r6, sp[8]
	ldw r5, sp[9]
	ldw r4, sp[10]
	retsp 11
	# RETURN_REG_HOLDER
	.cc_bottom _i.chronodot_ds3231_if._chan_y.set_time_ok.function
	.set	_i.chronodot_ds3231_if._chan_y.set_time_ok.nstackwords,((__memcpy_4.nstackwords $M sout_char_array.nstackwords $M _i.chronodot_ds3231_if._client_call_y.max.nstackwords $M ($D __interface_client_call_y.nstackwords ? __interface_client_call_y.nstackwords $: _i.chronodot_ds3231_if._client_call_y.max.nstackwords)) + 11)
	.globl	_i.chronodot_ds3231_if._chan_y.set_time_ok.nstackwords
	.weak	_i.chronodot_ds3231_if._chan_y.set_time_ok.nstackwords
	.set	_i.chronodot_ds3231_if._chan_y.set_time_ok.maxcores,($D __interface_client_call_y.maxcores ? __interface_client_call_y.maxcores $: _i.chronodot_ds3231_if._client_call_y.max.maxcores) $M sout_char_array.maxcores $M 1
	.globl	_i.chronodot_ds3231_if._chan_y.set_time_ok.maxcores
	.weak	_i.chronodot_ds3231_if._chan_y.set_time_ok.maxcores
	.set	_i.chronodot_ds3231_if._chan_y.set_time_ok.maxtimers,($D __interface_client_call_y.maxtimers ? __interface_client_call_y.maxtimers $: _i.chronodot_ds3231_if._client_call_y.max.maxtimers) $M sout_char_array.maxtimers $M 0
	.globl	_i.chronodot_ds3231_if._chan_y.set_time_ok.maxtimers
	.weak	_i.chronodot_ds3231_if._chan_y.set_time_ok.maxtimers
	.set	_i.chronodot_ds3231_if._chan_y.set_time_ok.maxchanends,(1 + ($D __interface_client_call_y.maxchanends ? __interface_client_call_y.maxchanends $: _i.chronodot_ds3231_if._client_call_y.max.maxchanends)) $M (1 + sout_char_array.maxchanends) $M 1
	.globl	_i.chronodot_ds3231_if._chan_y.set_time_ok.maxchanends
	.weak	_i.chronodot_ds3231_if._chan_y.set_time_ok.maxchanends
.Ltmp208:
	.size	_i.chronodot_ds3231_if._chan_y.set_time_ok, .Ltmp208-_i.chronodot_ds3231_if._chan_y.set_time_ok
	.cfi_endproc

	.weak	_i.chronodot_ds3231_if._chan_y.get_time_ok
	.align	4
	.type	_i.chronodot_ds3231_if._chan_y.get_time_ok,@function
	.cc_top _i.chronodot_ds3231_if._chan_y.get_time_ok.function,_i.chronodot_ds3231_if._chan_y.get_time_ok
_i.chronodot_ds3231_if._chan_y.get_time_ok:
	.cfi_startproc
	entsp 12
.Ltmp209:
	.cfi_def_cfa_offset 48
.Ltmp210:
	.cfi_offset 15, 0
	stw r4, sp[11]
.Ltmp211:
	.cfi_offset 4, -4
	stw r5, sp[10]
.Ltmp212:
	.cfi_offset 5, -8
	stw r6, sp[9]
.Ltmp213:
	.cfi_offset 6, -12
	stw r7, sp[8]
.Ltmp214:
	.cfi_offset 7, -16
	stw r8, sp[7]
.Ltmp215:
	.cfi_offset 8, -20
	mov r5, r0
	ldw r0, r1[0]
	getr r4, 2
	setd res[r4], r0
	out res[r4], r4
	outct res[r4], 2
	ldw r2, r1[1]
	ldc r1, 0
	mov r0, r4
	bl __interface_client_call_y
	ldaw r6, sp[1]
	ldc r7, 24
	mov r0, r4
	mov r1, r6
	mov r2, r7
	bl sin_char_array
	in r8, res[r4]
	chkct res[r4], 1
	mov r0, r5
	mov r1, r6
	mov r2, r7
	bl __memcpy_4
	freer res[r4]
	mov r0, r8
	ldw r8, sp[7]
	ldw r7, sp[8]
	ldw r6, sp[9]
	ldw r5, sp[10]
	ldw r4, sp[11]
	retsp 12
	# RETURN_REG_HOLDER
	.cc_bottom _i.chronodot_ds3231_if._chan_y.get_time_ok.function
	.set	_i.chronodot_ds3231_if._chan_y.get_time_ok.nstackwords,((_i.chronodot_ds3231_if._client_call_y.max.nstackwords $M ($D __interface_client_call_y.nstackwords ? __interface_client_call_y.nstackwords $: _i.chronodot_ds3231_if._client_call_y.max.nstackwords) $M sin_char_array.nstackwords $M __memcpy_4.nstackwords) + 12)
	.globl	_i.chronodot_ds3231_if._chan_y.get_time_ok.nstackwords
	.weak	_i.chronodot_ds3231_if._chan_y.get_time_ok.nstackwords
	.set	_i.chronodot_ds3231_if._chan_y.get_time_ok.maxcores,($D __interface_client_call_y.maxcores ? __interface_client_call_y.maxcores $: _i.chronodot_ds3231_if._client_call_y.max.maxcores) $M sin_char_array.maxcores $M 1
	.globl	_i.chronodot_ds3231_if._chan_y.get_time_ok.maxcores
	.weak	_i.chronodot_ds3231_if._chan_y.get_time_ok.maxcores
	.set	_i.chronodot_ds3231_if._chan_y.get_time_ok.maxtimers,($D __interface_client_call_y.maxtimers ? __interface_client_call_y.maxtimers $: _i.chronodot_ds3231_if._client_call_y.max.maxtimers) $M sin_char_array.maxtimers $M 0
	.globl	_i.chronodot_ds3231_if._chan_y.get_time_ok.maxtimers
	.weak	_i.chronodot_ds3231_if._chan_y.get_time_ok.maxtimers
	.set	_i.chronodot_ds3231_if._chan_y.get_time_ok.maxchanends,(1 + ($D __interface_client_call_y.maxchanends ? __interface_client_call_y.maxchanends $: _i.chronodot_ds3231_if._client_call_y.max.maxchanends)) $M (1 + sin_char_array.maxchanends) $M 1
	.globl	_i.chronodot_ds3231_if._chan_y.get_time_ok.maxchanends
	.weak	_i.chronodot_ds3231_if._chan_y.get_time_ok.maxchanends
.Ltmp216:
	.size	_i.chronodot_ds3231_if._chan_y.get_time_ok, .Ltmp216-_i.chronodot_ds3231_if._chan_y.get_time_ok
	.cfi_endproc

	.globl	chronodot_registers_to_datetime
	.align	4
	.type	chronodot_registers_to_datetime,@function
	.cc_top chronodot_registers_to_datetime.function,chronodot_registers_to_datetime
chronodot_registers_to_datetime:
.Lfunc_begin40:
	.loc	1 37 0
	.cfi_startproc
.Lxtalabel0:
	entsp 8
.Ltmp217:
	.cfi_def_cfa_offset 32
.Ltmp218:
	.cfi_offset 15, 0
	stw r4, sp[7]
.Ltmp219:
	.cfi_offset 4, -4
	stw r5, sp[6]
.Ltmp220:
	.cfi_offset 5, -8
	stw r6, sp[5]
.Ltmp221:
	.cfi_offset 6, -12
	stw r7, sp[4]
.Ltmp222:
	.cfi_offset 7, -16
	stw r8, sp[3]
.Ltmp223:
	.cfi_offset 8, -20
	stw r9, sp[2]
.Ltmp224:
	.cfi_offset 9, -24
	stw r10, sp[1]
.Ltmp225:
	.cfi_offset 10, -28
	mov r4, r0
	ldc r0, 6
	.loc	1 40 0 prologue_end
.Ltmp226:
	ld8u r0, r1[r0]
	ldc r2, 5
	.loc	1 41 0
	ld8u r7, r1[r2]
	ldc r2, 4
	.loc	1 42 0
	ld8u r8, r1[r2]
	ldc r2, 2
	.loc	1 43 0
	ld8u r9, r1[r2]
	mkmsk r2, 1
	.loc	1 44 0
	ld8u r6, r1[r2]
	.loc	1 45 0
	ldc r2, 0
	ld8u r5, r1[r2]
	.loc	1 40 0
.Lxta.call_labels7:
	bl bcd2bin_8
	ldc r1, 2000
	.loc	1 40 0
	add r10, r0, r1
	.loc	1 41 0
	mov r0, r7
.Lxta.call_labels8:
	bl bcd2bin_8
	mov r7, r0
	.loc	1 42 0
	mov r0, r8
.Lxta.call_labels9:
	bl bcd2bin_8
	mov r8, r0
	.loc	1 43 0
	mov r0, r9
.Lxta.call_labels10:
	bl bcd2bin_8
	mov r9, r0
	.loc	1 44 0
	mov r0, r6
.Lxta.call_labels11:
	bl bcd2bin_8
	mov r6, r0
	.loc	1 45 0
	zext r5, 7
	.loc	1 45 0
	mov r0, r5
.Lxta.call_labels12:
	bl bcd2bin_8
	.loc	1 47 5
	stw r10, r4[0]
	.loc	1 47 5
	stw r7, r4[1]
	.loc	1 47 5
	stw r8, r4[2]
	.loc	1 47 5
	stw r9, r4[3]
	.loc	1 47 5
	stw r6, r4[4]
	.loc	1 47 5
	stw r0, r4[5]
	ldw r10, sp[1]
	ldw r9, sp[2]
	ldw r8, sp[3]
	ldw r7, sp[4]
	ldw r6, sp[5]
	ldw r5, sp[6]
	ldw r4, sp[7]
	retsp 8
	# RETURN_REG_HOLDER
.Ltmp227:
	.cc_bottom chronodot_registers_to_datetime.function
	.set	chronodot_registers_to_datetime.nstackwords,(bcd2bin_8.nstackwords + 8)
	.globl	chronodot_registers_to_datetime.nstackwords
	.set	chronodot_registers_to_datetime.maxcores,bcd2bin_8.maxcores $M 1
	.globl	chronodot_registers_to_datetime.maxcores
	.set	chronodot_registers_to_datetime.maxtimers,bcd2bin_8.maxtimers $M 0
	.globl	chronodot_registers_to_datetime.maxtimers
	.set	chronodot_registers_to_datetime.maxchanends,bcd2bin_8.maxchanends $M 0
	.globl	chronodot_registers_to_datetime.maxchanends
.Ltmp228:
	.size	chronodot_registers_to_datetime, .Ltmp228-chronodot_registers_to_datetime
.Lfunc_end40:
	.cfi_endproc

	.section	.cp.rodata.cst4,"aMc",@progbits,4
	.cc_top .LCPI41_0.data,.LCPI41_0
	.align	4
	.type	.LCPI41_0,@object
	.size	.LCPI41_0, 4
.LCPI41_0:
	.long	4294967278
	.cc_bottom .LCPI41_0.data
	.text
	.globl	datetime_to_chronodot_registers
	.align	4
	.type	datetime_to_chronodot_registers,@function
	.cc_top datetime_to_chronodot_registers.function,datetime_to_chronodot_registers
datetime_to_chronodot_registers:
.Lfunc_begin41:
	.loc	1 50 0
	.cfi_startproc
.Lxtalabel1:
	entsp 8
.Ltmp229:
	.cfi_def_cfa_offset 32
.Ltmp230:
	.cfi_offset 15, 0
	stw r4, sp[7]
.Ltmp231:
	.cfi_offset 4, -4
	stw r5, sp[6]
.Ltmp232:
	.cfi_offset 5, -8
	stw r6, sp[5]
.Ltmp233:
	.cfi_offset 6, -12
	stw r7, sp[4]
.Ltmp234:
	.cfi_offset 7, -16
	stw r8, sp[3]
.Ltmp235:
	.cfi_offset 8, -20
	stw r9, sp[2]
.Ltmp236:
	.cfi_offset 9, -24
	stw r10, sp[1]
.Ltmp237:
	.cfi_offset 10, -28
	mov r4, r1
	.loc	1 55 0 prologue_end
.Ltmp238:
	sub r1, r4, r2
	.loc	1 55 0
	shr r2, r3, 1
	ldc r11, 9
	lsu r2, r2, r11
	.loc	1 55 0
	bt r2, .LBB41_1
.Lxtalabel2:
	ldw r2, cp[.LCPI41_0]
	.loc	1 55 0
	add r2, r3, r2
	bu .LBB41_3
.LBB41_1:
	ldc r2, 0
.LBB41_3:
.Lxtalabel3:
	.loc	1 55 0
	lsu r1, r1, r2
.Ltrap_info0:
	ecallf r1
	ldw r1, r0[0]
	ldc r2, 48
	.loc	1 55 0
	add r1, r1, r2
	.loc	1 55 0
	zext r1, 8
	ldc r10, 4
	.loc	1 56 0
	ld8u r8, r0[r10]
	ldc r2, 8
	.loc	1 57 0
	ld8u r9, r0[r2]
	ldc r2, 12
	.loc	1 58 0
	ld8u r7, r0[r2]
	ldc r2, 16
	.loc	1 59 0
	ld8u r6, r0[r2]
	ldc r2, 20
	.loc	1 60 0
	ld8u r5, r0[r2]
	.loc	1 55 0
	mov r0, r1
.Lxta.call_labels13:
	bl bin2bcd_8
	ldc r1, 6
	.loc	1 55 0
	st8 r0, r4[r1]
	.loc	1 56 0
	mov r0, r8
.Lxta.call_labels14:
	bl bin2bcd_8
	ldc r1, 5
	.loc	1 56 0
	st8 r0, r4[r1]
	.loc	1 57 0
	mov r0, r9
.Lxta.call_labels15:
	bl bin2bcd_8
	.loc	1 57 0
	st8 r0, r4[r10]
	.loc	1 58 0
	mov r0, r7
.Lxta.call_labels16:
	bl bin2bcd_8
	ldc r1, 2
	.loc	1 58 0
	st8 r0, r4[r1]
	.loc	1 59 0
	mov r0, r6
.Lxta.call_labels17:
	bl bin2bcd_8
	mkmsk r1, 1
	.loc	1 59 0
	st8 r0, r4[r1]
	.loc	1 60 0
	mov r0, r5
.Lxta.call_labels18:
	bl bin2bcd_8
	.loc	1 60 0
	ldc r1, 0
	st8 r0, r4[r1]
	ldw r10, sp[1]
	ldw r9, sp[2]
	ldw r8, sp[3]
	ldw r7, sp[4]
	ldw r6, sp[5]
	ldw r5, sp[6]
	ldw r4, sp[7]
	retsp 8
	# RETURN_REG_HOLDER
.Ltmp239:
	.cc_bottom datetime_to_chronodot_registers.function
	.set	datetime_to_chronodot_registers.nstackwords,(bin2bcd_8.nstackwords + 8)
	.globl	datetime_to_chronodot_registers.nstackwords
	.set	datetime_to_chronodot_registers.maxcores,bin2bcd_8.maxcores $M 1
	.globl	datetime_to_chronodot_registers.maxcores
	.set	datetime_to_chronodot_registers.maxtimers,bin2bcd_8.maxtimers $M 0
	.globl	datetime_to_chronodot_registers.maxtimers
	.set	datetime_to_chronodot_registers.maxchanends,bin2bcd_8.maxchanends $M 0
	.globl	datetime_to_chronodot_registers.maxchanends
.Ltmp240:
	.size	datetime_to_chronodot_registers, .Ltmp240-datetime_to_chronodot_registers
.Lfunc_end41:
	.cfi_endproc

	.section	.cp.rodata.cst4,"aMc",@progbits,4
	.cc_top .LCPI42_0.data,.LCPI42_0
	.align	4
	.type	.LCPI42_0,@object
	.size	.LCPI42_0, 4
.LCPI42_0:
	.long	100000000
	.cc_bottom .LCPI42_0.data
	.text
	.globl	chronodot_ds3231_controller
	.align	4
	.type	chronodot_ds3231_controller,@function
	.cc_top chronodot_ds3231_controller.function,chronodot_ds3231_controller
chronodot_ds3231_controller:
.Lfunc_begin42:
	.loc	1 87 0
	.cfi_startproc
.Lxtalabel4:
	entsp 34
.Ltmp241:
	.cfi_def_cfa_offset 136
.Ltmp242:
	.cfi_offset 15, 0
	stw r4, sp[33]
.Ltmp243:
	.cfi_offset 4, -4
	stw r5, sp[32]
.Ltmp244:
	.cfi_offset 5, -8
	stw r6, sp[31]
.Ltmp245:
	.cfi_offset 6, -12
	stw r7, sp[30]
.Ltmp246:
	.cfi_offset 7, -16
	stw r8, sp[29]
.Ltmp247:
	.cfi_offset 8, -20
	stw r9, sp[28]
.Ltmp248:
	.cfi_offset 9, -24
	stw r10, sp[27]
.Ltmp249:
	.cfi_offset 10, -28
	stw r1, sp[4]
.Ltmp250:
	stw r0, sp[7]
.Ltmp251:
	.loc	1 95 0 prologue_end
	ldaw r11, cp[.Lstr14]
	mov r0, r11
	bl puts
	.loc	1 97 0
	get r11, id
	.loc	1 97 0
	ldaw r0, dp[__timers]
	.loc	1 97 0
	ldw r5, r0[r11]
	.loc	1 97 0
	setc res[r5], 1
	.loc	1 97 0
.Lxta.endpoint_labels0:
	in r10, res[r5]
.Ltmp252:
	ldc r2, 0
	ldc r0, 14
	stw r0, sp[9]
	ldc r3, 6
	ldc r0, 1950
	stw r0, sp[6]
	ldaw r11, sp[22]
	ldc r0, 2
	.loc	1 111 0
	or r0, r11, r0
	stw r0, sp[3]
	mkmsk r0, 1
	.loc	1 112 0
	or r0, r11, r0
	stw r0, sp[2]
	stw r3, sp[8]
	mov r4, r2
	mov r6, r2
	mov r8, r2
	mov r7, r2
	bu .LBB42_1
.Ltmp253:
.LBB42_3:
	mov r9, r7
	ldw r10, sp[5]
.Ltmp254:
.LBB42_1:
	ldw r0, sp[7]
	ldw r0, r0[0]
	clre
	setd res[r5], r10
	setc res[r5], 9
	ldap r11, .Ltmp255
	setv res[r5], r11
	eeu res[r5]
	ldap r11, .Ltmp256
	setv res[r0], r11
	eeu res[r0]

	.xtabranch .LBB42_2, .LBB42_6
	waiteu
.Ltmp257:
.Ltmp255:
.LBB42_2:
.Lxtalabel5:
	.loc	1 101 0
.Lxta.endpoint_labels1:
	in r0, res[r5]
	ldw r0, cp[.LCPI42_0]
.Ltmp258:
	.loc	1 103 0
	add r10, r10, r0
.Ltmp259:
	stw r10, sp[5]
	ldw r0, sp[4]
.Ltmp260:
	.loc	1 105 0
	ldw r1, r0[0]
	.loc	1 105 0
	ldw r0, r0[1]
.Ltmp261:
	.loc	1 105 0
	ldw r3, r0[1]
	ldaw r10, sp[22]
	.loc	1 105 0
	mov r0, r10
	ldc r2, 104
.Lxta.call_labels19:
	bla r3
	mov r9, r0
.Ltmp262:
	.loc	1 107 17
	bf r9, .LBB42_3
.Ltmp263:
.Lxtalabel6:
	ldc r0, 6
	.loc	1 108 0
	ld8u r0, r10[r0]
.Lxta.call_labels20:
	bl bcd2bin_8
	ldc r1, 2000
	.loc	1 108 0
	add r0, r0, r1
	stw r0, sp[6]
	ldc r0, 5
	.loc	1 109 0
	ld8u r0, r10[r0]
.Lxta.call_labels21:
	bl bcd2bin_8
	stw r0, sp[8]
	ldc r0, 4
	.loc	1 110 0
	ld8u r0, r10[r0]
.Lxta.call_labels22:
	bl bcd2bin_8
	stw r0, sp[9]
	.loc	1 111 0
	ldw r0, sp[3]
	ld8u r0, r0[r7]
.Lxta.call_labels23:
	bl bcd2bin_8
	mov r4, r0
	.loc	1 112 0
	ldw r0, sp[2]
	ld8u r0, r0[r7]
.Lxta.call_labels24:
	bl bcd2bin_8
	mov r6, r0
	.loc	1 113 0
	ld8u r0, r10[r7]
	.loc	1 113 0
	zext r0, 7
	.loc	1 113 0
.Lxta.call_labels25:
	bl bcd2bin_8
	mov r8, r0
	ldw r0, sp[7]
	ldw r0, r0[0]
	clre
	ldw r1, sp[5]
.Ltmp264:
	setd res[r5], r1
	setc res[r5], 9
	ldap r11, .Ltmp255
	setv res[r5], r11
	eeu res[r5]
	ldap r11, .Ltmp256
	setv res[r0], r11
	eeu res[r0]
	mov r10, r1
.Ltmp265:

	.xtabranch .LBB42_2, .LBB42_6
	waiteu
.Ltmp266:
.Ltmp256:
.LBB42_6:
.Lxtalabel7:
	in r1, res[r0]
	ldc r2, 254
	add r2, r1, r2
	zext r2, 8
	sub r1, r1, r2
	setd res[r0], r1
	bt r2, .LBB42_5
.Ltmp267:
	.loc	1 126 0
	ldw r1, sp[6]
	stw r1, sp[10]
	.loc	1 126 0
	ldw r1, sp[8]
	stw r1, sp[11]
	.loc	1 126 0
	ldw r1, sp[9]
	stw r1, sp[12]
	.loc	1 126 0
	stw r4, sp[13]
	.loc	1 126 0
	stw r6, sp[14]
	.loc	1 126 0
	stw r8, sp[15]
	out res[r0], r7
	ldaw r1, sp[10]
	ldc r2, 24
	bl sout_char_array
	ldw r0, sp[7]
	ldw r0, r0[0]
	out res[r0], r9
	outct res[r0], 1
	clre
	setd res[r5], r10
	setc res[r5], 9
	ldap r11, .Ltmp255
	setv res[r5], r11
	eeu res[r5]
	ldap r11, .Ltmp256
	setv res[r0], r11
	eeu res[r0]

	.xtabranch .LBB42_2, .LBB42_6
	waiteu
.Ltmp268:
.LBB42_5:
	outct res[r0], 1
	ldaw r1, sp[16]
	ldc r2, 24
	bl sin_char_array
	.loc	1 131 0
	ldw r1, sp[16]
	.loc	1 131 0
	stw r1, sp[6]
	ldw r0, sp[17]
	.loc	1 131 0
	stw r0, sp[8]
	ldw r0, sp[18]
	.loc	1 131 0
	stw r0, sp[9]
	ldw r4, sp[19]
	.loc	1 131 0
	ldw r6, sp[20]
	.loc	1 131 0
	ldw r8, sp[21]
	ldc r0, 48
	.loc	1 133 0
	add r0, r1, r0
	.loc	1 133 0
	zext r0, 8
.Lxta.call_labels26:
	bl bin2bcd_8
.Ltmp269:
	ldc r1, 6
	ldaw r9, sp[22]
.Ltmp270:
	.loc	1 133 0
	st8 r0, r9[r1]
	.loc	1 134 0
	ldw r0, sp[8]
	zext r0, 8
.Lxta.call_labels27:
	bl bin2bcd_8
	ldc r1, 5
	.loc	1 134 0
	st8 r0, r9[r1]
	.loc	1 135 0
	ldw r0, sp[9]
	zext r0, 8
.Lxta.call_labels28:
	bl bin2bcd_8
	ldc r1, 4
	.loc	1 135 0
	st8 r0, r9[r1]
	.loc	1 136 0
	mov r0, r4
	zext r0, 8
.Lxta.call_labels29:
	bl bin2bcd_8
	.loc	1 136 0
	ldw r1, sp[3]
	st8 r0, r1[r7]
	.loc	1 137 0
	mov r0, r6
	zext r0, 8
.Lxta.call_labels30:
	bl bin2bcd_8
	.loc	1 137 0
	ldw r1, sp[2]
	st8 r0, r1[r7]
	.loc	1 138 0
	mov r0, r8
	zext r0, 8
.Lxta.call_labels31:
	bl bin2bcd_8
	.loc	1 138 0
	st8 r0, r9[r7]
	ldw r1, sp[4]
.Ltmp271:
	.loc	1 140 0
	ldw r0, r1[0]
	.loc	1 140 0
	ldw r1, r1[1]
.Ltmp272:
	.loc	1 140 0
	ldw r3, r1[2]
	ldc r1, 104
	.loc	1 140 0
	mov r2, r9
.Ltmp273:
.Lxta.call_labels32:
	bla r3
	mov r9, r0
.Ltmp274:
	ldw r0, sp[7]
	ldw r0, r0[0]
	out res[r0], r7
	out res[r0], r9
	outct res[r0], 1
	clre
	setd res[r5], r10
	setc res[r5], 9
	ldap r11, .Ltmp255
	setv res[r5], r11
	eeu res[r5]
	ldap r11, .Ltmp256
	setv res[r0], r11
	eeu res[r0]

	.xtabranch .LBB42_2, .LBB42_6
	waiteu
.Ltmp275:
	.cc_bottom chronodot_ds3231_controller.function
	.set	chronodot_ds3231_controller.nstackwords,((puts.nstackwords $M _i.i2c_internal_commands_if.read_chronodot_ok.max.nstackwords $M bcd2bin_8.nstackwords $M sout_char_array.nstackwords $M sin_char_array.nstackwords $M bin2bcd_8.nstackwords $M _i.i2c_internal_commands_if.write_chronodot_ok.max.nstackwords) + 34)
	.globl	chronodot_ds3231_controller.nstackwords
	.set	chronodot_ds3231_controller.maxcores,_i.i2c_internal_commands_if.read_chronodot_ok.max.maxcores $M _i.i2c_internal_commands_if.write_chronodot_ok.max.maxcores $M bcd2bin_8.maxcores $M bin2bcd_8.maxcores $M puts.maxcores $M sin_char_array.maxcores $M sout_char_array.maxcores $M 1
	.globl	chronodot_ds3231_controller.maxcores
	.set	chronodot_ds3231_controller.maxtimers,_i.i2c_internal_commands_if.read_chronodot_ok.max.maxtimers $M _i.i2c_internal_commands_if.write_chronodot_ok.max.maxtimers $M bcd2bin_8.maxtimers $M bin2bcd_8.maxtimers $M puts.maxtimers $M sin_char_array.maxtimers $M sout_char_array.maxtimers $M 0
	.globl	chronodot_ds3231_controller.maxtimers
	.set	chronodot_ds3231_controller.maxchanends,_i.i2c_internal_commands_if.read_chronodot_ok.max.maxchanends $M _i.i2c_internal_commands_if.write_chronodot_ok.max.maxchanends $M bcd2bin_8.maxchanends $M bin2bcd_8.maxchanends $M puts.maxchanends $M sin_char_array.maxchanends $M sout_char_array.maxchanends $M 0
	.globl	chronodot_ds3231_controller.maxchanends
.Ltmp276:
	.size	chronodot_ds3231_controller, .Ltmp276-chronodot_ds3231_controller
.Lfunc_end42:
	.cfi_endproc

	.globl	chronodot_ds3231_controller.select.0.enable
	.align	4
	.type	chronodot_ds3231_controller.select.0.enable,@function
	.cc_top chronodot_ds3231_controller.select.0.enable.function,chronodot_ds3231_controller.select.0.enable
chronodot_ds3231_controller.select.0.enable:
	.cfi_startproc
	entsp 2
.Ltmp277:
	.cfi_def_cfa_offset 8
.Ltmp278:
	.cfi_offset 15, 0
	stw r4, sp[1]
.Ltmp279:
	.cfi_offset 4, -4
	mov r4, r0
	bl chronodot_ds3231_controller.init.1
	ldw r0, r4[0]
	bf r0, .LBB43_1
	ldw r0, r4[2]
	ldw r1, r0[0]
	mkmsk r0, 1
	bf r1, .LBB43_4
	ldap r11, chronodot_ds3231_controller.select.0.case.0
	setv res[r1], r11
	mov r11, r4
	setev res[r1], r11
	eeu res[r1]
	bu .LBB43_4
.LBB43_1:
	ldc r0, 0
.LBB43_4:
	ldw r4, sp[1]
	retsp 2
	# RETURN_REG_HOLDER
	.cc_bottom chronodot_ds3231_controller.select.0.enable.function
	.set	chronodot_ds3231_controller.select.0.enable.nstackwords,(chronodot_ds3231_controller.init.1.nstackwords + 2)
	.globl	chronodot_ds3231_controller.select.0.enable.nstackwords
	.set	chronodot_ds3231_controller.select.0.enable.maxcores,chronodot_ds3231_controller.init.1.maxcores $M 1
	.globl	chronodot_ds3231_controller.select.0.enable.maxcores
	.set	chronodot_ds3231_controller.select.0.enable.maxtimers,chronodot_ds3231_controller.init.1.maxtimers $M 0
	.globl	chronodot_ds3231_controller.select.0.enable.maxtimers
	.set	chronodot_ds3231_controller.select.0.enable.maxchanends,chronodot_ds3231_controller.init.1.maxchanends $M 0
	.globl	chronodot_ds3231_controller.select.0.enable.maxchanends
.Ltmp280:
	.size	chronodot_ds3231_controller.select.0.enable, .Ltmp280-chronodot_ds3231_controller.select.0.enable
	.cfi_endproc

	.globl	chronodot_ds3231_controller.init.1
	.align	4
	.type	chronodot_ds3231_controller.init.1,@function
	.cc_top chronodot_ds3231_controller.init.1.function,chronodot_ds3231_controller.init.1
chronodot_ds3231_controller.init.1:
.Lfunc_begin44:
	.file	2 "<synthesized>"
	.loc	2 0 0
	.cfi_startproc
	entsp 2
.Ltmp281:
	.cfi_def_cfa_offset 8
.Ltmp282:
	.cfi_offset 15, 0
	stw r4, sp[1]
.Ltmp283:
	.cfi_offset 4, -4
	mov r4, r0
.Ltmp284:
	ldw r0, r4[1]
	bf r0, .LBB44_2
.Ltmp285:
	ldc r0, 0
	stw r0, r4[1]
	.loc	1 89 0 prologue_end
.Ltmp286:
	ldaw r0, r4[4]
	.loc	1 89 0
	ldaw r11, cp[chronodot_ds3231_controller.init.1.1.init]
	ldc r2, 24
	mov r1, r11
	bl __memcpy_4
	.loc	1 95 0
.Ltmp287:
	ldaw r11, cp[.Lstr14]
	mov r0, r11
	bl puts
	.loc	1 97 0
	get r11, id
	.loc	1 97 0
	ldaw r0, dp[__timers]
	.loc	1 97 0
	ldw r0, r0[r11]
	.loc	1 97 0
	setc res[r0], 1
	ldc r1, 64
	.loc	1 97 0
	add r1, r4, r1
	.loc	1 97 0
.Lxta.endpoint_labels2:
	in r0, res[r0]
	.loc	1 97 0
	stw r0, r1[0]
	mkmsk r0, 1
	stw r0, r4[0]
.Ltmp288:
.LBB44_2:
	ldw r4, sp[1]
	retsp 2
	# RETURN_REG_HOLDER
	.cc_bottom chronodot_ds3231_controller.init.1.function
	.set	chronodot_ds3231_controller.init.1.nstackwords,((__memcpy_4.nstackwords $M puts.nstackwords) + 2)
	.globl	chronodot_ds3231_controller.init.1.nstackwords
	.set	chronodot_ds3231_controller.init.1.maxcores,puts.maxcores $M 1
	.globl	chronodot_ds3231_controller.init.1.maxcores
	.set	chronodot_ds3231_controller.init.1.maxtimers,puts.maxtimers $M 0
	.globl	chronodot_ds3231_controller.init.1.maxtimers
	.set	chronodot_ds3231_controller.init.1.maxchanends,puts.maxchanends $M 0
	.globl	chronodot_ds3231_controller.init.1.maxchanends
.Ltmp289:
	.size	chronodot_ds3231_controller.init.1, .Ltmp289-chronodot_ds3231_controller.init.1
.Lfunc_end44:
	.cfi_endproc

	.globl	chronodot_ds3231_controller.init.0
	.align	4
	.type	chronodot_ds3231_controller.init.0,@function
	.cc_top chronodot_ds3231_controller.init.0.function,chronodot_ds3231_controller.init.0
chronodot_ds3231_controller.init.0:
	.cfi_startproc
.Lxtalabel8:
	stw r1, r0[2]
	stw r2, r0[3]
	ldc r2, 0
	stw r2, r0[0]
	ldap r11, chronodot_ds3231_controller.init.1
	stw r11, r0[1]
	ldw r2, r1[0]
	bt r2, .LBB45_2
	ldw r1, r1[1]
	stw r0, r1[0]
.LBB45_2:
	retsp 0
	# RETURN_REG_HOLDER
	.cc_bottom chronodot_ds3231_controller.init.0.function
	.set	chronodot_ds3231_controller.init.0.nstackwords,0
	.globl	chronodot_ds3231_controller.init.0.nstackwords
	.set	chronodot_ds3231_controller.init.0.maxcores,1
	.globl	chronodot_ds3231_controller.init.0.maxcores
	.set	chronodot_ds3231_controller.init.0.maxtimers,0
	.globl	chronodot_ds3231_controller.init.0.maxtimers
	.set	chronodot_ds3231_controller.init.0.maxchanends,0
	.globl	chronodot_ds3231_controller.init.0.maxchanends
.Ltmp290:
	.size	chronodot_ds3231_controller.init.0, .Ltmp290-chronodot_ds3231_controller.init.0
	.cfi_endproc

	.globl	chronodot_ds3231_controller.select.y.enable
	.align	4
	.type	chronodot_ds3231_controller.select.y.enable,@function
	.cc_top chronodot_ds3231_controller.select.y.enable.function,chronodot_ds3231_controller.select.y.enable
chronodot_ds3231_controller.select.y.enable:
	.cfi_startproc
	entsp 2
.Ltmp291:
	.cfi_def_cfa_offset 8
.Ltmp292:
	.cfi_offset 15, 0
	stw r4, sp[1]
.Ltmp293:
	.cfi_offset 4, -4
	mov r4, r0
	bl chronodot_ds3231_controller.init.1
	ldw r0, r4[0]
	bf r0, .LBB46_1
	get r11, id
	ldaw r0, dp[__timers]
	ldw r0, r0[r11]
	ldaw r1, dp[__timer_base]
	ldw r2, r1[r11]
	ldc r1, 64
	add r1, r4, r1
	ldw r1, r1[0]
	sub r2, r1, r2
	ldaw r3, dp[__timer_delta]
	ldw r11, r3[r11]
	lss r11, r11, r2
	bt r11, .LBB46_3
	get r11, id
	stw r2, r3[r11]
	setd res[r0], r1
	setc res[r0], 9
	ldap r11, chronodot_ds3231_controller.select.y.case.0
	setv res[r0], r11
	mov r11, r4
	setev res[r0], r11
.LBB46_3:
	eeu res[r0]
	ldw r0, r4[2]
	ldw r1, r0[0]
	mkmsk r0, 1
	bf r1, .LBB46_5
	ldap r11, chronodot_ds3231_controller.select.y.case.1
	setv res[r1], r11
	mov r11, r4
	setev res[r1], r11
	eeu res[r1]
	bu .LBB46_5
.LBB46_1:
	ldc r0, 0
.LBB46_5:
	ldw r4, sp[1]
	retsp 2
	# RETURN_REG_HOLDER
	.cc_bottom chronodot_ds3231_controller.select.y.enable.function
	.set	chronodot_ds3231_controller.select.y.enable.nstackwords,(chronodot_ds3231_controller.init.1.nstackwords + 2)
	.globl	chronodot_ds3231_controller.select.y.enable.nstackwords
	.set	chronodot_ds3231_controller.select.y.enable.maxcores,chronodot_ds3231_controller.init.1.maxcores $M 1
	.globl	chronodot_ds3231_controller.select.y.enable.maxcores
	.set	chronodot_ds3231_controller.select.y.enable.maxtimers,chronodot_ds3231_controller.init.1.maxtimers $M 0
	.globl	chronodot_ds3231_controller.select.y.enable.maxtimers
	.set	chronodot_ds3231_controller.select.y.enable.maxchanends,chronodot_ds3231_controller.init.1.maxchanends $M 0
	.globl	chronodot_ds3231_controller.select.y.enable.maxchanends
.Ltmp294:
	.size	chronodot_ds3231_controller.select.y.enable, .Ltmp294-chronodot_ds3231_controller.select.y.enable
	.cfi_endproc

	.globl	chronodot_ds3231_controller.select.enable
	.align	4
	.type	chronodot_ds3231_controller.select.enable,@function
	.cc_top chronodot_ds3231_controller.select.enable.function,chronodot_ds3231_controller.select.enable
chronodot_ds3231_controller.select.enable:
	.cfi_startproc
	extsp 1
.Ltmp295:
	.cfi_def_cfa_offset 4
	stw r4, sp[0]
.Ltmp296:
	.cfi_offset 4, -4
	ldw r1, r0[0]
	bf r1, .LBB47_1
	get r11, id
	ldaw r1, dp[__timers]
	ldw r1, r1[r11]
	ldaw r2, dp[__timer_base]
	ldw r3, r2[r11]
	ldc r2, 64
	add r2, r0, r2
	ldw r2, r2[0]
	sub r3, r2, r3
	ldaw r4, dp[__timer_delta]
	ldw r11, r4[r11]
	lss r11, r11, r3
	bt r11, .LBB47_3
	get r11, id
	stw r3, r4[r11]
	setd res[r1], r2
	setc res[r1], 9
	ldap r11, chronodot_ds3231_controller.select.case.0
	setv res[r1], r11
	mov r11, r0
	setev res[r1], r11
.LBB47_3:
	eeu res[r1]
	ldw r1, r0[2]
	ldw r2, r1[0]
	mkmsk r1, 1
	bf r2, .LBB47_5
	ldap r11, chronodot_ds3231_controller.select.case.1
	setv res[r2], r11
	mov r11, r0
	setev res[r2], r11
	eeu res[r2]
	bu .LBB47_5
.LBB47_1:
	ldc r1, 0
.LBB47_5:
	mov r0, r1
	ldw r4, sp[0]
	ldaw sp, sp[1]
	retsp 0
	# RETURN_REG_HOLDER
	.cc_bottom chronodot_ds3231_controller.select.enable.function
	.set	chronodot_ds3231_controller.select.enable.nstackwords,1
	.globl	chronodot_ds3231_controller.select.enable.nstackwords
	.set	chronodot_ds3231_controller.select.enable.maxcores,1
	.globl	chronodot_ds3231_controller.select.enable.maxcores
	.set	chronodot_ds3231_controller.select.enable.maxtimers,0
	.globl	chronodot_ds3231_controller.select.enable.maxtimers
	.set	chronodot_ds3231_controller.select.enable.maxchanends,0
	.globl	chronodot_ds3231_controller.select.enable.maxchanends
.Ltmp297:
	.size	chronodot_ds3231_controller.select.enable, .Ltmp297-chronodot_ds3231_controller.select.enable
	.cfi_endproc

	.globl	chronodot_ds3231_controller.fini
	.align	4
	.type	chronodot_ds3231_controller.fini,@function
	.cc_top chronodot_ds3231_controller.fini.function,chronodot_ds3231_controller.fini
chronodot_ds3231_controller.fini:
	.cfi_startproc
	ldw r0, r0[0]
	bf r0, .LBB48_2
.LBB48_1:
	bu .LBB48_1
.LBB48_2:
	retsp 0
	# RETURN_REG_HOLDER
	.cc_bottom chronodot_ds3231_controller.fini.function
	.set	chronodot_ds3231_controller.fini.nstackwords,0
	.globl	chronodot_ds3231_controller.fini.nstackwords
	.set	chronodot_ds3231_controller.fini.maxcores,1
	.globl	chronodot_ds3231_controller.fini.maxcores
	.set	chronodot_ds3231_controller.fini.maxtimers,0
	.globl	chronodot_ds3231_controller.fini.maxtimers
	.set	chronodot_ds3231_controller.fini.maxchanends,0
	.globl	chronodot_ds3231_controller.fini.maxchanends
.Ltmp298:
	.size	chronodot_ds3231_controller.fini, .Ltmp298-chronodot_ds3231_controller.fini
	.cfi_endproc

	.align	4
	.type	chronodot_ds3231_controller.select.0.case.0,@function
	.cc_top chronodot_ds3231_controller.select.0.case.0.function,chronodot_ds3231_controller.select.0.case.0
chronodot_ds3231_controller.select.0.case.0:
.Lfunc_begin49:
	.loc	1 125 0
	.cfi_startproc
.Lxtalabel9:
	entsp 18
.Ltmp299:
	.cfi_def_cfa_offset 72
.Ltmp300:
	.cfi_offset 15, 0
	stw r4, sp[17]
.Ltmp301:
	.cfi_offset 4, -4
	stw r5, sp[16]
.Ltmp302:
	.cfi_offset 5, -8
	stw r6, sp[15]
.Ltmp303:
	.cfi_offset 6, -12
	stw r7, sp[14]
.Ltmp304:
	.cfi_offset 7, -16
	stw r8, sp[13]
.Ltmp305:
	.cfi_offset 8, -20
	get r11, ed
	mov r4, r11
	ldc r7, 0
	stw r7, r4[0]
	ldw r0, r4[2]
	ldw r0, r0[0]
	in r1, res[r0]
	ldc r2, 254
	add r2, r1, r2
	zext r2, 8
	sub r1, r1, r2
	setd res[r0], r1
	bf r2, .LBB49_2
	outct res[r0], 1
	ldaw r5, sp[7]
	ldc r6, 24
	mov r1, r5
	mov r2, r6
	bl sin_char_array
	.loc	1 131 0 prologue_end
.Ltmp306:
	ldaw r0, r4[4]
	.loc	1 131 0
	mov r1, r5
	mov r2, r6
	bl __memcpy_4
	.loc	1 133 0
	ldaw r5, r4[10]
	.loc	1 133 0
	ldw r0, r4[4]
	ldc r1, 48
	.loc	1 133 0
	add r0, r0, r1
	.loc	1 133 0
	zext r0, 8
.Lxta.call_labels33:
	bl bin2bcd_8
	ldc r1, 46
	.loc	1 133 0
	st8 r0, r4[r1]
	ldc r0, 20
	.loc	1 134 0
	ld8u r0, r4[r0]
.Lxta.call_labels34:
	bl bin2bcd_8
	ldc r1, 45
	.loc	1 134 0
	st8 r0, r4[r1]
	.loc	1 135 0
	ld8u r0, r4[r6]
.Lxta.call_labels35:
	bl bin2bcd_8
	ldc r1, 44
	.loc	1 135 0
	st8 r0, r4[r1]
	ldc r0, 28
	.loc	1 136 0
	ld8u r0, r4[r0]
.Lxta.call_labels36:
	bl bin2bcd_8
	ldc r1, 42
	.loc	1 136 0
	st8 r0, r4[r1]
	ldc r0, 32
	.loc	1 137 0
	ld8u r0, r4[r0]
.Lxta.call_labels37:
	bl bin2bcd_8
	ldc r1, 41
	.loc	1 137 0
	st8 r0, r4[r1]
	ldc r0, 36
	.loc	1 138 0
	ld8u r0, r4[r0]
.Lxta.call_labels38:
	bl bin2bcd_8
	ldc r1, 40
	.loc	1 138 0
	st8 r0, r4[r1]
	ldc r0, 60
	.loc	1 140 0
	add r6, r4, r0
	.loc	1 140 0
	ldw r1, r4[3]
	.loc	1 140 0
	ldw r0, r1[0]
	.loc	1 140 0
	ldw r1, r1[1]
	.loc	1 140 0
	ldw r3, r1[2]
	ldc r1, 104
	.loc	1 140 0
	mov r2, r5
.Lxta.call_labels39:
	bla r3
.Ltmp307:
	.loc	1 140 0
	stw r0, r6[0]
	ldw r1, r4[2]
	ldw r1, r1[0]
	out res[r1], r7
	out res[r1], r0
	outct res[r1], 1
	bu .LBB49_3
.Ltmp308:
.LBB49_2:
	.loc	1 126 0
	ldaw r1, r4[4]
	ldaw r5, sp[1]
	ldc r6, 24
	.loc	1 126 0
	mov r0, r5
	mov r2, r6
	bl __memcpy_4
	ldc r0, 60
	.loc	1 127 0
	add r0, r4, r0
	.loc	1 127 0
	ldw r8, r0[0]
.Ltmp309:
	ldw r0, r4[2]
	ldw r0, r0[0]
	out res[r0], r7
	mov r1, r5
	mov r2, r6
	bl sout_char_array
	ldw r0, r4[2]
	ldw r0, r0[0]
	out res[r0], r8
	outct res[r0], 1
.Ltmp310:
.LBB49_3:
	mkmsk r0, 1
	stw r0, r4[0]
	ldw r8, sp[13]
	ldw r7, sp[14]
	ldw r6, sp[15]
	ldw r5, sp[16]
	ldw r4, sp[17]
	retsp 18
	# RETURN_REG_HOLDER
	.cc_bottom chronodot_ds3231_controller.select.0.case.0.function
	.set	chronodot_ds3231_controller.select.0.case.0.nstackwords,((sout_char_array.nstackwords $M sin_char_array.nstackwords $M __memcpy_4.nstackwords $M bin2bcd_8.nstackwords $M _i.i2c_internal_commands_if.write_chronodot_ok.max.nstackwords) + 18)
	.set	chronodot_ds3231_controller.select.0.case.0.maxcores,_i.i2c_internal_commands_if.write_chronodot_ok.max.maxcores $M bin2bcd_8.maxcores $M sin_char_array.maxcores $M sout_char_array.maxcores $M 1
	.set	chronodot_ds3231_controller.select.0.case.0.maxtimers,_i.i2c_internal_commands_if.write_chronodot_ok.max.maxtimers $M bin2bcd_8.maxtimers $M sin_char_array.maxtimers $M sout_char_array.maxtimers $M 0
	.set	chronodot_ds3231_controller.select.0.case.0.maxchanends,_i.i2c_internal_commands_if.write_chronodot_ok.max.maxchanends $M bin2bcd_8.maxchanends $M sin_char_array.maxchanends $M sout_char_array.maxchanends $M 0
.Ltmp311:
	.size	chronodot_ds3231_controller.select.0.case.0, .Ltmp311-chronodot_ds3231_controller.select.0.case.0
.Lfunc_end49:
	.cfi_endproc

	.section	.cp.rodata.cst4,"aMc",@progbits,4
	.cc_top .LCPI50_0.data,.LCPI50_0
	.align	4
	.type	.LCPI50_0,@object
	.size	.LCPI50_0, 4
.LCPI50_0:
	.long	100000000
	.cc_bottom .LCPI50_0.data
	.text
	.align	4
	.type	chronodot_ds3231_controller.select.y.case.0,@function
	.cc_top chronodot_ds3231_controller.select.y.case.0.function,chronodot_ds3231_controller.select.y.case.0
chronodot_ds3231_controller.select.y.case.0:
.Lfunc_begin50:
	.loc	1 101 0
	.cfi_startproc
.Lxtalabel10:
	entsp 11
.Ltmp312:
	.cfi_def_cfa_offset 44
.Ltmp313:
	.cfi_offset 15, 0
	stw r4, sp[10]
.Ltmp314:
	.cfi_offset 4, -4
	stw r5, sp[9]
.Ltmp315:
	.cfi_offset 5, -8
	stw r6, sp[8]
.Ltmp316:
	.cfi_offset 6, -12
	stw r7, sp[7]
.Ltmp317:
	.cfi_offset 7, -16
	stw r8, sp[6]
.Ltmp318:
	.cfi_offset 8, -20
	get r11, ed
	mov r4, r11
	.loc	1 101 0 prologue_end
.Ltmp319:
	get r11, id
	.loc	1 101 0
	ldaw r0, dp[__timers]
	.loc	1 101 0
	ldw r0, r0[r11]
	.loc	1 101 0
.Ltmp320:
.Lxta.endpoint_labels3:
	in r0, res[r0]
	ldc r8, 0
	stw r8, r4[0]
	ldc r0, 64
.Ltmp321:
	.loc	1 103 0
	add r0, r4, r0
	.loc	1 103 0
	ldw r1, r0[0]
	ldw r2, cp[.LCPI50_0]
	.loc	1 103 0
	add r1, r1, r2
	.loc	1 103 0
	stw r1, r0[0]
	.loc	1 105 0
	ldw r0, r4[3]
	.loc	1 105 0
	ldw r1, r0[0]
	.loc	1 105 0
	ldw r0, r0[1]
	.loc	1 105 0
	ldw r3, r0[1]
	ldaw r6, sp[1]
	ldc r2, 104
	.loc	1 105 0
	mov r0, r6
.Lxta.call_labels40:
	bla r3
	mov r7, r0
	.loc	1 105 0
	ldaw r5, r4[10]
	ldc r2, 19
	.loc	1 105 0
	mov r0, r5
	mov r1, r6
	bl memcpy
	ldc r0, 60
	.loc	1 105 0
	add r0, r4, r0
	.loc	1 105 0
	stw r7, r0[0]
	bf r7, .LBB50_2
.Lxtalabel11:
	ldc r0, 46
	.loc	1 108 0
	ld8u r0, r4[r0]
.Lxta.call_labels41:
	bl bcd2bin_8
	ldc r1, 2000
	.loc	1 108 0
	add r0, r0, r1
	.loc	1 108 0
	stw r0, r4[4]
	ldc r0, 45
	.loc	1 109 0
	ld8u r0, r4[r0]
.Lxta.call_labels42:
	bl bcd2bin_8
	.loc	1 109 0
	stw r0, r4[5]
	ldc r0, 44
	.loc	1 110 0
	ld8u r0, r4[r0]
.Lxta.call_labels43:
	bl bcd2bin_8
	.loc	1 110 0
	stw r0, r4[6]
	ldc r0, 42
	.loc	1 111 0
	ld8u r0, r4[r0]
.Lxta.call_labels44:
	bl bcd2bin_8
	.loc	1 111 0
	stw r0, r4[7]
	ldc r0, 41
	.loc	1 112 0
	ld8u r0, r4[r0]
.Lxta.call_labels45:
	bl bcd2bin_8
	.loc	1 112 0
	stw r0, r4[8]
	.loc	1 113 0
	ld8u r0, r5[r8]
	.loc	1 113 0
	zext r0, 7
	.loc	1 113 0
.Lxta.call_labels46:
	bl bcd2bin_8
	.loc	1 113 0
	stw r0, r4[9]
.Ltmp322:
.LBB50_2:
.Lxtalabel12:
	mkmsk r0, 1
	stw r0, r4[0]
	ldw r8, sp[6]
	ldw r7, sp[7]
	ldw r6, sp[8]
	ldw r5, sp[9]
	ldw r4, sp[10]
	retsp 11
	# RETURN_REG_HOLDER
	.cc_bottom chronodot_ds3231_controller.select.y.case.0.function
	.set	chronodot_ds3231_controller.select.y.case.0.nstackwords,((_i.i2c_internal_commands_if.read_chronodot_ok.max.nstackwords $M memcpy.nstackwords $M bcd2bin_8.nstackwords) + 11)
	.set	chronodot_ds3231_controller.select.y.case.0.maxcores,_i.i2c_internal_commands_if.read_chronodot_ok.max.maxcores $M bcd2bin_8.maxcores $M 1
	.set	chronodot_ds3231_controller.select.y.case.0.maxtimers,_i.i2c_internal_commands_if.read_chronodot_ok.max.maxtimers $M bcd2bin_8.maxtimers $M 0
	.set	chronodot_ds3231_controller.select.y.case.0.maxchanends,_i.i2c_internal_commands_if.read_chronodot_ok.max.maxchanends $M bcd2bin_8.maxchanends $M 0
.Ltmp323:
	.size	chronodot_ds3231_controller.select.y.case.0, .Ltmp323-chronodot_ds3231_controller.select.y.case.0
.Lfunc_end50:
	.cfi_endproc

	.align	4
	.type	chronodot_ds3231_controller.select.y.case.1,@function
	.cc_top chronodot_ds3231_controller.select.y.case.1.function,chronodot_ds3231_controller.select.y.case.1
chronodot_ds3231_controller.select.y.case.1:
.Lfunc_begin51:
	.loc	1 125 0
	.cfi_startproc
.Lxtalabel13:
	entsp 18
.Ltmp324:
	.cfi_def_cfa_offset 72
.Ltmp325:
	.cfi_offset 15, 0
	stw r4, sp[17]
.Ltmp326:
	.cfi_offset 4, -4
	stw r5, sp[16]
.Ltmp327:
	.cfi_offset 5, -8
	stw r6, sp[15]
.Ltmp328:
	.cfi_offset 6, -12
	stw r7, sp[14]
.Ltmp329:
	.cfi_offset 7, -16
	stw r8, sp[13]
.Ltmp330:
	.cfi_offset 8, -20
	get r11, ed
	mov r4, r11
	ldc r7, 0
	stw r7, r4[0]
	ldw r0, r4[2]
	ldw r0, r0[0]
	in r1, res[r0]
	ldc r2, 254
	add r2, r1, r2
	zext r2, 8
	sub r1, r1, r2
	setd res[r0], r1
	bf r2, .LBB51_2
	outct res[r0], 1
	ldaw r5, sp[7]
	ldc r6, 24
	mov r1, r5
	mov r2, r6
	bl sin_char_array
	.loc	1 131 0 prologue_end
.Ltmp331:
	ldaw r0, r4[4]
	.loc	1 131 0
	mov r1, r5
	mov r2, r6
	bl __memcpy_4
	.loc	1 133 0
	ldaw r5, r4[10]
	.loc	1 133 0
	ldw r0, r4[4]
	ldc r1, 48
	.loc	1 133 0
	add r0, r0, r1
	.loc	1 133 0
	zext r0, 8
.Lxta.call_labels47:
	bl bin2bcd_8
	ldc r1, 46
	.loc	1 133 0
	st8 r0, r4[r1]
	ldc r0, 20
	.loc	1 134 0
	ld8u r0, r4[r0]
.Lxta.call_labels48:
	bl bin2bcd_8
	ldc r1, 45
	.loc	1 134 0
	st8 r0, r4[r1]
	.loc	1 135 0
	ld8u r0, r4[r6]
.Lxta.call_labels49:
	bl bin2bcd_8
	ldc r1, 44
	.loc	1 135 0
	st8 r0, r4[r1]
	ldc r0, 28
	.loc	1 136 0
	ld8u r0, r4[r0]
.Lxta.call_labels50:
	bl bin2bcd_8
	ldc r1, 42
	.loc	1 136 0
	st8 r0, r4[r1]
	ldc r0, 32
	.loc	1 137 0
	ld8u r0, r4[r0]
.Lxta.call_labels51:
	bl bin2bcd_8
	ldc r1, 41
	.loc	1 137 0
	st8 r0, r4[r1]
	ldc r0, 36
	.loc	1 138 0
	ld8u r0, r4[r0]
.Lxta.call_labels52:
	bl bin2bcd_8
	ldc r1, 40
	.loc	1 138 0
	st8 r0, r4[r1]
	ldc r0, 60
	.loc	1 140 0
	add r6, r4, r0
	.loc	1 140 0
	ldw r1, r4[3]
	.loc	1 140 0
	ldw r0, r1[0]
	.loc	1 140 0
	ldw r1, r1[1]
	.loc	1 140 0
	ldw r3, r1[2]
	ldc r1, 104
	.loc	1 140 0
	mov r2, r5
.Lxta.call_labels53:
	bla r3
.Ltmp332:
	.loc	1 140 0
	stw r0, r6[0]
	ldw r1, r4[2]
	ldw r1, r1[0]
	out res[r1], r7
	out res[r1], r0
	outct res[r1], 1
	bu .LBB51_3
.Ltmp333:
.LBB51_2:
	.loc	1 126 0
	ldaw r1, r4[4]
	ldaw r5, sp[1]
	ldc r6, 24
	.loc	1 126 0
	mov r0, r5
	mov r2, r6
	bl __memcpy_4
	ldc r0, 60
	.loc	1 127 0
	add r0, r4, r0
	.loc	1 127 0
	ldw r8, r0[0]
.Ltmp334:
	ldw r0, r4[2]
	ldw r0, r0[0]
	out res[r0], r7
	mov r1, r5
	mov r2, r6
	bl sout_char_array
	ldw r0, r4[2]
	ldw r0, r0[0]
	out res[r0], r8
	outct res[r0], 1
.Ltmp335:
.LBB51_3:
	mkmsk r0, 1
	stw r0, r4[0]
	ldw r8, sp[13]
	ldw r7, sp[14]
	ldw r6, sp[15]
	ldw r5, sp[16]
	ldw r4, sp[17]
	retsp 18
	# RETURN_REG_HOLDER
	.cc_bottom chronodot_ds3231_controller.select.y.case.1.function
	.set	chronodot_ds3231_controller.select.y.case.1.nstackwords,((sout_char_array.nstackwords $M sin_char_array.nstackwords $M __memcpy_4.nstackwords $M bin2bcd_8.nstackwords $M _i.i2c_internal_commands_if.write_chronodot_ok.max.nstackwords) + 18)
	.set	chronodot_ds3231_controller.select.y.case.1.maxcores,_i.i2c_internal_commands_if.write_chronodot_ok.max.maxcores $M bin2bcd_8.maxcores $M sin_char_array.maxcores $M sout_char_array.maxcores $M 1
	.set	chronodot_ds3231_controller.select.y.case.1.maxtimers,_i.i2c_internal_commands_if.write_chronodot_ok.max.maxtimers $M bin2bcd_8.maxtimers $M sin_char_array.maxtimers $M sout_char_array.maxtimers $M 0
	.set	chronodot_ds3231_controller.select.y.case.1.maxchanends,_i.i2c_internal_commands_if.write_chronodot_ok.max.maxchanends $M bin2bcd_8.maxchanends $M sin_char_array.maxchanends $M sout_char_array.maxchanends $M 0
.Ltmp336:
	.size	chronodot_ds3231_controller.select.y.case.1, .Ltmp336-chronodot_ds3231_controller.select.y.case.1
.Lfunc_end51:
	.cfi_endproc

	.section	.cp.rodata.cst4,"aMc",@progbits,4
	.cc_top .LCPI52_0.data,.LCPI52_0
	.align	4
	.type	.LCPI52_0,@object
	.size	.LCPI52_0, 4
.LCPI52_0:
	.long	100000000
	.cc_bottom .LCPI52_0.data
	.text
	.align	4
	.type	chronodot_ds3231_controller.select.case.0,@function
	.cc_top chronodot_ds3231_controller.select.case.0.function,chronodot_ds3231_controller.select.case.0
chronodot_ds3231_controller.select.case.0:
.Lfunc_begin52:
	.loc	1 101 0
	.cfi_startproc
.Lxtalabel14:
	entsp 11
.Ltmp337:
	.cfi_def_cfa_offset 44
.Ltmp338:
	.cfi_offset 15, 0
	stw r4, sp[10]
.Ltmp339:
	.cfi_offset 4, -4
	stw r5, sp[9]
.Ltmp340:
	.cfi_offset 5, -8
	stw r6, sp[8]
.Ltmp341:
	.cfi_offset 6, -12
	stw r7, sp[7]
.Ltmp342:
	.cfi_offset 7, -16
	stw r8, sp[6]
.Ltmp343:
	.cfi_offset 8, -20
	get r11, ed
	mov r4, r11
	.loc	1 101 0 prologue_end
.Ltmp344:
	get r11, id
	.loc	1 101 0
	ldaw r0, dp[__timers]
	.loc	1 101 0
	ldw r0, r0[r11]
	.loc	1 101 0
.Ltmp345:
.Lxta.endpoint_labels4:
	in r0, res[r0]
	ldc r8, 0
	stw r8, r4[0]
	ldc r0, 64
.Ltmp346:
	.loc	1 103 0
	add r0, r4, r0
	.loc	1 103 0
	ldw r1, r0[0]
	ldw r2, cp[.LCPI52_0]
	.loc	1 103 0
	add r1, r1, r2
	.loc	1 103 0
	stw r1, r0[0]
	.loc	1 105 0
	ldw r0, r4[3]
	.loc	1 105 0
	ldw r1, r0[0]
	.loc	1 105 0
	ldw r0, r0[1]
	.loc	1 105 0
	ldw r3, r0[1]
	ldaw r6, sp[1]
	ldc r2, 104
	.loc	1 105 0
	mov r0, r6
.Lxta.call_labels54:
	bla r3
	mov r7, r0
	.loc	1 105 0
	ldaw r5, r4[10]
	ldc r2, 19
	.loc	1 105 0
	mov r0, r5
	mov r1, r6
	bl memcpy
	ldc r0, 60
	.loc	1 105 0
	add r0, r4, r0
	.loc	1 105 0
	stw r7, r0[0]
	bf r7, .LBB52_2
.Lxtalabel15:
	ldc r0, 46
	.loc	1 108 0
	ld8u r0, r4[r0]
.Lxta.call_labels55:
	bl bcd2bin_8
	ldc r1, 2000
	.loc	1 108 0
	add r0, r0, r1
	.loc	1 108 0
	stw r0, r4[4]
	ldc r0, 45
	.loc	1 109 0
	ld8u r0, r4[r0]
.Lxta.call_labels56:
	bl bcd2bin_8
	.loc	1 109 0
	stw r0, r4[5]
	ldc r0, 44
	.loc	1 110 0
	ld8u r0, r4[r0]
.Lxta.call_labels57:
	bl bcd2bin_8
	.loc	1 110 0
	stw r0, r4[6]
	ldc r0, 42
	.loc	1 111 0
	ld8u r0, r4[r0]
.Lxta.call_labels58:
	bl bcd2bin_8
	.loc	1 111 0
	stw r0, r4[7]
	ldc r0, 41
	.loc	1 112 0
	ld8u r0, r4[r0]
.Lxta.call_labels59:
	bl bcd2bin_8
	.loc	1 112 0
	stw r0, r4[8]
	.loc	1 113 0
	ld8u r0, r5[r8]
	.loc	1 113 0
	zext r0, 7
	.loc	1 113 0
.Lxta.call_labels60:
	bl bcd2bin_8
	.loc	1 113 0
	stw r0, r4[9]
.Ltmp347:
.LBB52_2:
.Lxtalabel16:
	mkmsk r0, 1
	stw r0, r4[0]
	ldw r8, sp[6]
	ldw r7, sp[7]
	ldw r6, sp[8]
	ldw r5, sp[9]
	ldw r4, sp[10]
	retsp 11
	# RETURN_REG_HOLDER
	.cc_bottom chronodot_ds3231_controller.select.case.0.function
	.set	chronodot_ds3231_controller.select.case.0.nstackwords,((_i.i2c_internal_commands_if.read_chronodot_ok.max.nstackwords $M memcpy.nstackwords $M bcd2bin_8.nstackwords) + 11)
	.set	chronodot_ds3231_controller.select.case.0.maxcores,_i.i2c_internal_commands_if.read_chronodot_ok.max.maxcores $M bcd2bin_8.maxcores $M 1
	.set	chronodot_ds3231_controller.select.case.0.maxtimers,_i.i2c_internal_commands_if.read_chronodot_ok.max.maxtimers $M bcd2bin_8.maxtimers $M 0
	.set	chronodot_ds3231_controller.select.case.0.maxchanends,_i.i2c_internal_commands_if.read_chronodot_ok.max.maxchanends $M bcd2bin_8.maxchanends $M 0
.Ltmp348:
	.size	chronodot_ds3231_controller.select.case.0, .Ltmp348-chronodot_ds3231_controller.select.case.0
.Lfunc_end52:
	.cfi_endproc

	.align	4
	.type	chronodot_ds3231_controller.select.case.1,@function
	.cc_top chronodot_ds3231_controller.select.case.1.function,chronodot_ds3231_controller.select.case.1
chronodot_ds3231_controller.select.case.1:
.Lfunc_begin53:
	.loc	1 125 0
	.cfi_startproc
.Lxtalabel17:
	entsp 18
.Ltmp349:
	.cfi_def_cfa_offset 72
.Ltmp350:
	.cfi_offset 15, 0
	stw r4, sp[17]
.Ltmp351:
	.cfi_offset 4, -4
	stw r5, sp[16]
.Ltmp352:
	.cfi_offset 5, -8
	stw r6, sp[15]
.Ltmp353:
	.cfi_offset 6, -12
	stw r7, sp[14]
.Ltmp354:
	.cfi_offset 7, -16
	stw r8, sp[13]
.Ltmp355:
	.cfi_offset 8, -20
	get r11, ed
	mov r4, r11
	ldc r7, 0
	stw r7, r4[0]
	ldw r0, r4[2]
	ldw r0, r0[0]
	in r1, res[r0]
	ldc r2, 254
	add r2, r1, r2
	zext r2, 8
	sub r1, r1, r2
	setd res[r0], r1
	bf r2, .LBB53_2
	outct res[r0], 1
	ldaw r5, sp[7]
	ldc r6, 24
	mov r1, r5
	mov r2, r6
	bl sin_char_array
	.loc	1 131 0 prologue_end
.Ltmp356:
	ldaw r0, r4[4]
	.loc	1 131 0
	mov r1, r5
	mov r2, r6
	bl __memcpy_4
	.loc	1 133 0
	ldaw r5, r4[10]
	.loc	1 133 0
	ldw r0, r4[4]
	ldc r1, 48
	.loc	1 133 0
	add r0, r0, r1
	.loc	1 133 0
	zext r0, 8
.Lxta.call_labels61:
	bl bin2bcd_8
	ldc r1, 46
	.loc	1 133 0
	st8 r0, r4[r1]
	ldc r0, 20
	.loc	1 134 0
	ld8u r0, r4[r0]
.Lxta.call_labels62:
	bl bin2bcd_8
	ldc r1, 45
	.loc	1 134 0
	st8 r0, r4[r1]
	.loc	1 135 0
	ld8u r0, r4[r6]
.Lxta.call_labels63:
	bl bin2bcd_8
	ldc r1, 44
	.loc	1 135 0
	st8 r0, r4[r1]
	ldc r0, 28
	.loc	1 136 0
	ld8u r0, r4[r0]
.Lxta.call_labels64:
	bl bin2bcd_8
	ldc r1, 42
	.loc	1 136 0
	st8 r0, r4[r1]
	ldc r0, 32
	.loc	1 137 0
	ld8u r0, r4[r0]
.Lxta.call_labels65:
	bl bin2bcd_8
	ldc r1, 41
	.loc	1 137 0
	st8 r0, r4[r1]
	ldc r0, 36
	.loc	1 138 0
	ld8u r0, r4[r0]
.Lxta.call_labels66:
	bl bin2bcd_8
	ldc r1, 40
	.loc	1 138 0
	st8 r0, r4[r1]
	ldc r0, 60
	.loc	1 140 0
	add r6, r4, r0
	.loc	1 140 0
	ldw r1, r4[3]
	.loc	1 140 0
	ldw r0, r1[0]
	.loc	1 140 0
	ldw r1, r1[1]
	.loc	1 140 0
	ldw r3, r1[2]
	ldc r1, 104
	.loc	1 140 0
	mov r2, r5
.Lxta.call_labels67:
	bla r3
.Ltmp357:
	.loc	1 140 0
	stw r0, r6[0]
	ldw r1, r4[2]
	ldw r1, r1[0]
	out res[r1], r7
	out res[r1], r0
	outct res[r1], 1
	bu .LBB53_3
.Ltmp358:
.LBB53_2:
	.loc	1 126 0
	ldaw r1, r4[4]
	ldaw r5, sp[1]
	ldc r6, 24
	.loc	1 126 0
	mov r0, r5
	mov r2, r6
	bl __memcpy_4
	ldc r0, 60
	.loc	1 127 0
	add r0, r4, r0
	.loc	1 127 0
	ldw r8, r0[0]
.Ltmp359:
	ldw r0, r4[2]
	ldw r0, r0[0]
	out res[r0], r7
	mov r1, r5
	mov r2, r6
	bl sout_char_array
	ldw r0, r4[2]
	ldw r0, r0[0]
	out res[r0], r8
	outct res[r0], 1
.Ltmp360:
.LBB53_3:
	mkmsk r0, 1
	stw r0, r4[0]
	ldw r8, sp[13]
	ldw r7, sp[14]
	ldw r6, sp[15]
	ldw r5, sp[16]
	ldw r4, sp[17]
	retsp 18
	# RETURN_REG_HOLDER
	.cc_bottom chronodot_ds3231_controller.select.case.1.function
	.set	chronodot_ds3231_controller.select.case.1.nstackwords,((sout_char_array.nstackwords $M sin_char_array.nstackwords $M __memcpy_4.nstackwords $M bin2bcd_8.nstackwords $M _i.i2c_internal_commands_if.write_chronodot_ok.max.nstackwords) + 18)
	.set	chronodot_ds3231_controller.select.case.1.maxcores,_i.i2c_internal_commands_if.write_chronodot_ok.max.maxcores $M bin2bcd_8.maxcores $M sin_char_array.maxcores $M sout_char_array.maxcores $M 1
	.set	chronodot_ds3231_controller.select.case.1.maxtimers,_i.i2c_internal_commands_if.write_chronodot_ok.max.maxtimers $M bin2bcd_8.maxtimers $M sin_char_array.maxtimers $M sout_char_array.maxtimers $M 0
	.set	chronodot_ds3231_controller.select.case.1.maxchanends,_i.i2c_internal_commands_if.write_chronodot_ok.max.maxchanends $M bin2bcd_8.maxchanends $M sin_char_array.maxchanends $M sout_char_array.maxchanends $M 0
.Ltmp361:
	.size	chronodot_ds3231_controller.select.case.1, .Ltmp361-chronodot_ds3231_controller.select.case.1
.Lfunc_end53:
	.cfi_endproc

	.section	.cp.rodata,"ac",@progbits
	.cc_top chronodot_ds3231_controller.init.1.1.init.data,chronodot_ds3231_controller.init.1.1.init
	.align	4
	.type	chronodot_ds3231_controller.init.1.1.init,@object
	.size	chronodot_ds3231_controller.init.1.1.init, 24
chronodot_ds3231_controller.init.1.1.init:
	.long	1950
	.long	6
	.long	14
	.long	0
	.long	0
	.long	0
	.cc_bottom chronodot_ds3231_controller.init.1.1.init.data
	.section	.cp.rodata.string,"aMSc",@progbits
	.cc_top .Lstr14.data,.Lstr14
	.align	4
	.type	.Lstr14,@object
	.size	.Lstr14, 36
.Lstr14:
.asciiz"chronodot_ds3231_controller started"
	.cc_bottom .Lstr14.data
	.text
.Ldebug_end0:
	.file	3 "/Applications/XMOS_xTIMEcomposer_Community_14.2.3/target/include/timer.h"
	.section	.xtacalltable,"",@progbits
.Lentries_start0:
	.long	.Lentries_end1-.Lentries_start0
	.long	0
	.ascii	"/Users/teig/workspace/_Aquarium_1_x/.build"
	.byte	0
.cc_top cc_0,.Lxta.call_labels7
	.ascii	"../src/chronodot_ds3231_controller.xc"
	.byte	0
	.long	40
	.long	.Lxta.call_labels7
.cc_bottom cc_0
.cc_top cc_1,.Lxta.call_labels8
	.ascii	"../src/chronodot_ds3231_controller.xc"
	.byte	0
	.long	41
	.long	.Lxta.call_labels8
.cc_bottom cc_1
.cc_top cc_2,.Lxta.call_labels9
	.ascii	"../src/chronodot_ds3231_controller.xc"
	.byte	0
	.long	42
	.long	.Lxta.call_labels9
.cc_bottom cc_2
.cc_top cc_3,.Lxta.call_labels10
	.ascii	"../src/chronodot_ds3231_controller.xc"
	.byte	0
	.long	43
	.long	.Lxta.call_labels10
.cc_bottom cc_3
.cc_top cc_4,.Lxta.call_labels11
	.ascii	"../src/chronodot_ds3231_controller.xc"
	.byte	0
	.long	44
	.long	.Lxta.call_labels11
.cc_bottom cc_4
.cc_top cc_5,.Lxta.call_labels12
	.ascii	"../src/chronodot_ds3231_controller.xc"
	.byte	0
	.long	45
	.long	.Lxta.call_labels12
.cc_bottom cc_5
.cc_top cc_6,.Lxta.call_labels13
	.ascii	"../src/chronodot_ds3231_controller.xc"
	.byte	0
	.long	55
	.long	.Lxta.call_labels13
.cc_bottom cc_6
.cc_top cc_7,.Lxta.call_labels14
	.ascii	"../src/chronodot_ds3231_controller.xc"
	.byte	0
	.long	56
	.long	.Lxta.call_labels14
.cc_bottom cc_7
.cc_top cc_8,.Lxta.call_labels15
	.ascii	"../src/chronodot_ds3231_controller.xc"
	.byte	0
	.long	57
	.long	.Lxta.call_labels15
.cc_bottom cc_8
.cc_top cc_9,.Lxta.call_labels16
	.ascii	"../src/chronodot_ds3231_controller.xc"
	.byte	0
	.long	58
	.long	.Lxta.call_labels16
.cc_bottom cc_9
.cc_top cc_10,.Lxta.call_labels17
	.ascii	"../src/chronodot_ds3231_controller.xc"
	.byte	0
	.long	59
	.long	.Lxta.call_labels17
.cc_bottom cc_10
.cc_top cc_11,.Lxta.call_labels18
	.ascii	"../src/chronodot_ds3231_controller.xc"
	.byte	0
	.long	60
	.long	.Lxta.call_labels18
.cc_bottom cc_11
.cc_top cc_12,.Lxta.call_labels40
	.ascii	"../src/chronodot_ds3231_controller.xc"
	.byte	0
	.long	105
	.long	.Lxta.call_labels40
.cc_bottom cc_12
.cc_top cc_13,.Lxta.call_labels54
	.ascii	"../src/chronodot_ds3231_controller.xc"
	.byte	0
	.long	105
	.long	.Lxta.call_labels54
.cc_bottom cc_13
.cc_top cc_14,.Lxta.call_labels19
	.ascii	"../src/chronodot_ds3231_controller.xc"
	.byte	0
	.long	105
	.long	.Lxta.call_labels19
.cc_bottom cc_14
.cc_top cc_15,.Lxta.call_labels20
	.ascii	"../src/chronodot_ds3231_controller.xc"
	.byte	0
	.long	108
	.long	.Lxta.call_labels20
.cc_bottom cc_15
.cc_top cc_16,.Lxta.call_labels55
	.ascii	"../src/chronodot_ds3231_controller.xc"
	.byte	0
	.long	108
	.long	.Lxta.call_labels55
.cc_bottom cc_16
.cc_top cc_17,.Lxta.call_labels41
	.ascii	"../src/chronodot_ds3231_controller.xc"
	.byte	0
	.long	108
	.long	.Lxta.call_labels41
.cc_bottom cc_17
.cc_top cc_18,.Lxta.call_labels21
	.ascii	"../src/chronodot_ds3231_controller.xc"
	.byte	0
	.long	109
	.long	.Lxta.call_labels21
.cc_bottom cc_18
.cc_top cc_19,.Lxta.call_labels56
	.ascii	"../src/chronodot_ds3231_controller.xc"
	.byte	0
	.long	109
	.long	.Lxta.call_labels56
.cc_bottom cc_19
.cc_top cc_20,.Lxta.call_labels42
	.ascii	"../src/chronodot_ds3231_controller.xc"
	.byte	0
	.long	109
	.long	.Lxta.call_labels42
.cc_bottom cc_20
.cc_top cc_21,.Lxta.call_labels57
	.ascii	"../src/chronodot_ds3231_controller.xc"
	.byte	0
	.long	110
	.long	.Lxta.call_labels57
.cc_bottom cc_21
.cc_top cc_22,.Lxta.call_labels22
	.ascii	"../src/chronodot_ds3231_controller.xc"
	.byte	0
	.long	110
	.long	.Lxta.call_labels22
.cc_bottom cc_22
.cc_top cc_23,.Lxta.call_labels43
	.ascii	"../src/chronodot_ds3231_controller.xc"
	.byte	0
	.long	110
	.long	.Lxta.call_labels43
.cc_bottom cc_23
.cc_top cc_24,.Lxta.call_labels44
	.ascii	"../src/chronodot_ds3231_controller.xc"
	.byte	0
	.long	111
	.long	.Lxta.call_labels44
.cc_bottom cc_24
.cc_top cc_25,.Lxta.call_labels23
	.ascii	"../src/chronodot_ds3231_controller.xc"
	.byte	0
	.long	111
	.long	.Lxta.call_labels23
.cc_bottom cc_25
.cc_top cc_26,.Lxta.call_labels58
	.ascii	"../src/chronodot_ds3231_controller.xc"
	.byte	0
	.long	111
	.long	.Lxta.call_labels58
.cc_bottom cc_26
.cc_top cc_27,.Lxta.call_labels24
	.ascii	"../src/chronodot_ds3231_controller.xc"
	.byte	0
	.long	112
	.long	.Lxta.call_labels24
.cc_bottom cc_27
.cc_top cc_28,.Lxta.call_labels59
	.ascii	"../src/chronodot_ds3231_controller.xc"
	.byte	0
	.long	112
	.long	.Lxta.call_labels59
.cc_bottom cc_28
.cc_top cc_29,.Lxta.call_labels45
	.ascii	"../src/chronodot_ds3231_controller.xc"
	.byte	0
	.long	112
	.long	.Lxta.call_labels45
.cc_bottom cc_29
.cc_top cc_30,.Lxta.call_labels46
	.ascii	"../src/chronodot_ds3231_controller.xc"
	.byte	0
	.long	113
	.long	.Lxta.call_labels46
.cc_bottom cc_30
.cc_top cc_31,.Lxta.call_labels25
	.ascii	"../src/chronodot_ds3231_controller.xc"
	.byte	0
	.long	113
	.long	.Lxta.call_labels25
.cc_bottom cc_31
.cc_top cc_32,.Lxta.call_labels60
	.ascii	"../src/chronodot_ds3231_controller.xc"
	.byte	0
	.long	113
	.long	.Lxta.call_labels60
.cc_bottom cc_32
.cc_top cc_33,.Lxta.call_labels33
	.ascii	"../src/chronodot_ds3231_controller.xc"
	.byte	0
	.long	133
	.long	.Lxta.call_labels33
.cc_bottom cc_33
.cc_top cc_34,.Lxta.call_labels47
	.ascii	"../src/chronodot_ds3231_controller.xc"
	.byte	0
	.long	133
	.long	.Lxta.call_labels47
.cc_bottom cc_34
.cc_top cc_35,.Lxta.call_labels61
	.ascii	"../src/chronodot_ds3231_controller.xc"
	.byte	0
	.long	133
	.long	.Lxta.call_labels61
.cc_bottom cc_35
.cc_top cc_36,.Lxta.call_labels26
	.ascii	"../src/chronodot_ds3231_controller.xc"
	.byte	0
	.long	133
	.long	.Lxta.call_labels26
.cc_bottom cc_36
.cc_top cc_37,.Lxta.call_labels0
	.ascii	"../src/chronodot_ds3231_controller.xc"
	.byte	0
	.long	133
	.long	.Lxta.call_labels0
.cc_bottom cc_37
.cc_top cc_38,.Lxta.call_labels34
	.ascii	"../src/chronodot_ds3231_controller.xc"
	.byte	0
	.long	134
	.long	.Lxta.call_labels34
.cc_bottom cc_38
.cc_top cc_39,.Lxta.call_labels62
	.ascii	"../src/chronodot_ds3231_controller.xc"
	.byte	0
	.long	134
	.long	.Lxta.call_labels62
.cc_bottom cc_39
.cc_top cc_40,.Lxta.call_labels1
	.ascii	"../src/chronodot_ds3231_controller.xc"
	.byte	0
	.long	134
	.long	.Lxta.call_labels1
.cc_bottom cc_40
.cc_top cc_41,.Lxta.call_labels48
	.ascii	"../src/chronodot_ds3231_controller.xc"
	.byte	0
	.long	134
	.long	.Lxta.call_labels48
.cc_bottom cc_41
.cc_top cc_42,.Lxta.call_labels27
	.ascii	"../src/chronodot_ds3231_controller.xc"
	.byte	0
	.long	134
	.long	.Lxta.call_labels27
.cc_bottom cc_42
.cc_top cc_43,.Lxta.call_labels2
	.ascii	"../src/chronodot_ds3231_controller.xc"
	.byte	0
	.long	135
	.long	.Lxta.call_labels2
.cc_bottom cc_43
.cc_top cc_44,.Lxta.call_labels28
	.ascii	"../src/chronodot_ds3231_controller.xc"
	.byte	0
	.long	135
	.long	.Lxta.call_labels28
.cc_bottom cc_44
.cc_top cc_45,.Lxta.call_labels63
	.ascii	"../src/chronodot_ds3231_controller.xc"
	.byte	0
	.long	135
	.long	.Lxta.call_labels63
.cc_bottom cc_45
.cc_top cc_46,.Lxta.call_labels35
	.ascii	"../src/chronodot_ds3231_controller.xc"
	.byte	0
	.long	135
	.long	.Lxta.call_labels35
.cc_bottom cc_46
.cc_top cc_47,.Lxta.call_labels49
	.ascii	"../src/chronodot_ds3231_controller.xc"
	.byte	0
	.long	135
	.long	.Lxta.call_labels49
.cc_bottom cc_47
.cc_top cc_48,.Lxta.call_labels36
	.ascii	"../src/chronodot_ds3231_controller.xc"
	.byte	0
	.long	136
	.long	.Lxta.call_labels36
.cc_bottom cc_48
.cc_top cc_49,.Lxta.call_labels29
	.ascii	"../src/chronodot_ds3231_controller.xc"
	.byte	0
	.long	136
	.long	.Lxta.call_labels29
.cc_bottom cc_49
.cc_top cc_50,.Lxta.call_labels50
	.ascii	"../src/chronodot_ds3231_controller.xc"
	.byte	0
	.long	136
	.long	.Lxta.call_labels50
.cc_bottom cc_50
.cc_top cc_51,.Lxta.call_labels3
	.ascii	"../src/chronodot_ds3231_controller.xc"
	.byte	0
	.long	136
	.long	.Lxta.call_labels3
.cc_bottom cc_51
.cc_top cc_52,.Lxta.call_labels64
	.ascii	"../src/chronodot_ds3231_controller.xc"
	.byte	0
	.long	136
	.long	.Lxta.call_labels64
.cc_bottom cc_52
.cc_top cc_53,.Lxta.call_labels51
	.ascii	"../src/chronodot_ds3231_controller.xc"
	.byte	0
	.long	137
	.long	.Lxta.call_labels51
.cc_bottom cc_53
.cc_top cc_54,.Lxta.call_labels4
	.ascii	"../src/chronodot_ds3231_controller.xc"
	.byte	0
	.long	137
	.long	.Lxta.call_labels4
.cc_bottom cc_54
.cc_top cc_55,.Lxta.call_labels30
	.ascii	"../src/chronodot_ds3231_controller.xc"
	.byte	0
	.long	137
	.long	.Lxta.call_labels30
.cc_bottom cc_55
.cc_top cc_56,.Lxta.call_labels37
	.ascii	"../src/chronodot_ds3231_controller.xc"
	.byte	0
	.long	137
	.long	.Lxta.call_labels37
.cc_bottom cc_56
.cc_top cc_57,.Lxta.call_labels65
	.ascii	"../src/chronodot_ds3231_controller.xc"
	.byte	0
	.long	137
	.long	.Lxta.call_labels65
.cc_bottom cc_57
.cc_top cc_58,.Lxta.call_labels52
	.ascii	"../src/chronodot_ds3231_controller.xc"
	.byte	0
	.long	138
	.long	.Lxta.call_labels52
.cc_bottom cc_58
.cc_top cc_59,.Lxta.call_labels5
	.ascii	"../src/chronodot_ds3231_controller.xc"
	.byte	0
	.long	138
	.long	.Lxta.call_labels5
.cc_bottom cc_59
.cc_top cc_60,.Lxta.call_labels38
	.ascii	"../src/chronodot_ds3231_controller.xc"
	.byte	0
	.long	138
	.long	.Lxta.call_labels38
.cc_bottom cc_60
.cc_top cc_61,.Lxta.call_labels31
	.ascii	"../src/chronodot_ds3231_controller.xc"
	.byte	0
	.long	138
	.long	.Lxta.call_labels31
.cc_bottom cc_61
.cc_top cc_62,.Lxta.call_labels66
	.ascii	"../src/chronodot_ds3231_controller.xc"
	.byte	0
	.long	138
	.long	.Lxta.call_labels66
.cc_bottom cc_62
.cc_top cc_63,.Lxta.call_labels6
	.ascii	"../src/chronodot_ds3231_controller.xc"
	.byte	0
	.long	140
	.long	.Lxta.call_labels6
.cc_bottom cc_63
.cc_top cc_64,.Lxta.call_labels53
	.ascii	"../src/chronodot_ds3231_controller.xc"
	.byte	0
	.long	140
	.long	.Lxta.call_labels53
.cc_bottom cc_64
.cc_top cc_65,.Lxta.call_labels32
	.ascii	"../src/chronodot_ds3231_controller.xc"
	.byte	0
	.long	140
	.long	.Lxta.call_labels32
.cc_bottom cc_65
.cc_top cc_66,.Lxta.call_labels39
	.ascii	"../src/chronodot_ds3231_controller.xc"
	.byte	0
	.long	140
	.long	.Lxta.call_labels39
.cc_bottom cc_66
.cc_top cc_67,.Lxta.call_labels67
	.ascii	"../src/chronodot_ds3231_controller.xc"
	.byte	0
	.long	140
	.long	.Lxta.call_labels67
.cc_bottom cc_67
.Lentries_end1:
	.section	.xtaendpointtable,"",@progbits
.Lentries_start2:
	.long	.Lentries_end3-.Lentries_start2
	.long	0
	.ascii	"/Users/teig/workspace/_Aquarium_1_x/.build"
	.byte	0
.cc_top cc_68,.Lxta.endpoint_labels0
	.ascii	"../src/chronodot_ds3231_controller.xc"
	.byte	0
	.long	97
	.long	.Lxta.endpoint_labels0
.cc_bottom cc_68
.cc_top cc_69,.Lxta.endpoint_labels2
	.ascii	"../src/chronodot_ds3231_controller.xc"
	.byte	0
	.long	97
	.long	.Lxta.endpoint_labels2
.cc_bottom cc_69
.cc_top cc_70,.Lxta.endpoint_labels1
	.ascii	"../src/chronodot_ds3231_controller.xc"
	.byte	0
	.long	100
	.long	.Lxta.endpoint_labels1
.cc_bottom cc_70
.cc_top cc_71,.Lxta.endpoint_labels3
	.ascii	"../src/chronodot_ds3231_controller.xc"
	.byte	0
	.long	101
	.long	.Lxta.endpoint_labels3
.cc_bottom cc_71
.cc_top cc_72,.Lxta.endpoint_labels4
	.ascii	"../src/chronodot_ds3231_controller.xc"
	.byte	0
	.long	101
	.long	.Lxta.endpoint_labels4
.cc_bottom cc_72
.Lentries_end3:
	.section	.xtalabeltable,"",@progbits
.Lentries_start4:
	.long	.Lentries_end5-.Lentries_start4
	.long	0
	.ascii	"/Users/teig/workspace/_Aquarium_1_x/.build"
	.byte	0
.cc_top cc_73,.Lxtalabel0
	.ascii	"../src/chronodot_ds3231_controller.xc"
	.byte	0
	.long	38
	.long	38
	.long	.Lxtalabel0
.cc_bottom cc_73
.cc_top cc_74,.Lxtalabel0
	.ascii	"../src/chronodot_ds3231_controller.xc"
	.byte	0
	.long	40
	.long	45
	.long	.Lxtalabel0
.cc_bottom cc_74
.cc_top cc_75,.Lxtalabel0
	.ascii	"../src/chronodot_ds3231_controller.xc"
	.byte	0
	.long	47
	.long	48
	.long	.Lxtalabel0
.cc_bottom cc_75
.cc_top cc_76,.Lxtalabel1
	.ascii	"../src/chronodot_ds3231_controller.xc"
	.byte	0
	.long	55
	.long	61
	.long	.Lxtalabel1
.cc_bottom cc_76
.cc_top cc_77,.Lxtalabel2
	.ascii	"../src/chronodot_ds3231_controller.xc"
	.byte	0
	.long	55
	.long	61
	.long	.Lxtalabel2
.cc_bottom cc_77
.cc_top cc_78,.Lxtalabel3
	.ascii	"../src/chronodot_ds3231_controller.xc"
	.byte	0
	.long	55
	.long	61
	.long	.Lxtalabel3
.cc_bottom cc_78
.cc_top cc_79,.Lxtalabel4
	.ascii	"../src/chronodot_ds3231_controller.xc"
	.byte	0
	.long	89
	.long	93
	.long	.Lxtalabel4
.cc_bottom cc_79
.cc_top cc_80,.Lxtalabel8
	.ascii	"../src/chronodot_ds3231_controller.xc"
	.byte	0
	.long	89
	.long	93
	.long	.Lxtalabel8
.cc_bottom cc_80
.cc_top cc_81,.Lxtalabel4
	.ascii	"../src/chronodot_ds3231_controller.xc"
	.byte	0
	.long	95
	.long	95
	.long	.Lxtalabel4
.cc_bottom cc_81
.cc_top cc_82,.Lxtalabel8
	.ascii	"../src/chronodot_ds3231_controller.xc"
	.byte	0
	.long	95
	.long	95
	.long	.Lxtalabel8
.cc_bottom cc_82
.cc_top cc_83,.Lxtalabel4
	.ascii	"../src/chronodot_ds3231_controller.xc"
	.byte	0
	.long	97
	.long	97
	.long	.Lxtalabel4
.cc_bottom cc_83
.cc_top cc_84,.Lxtalabel8
	.ascii	"../src/chronodot_ds3231_controller.xc"
	.byte	0
	.long	97
	.long	97
	.long	.Lxtalabel8
.cc_bottom cc_84
.cc_top cc_85,.Lxtalabel8
	.ascii	"../src/chronodot_ds3231_controller.xc"
	.byte	0
	.long	99
	.long	99
	.long	.Lxtalabel8
.cc_bottom cc_85
.cc_top cc_86,.Lxtalabel4
	.ascii	"../src/chronodot_ds3231_controller.xc"
	.byte	0
	.long	99
	.long	99
	.long	.Lxtalabel4
.cc_bottom cc_86
.cc_top cc_87,.Lxtalabel10
	.ascii	"../src/chronodot_ds3231_controller.xc"
	.byte	0
	.long	103
	.long	103
	.long	.Lxtalabel10
.cc_bottom cc_87
.cc_top cc_88,.Lxtalabel14
	.ascii	"../src/chronodot_ds3231_controller.xc"
	.byte	0
	.long	103
	.long	103
	.long	.Lxtalabel14
.cc_bottom cc_88
.cc_top cc_89,.Lxtalabel5
	.ascii	"../src/chronodot_ds3231_controller.xc"
	.byte	0
	.long	103
	.long	103
	.long	.Lxtalabel5
.cc_bottom cc_89
.cc_top cc_90,.Lxtalabel5
	.ascii	"../src/chronodot_ds3231_controller.xc"
	.byte	0
	.long	105
	.long	105
	.long	.Lxtalabel5
.cc_bottom cc_90
.cc_top cc_91,.Lxtalabel14
	.ascii	"../src/chronodot_ds3231_controller.xc"
	.byte	0
	.long	105
	.long	105
	.long	.Lxtalabel14
.cc_bottom cc_91
.cc_top cc_92,.Lxtalabel10
	.ascii	"../src/chronodot_ds3231_controller.xc"
	.byte	0
	.long	105
	.long	105
	.long	.Lxtalabel10
.cc_bottom cc_92
.cc_top cc_93,.Lxtalabel10
	.ascii	"../src/chronodot_ds3231_controller.xc"
	.byte	0
	.long	107
	.long	107
	.long	.Lxtalabel10
.cc_bottom cc_93
.cc_top cc_94,.Lxtalabel5
	.ascii	"../src/chronodot_ds3231_controller.xc"
	.byte	0
	.long	107
	.long	107
	.long	.Lxtalabel5
.cc_bottom cc_94
.cc_top cc_95,.Lxtalabel14
	.ascii	"../src/chronodot_ds3231_controller.xc"
	.byte	0
	.long	107
	.long	107
	.long	.Lxtalabel14
.cc_bottom cc_95
.cc_top cc_96,.Lxtalabel11
	.ascii	"../src/chronodot_ds3231_controller.xc"
	.byte	0
	.long	108
	.long	114
	.long	.Lxtalabel11
.cc_bottom cc_96
.cc_top cc_97,.Lxtalabel15
	.ascii	"../src/chronodot_ds3231_controller.xc"
	.byte	0
	.long	108
	.long	114
	.long	.Lxtalabel15
.cc_bottom cc_97
.cc_top cc_98,.Lxtalabel6
	.ascii	"../src/chronodot_ds3231_controller.xc"
	.byte	0
	.long	108
	.long	114
	.long	.Lxtalabel6
.cc_bottom cc_98
.cc_top cc_99,.Lxtalabel16
	.ascii	"../src/chronodot_ds3231_controller.xc"
	.byte	0
	.long	123
	.long	123
	.long	.Lxtalabel16
.cc_bottom cc_99
.cc_top cc_100,.Lxtalabel12
	.ascii	"../src/chronodot_ds3231_controller.xc"
	.byte	0
	.long	123
	.long	123
	.long	.Lxtalabel12
.cc_bottom cc_100
.cc_top cc_101,.Lxtalabel16
	.ascii	"../src/chronodot_ds3231_controller.xc"
	.byte	0
	.long	125
	.long	125
	.long	.Lxtalabel16
.cc_bottom cc_101
.cc_top cc_102,.Lxtalabel12
	.ascii	"../src/chronodot_ds3231_controller.xc"
	.byte	0
	.long	125
	.long	125
	.long	.Lxtalabel12
.cc_bottom cc_102
.cc_top cc_103,.Lxtalabel7
	.ascii	"../src/chronodot_ds3231_controller.xc"
	.byte	0
	.long	126
	.long	128
	.long	.Lxtalabel7
.cc_bottom cc_103
.cc_top cc_104,.Lxtalabel17
	.ascii	"../src/chronodot_ds3231_controller.xc"
	.byte	0
	.long	126
	.long	128
	.long	.Lxtalabel17
.cc_bottom cc_104
.cc_top cc_105,.Lxtalabel9
	.ascii	"../src/chronodot_ds3231_controller.xc"
	.byte	0
	.long	126
	.long	128
	.long	.Lxtalabel9
.cc_bottom cc_105
.cc_top cc_106,.Lxtalabel13
	.ascii	"../src/chronodot_ds3231_controller.xc"
	.byte	0
	.long	126
	.long	128
	.long	.Lxtalabel13
.cc_bottom cc_106
.cc_top cc_107,.Lxtalabel9
	.ascii	"../src/chronodot_ds3231_controller.xc"
	.byte	0
	.long	130
	.long	130
	.long	.Lxtalabel9
.cc_bottom cc_107
.cc_top cc_108,.Lxtalabel13
	.ascii	"../src/chronodot_ds3231_controller.xc"
	.byte	0
	.long	130
	.long	130
	.long	.Lxtalabel13
.cc_bottom cc_108
.cc_top cc_109,.Lxtalabel7
	.ascii	"../src/chronodot_ds3231_controller.xc"
	.byte	0
	.long	130
	.long	130
	.long	.Lxtalabel7
.cc_bottom cc_109
.cc_top cc_110,.Lxtalabel17
	.ascii	"../src/chronodot_ds3231_controller.xc"
	.byte	0
	.long	130
	.long	130
	.long	.Lxtalabel17
.cc_bottom cc_110
.Lentries_end5:
	.section	.trap_info,"",@progbits
.Ltrap_info_entries_start0:
	.long	.Ltrap_info_entries_end0-.Ltrap_info_entries_start0
	.long	1
	.section	.trap_info_str,"MS",@progbits
.Ltrap_info_str0:
.asciiz"../src/chronodot_ds3231_controller.xc:55:5: error: out of bounds array or pointer access\n    chronodot_d3231_registers_ptr->registers[DS3231_REG_YEAR]       = bin2bcd_8((uint8_t) (datetime.year - DATETIME_YEAR_OFFSET));\n    ^~~~~~~~~~~~~~~~~~~~~~~~~~~~~~~~~~~~~~~~\n"
	.section	.trap_info,"",@progbits
.cc_top cc_trapinfo_0,.Ltrap_info0
	.long	.Ltrap_info0
	.long	.Ltrap_info_str0
.cc_bottom cc_trapinfo_0
.Ltrap_info_entries_end0: