	.text
	.file	"core_graphics_adafruit_GFX.c"
	.text
	.globl	Adafruit_GFX_constructor
	.align	4
	.type	Adafruit_GFX_constructor,@function
	.cc_top Adafruit_GFX_constructor.function,Adafruit_GFX_constructor
Adafruit_GFX_constructor:
.Lfunc_begin0:
	.loc	1 29 0
	.cfi_startproc
	.loc	1 37 5 prologue_end
	ldc r2, 0
	ldaw r3, dp[display_param]
	.loc	1 30 5
	st16 r0, r3[r2]
	add r3, r3, 2
	.loc	1 31 5
	st16 r1, r3[r2]
	ldaw r3, dp[display_param+4]
	.loc	1 32 5
	st16 r0, r3[r2]
	add r0, r3, 2
.Ltmp0:
	.loc	1 33 5
	st16 r1, r0[r2]
	mkmsk r0, 1
	ldaw r1, dp[display_param+16]
.Ltmp1:
	.loc	1 34 5
	st8 r2, r1[r0]
	ldaw r3, dp[display_param+8]
	.loc	1 35 5
	st16 r2, r3[r2]
	add r3, r3, 2
	.loc	1 35 5
	st16 r2, r3[r2]
	.loc	1 36 5
	st8 r0, r1[r2]
	ldaw r1, dp[display_param+12]
	add r3, r1, 2
	mkmsk r11, 16
	.loc	1 37 5
	st16 r11, r3[r2]
	.loc	1 37 5
	st16 r11, r1[r2]
	.loc	1 38 5
	stw r0, dp[display_param+20]
	.loc	1 39 1
	retsp 0
	# RETURN_REG_HOLDER
.Ltmp2:
	.cc_bottom Adafruit_GFX_constructor.function
	.set	Adafruit_GFX_constructor.nstackwords,0
	.globl	Adafruit_GFX_constructor.nstackwords
	.set	Adafruit_GFX_constructor.maxcores,1
	.globl	Adafruit_GFX_constructor.maxcores
	.set	Adafruit_GFX_constructor.maxtimers,0
	.globl	Adafruit_GFX_constructor.maxtimers
	.set	Adafruit_GFX_constructor.maxchanends,0
	.globl	Adafruit_GFX_constructor.maxchanends
.Ltmp3:
	.size	Adafruit_GFX_constructor, .Ltmp3-Adafruit_GFX_constructor
.Lfunc_end0:
	.cfi_endproc

	.globl	display_print
	.align	4
	.type	display_print,@function
	.cc_top display_print.function,display_print
display_print:
.Lfunc_begin1:
	.loc	1 43 0
	.cfi_startproc
	entsp 7
.Ltmp4:
	.cfi_def_cfa_offset 28
.Ltmp5:
	.cfi_offset 15, 0
	stw r4, sp[6]
.Ltmp6:
	.cfi_offset 4, -4
	stw r5, sp[5]
.Ltmp7:
	.cfi_offset 5, -8
	stw r6, sp[4]
.Ltmp8:
	.cfi_offset 6, -12
	stw r7, sp[3]
.Ltmp9:
	.cfi_offset 7, -16
	stw r8, sp[2]
.Ltmp10:
	.cfi_offset 8, -20
	stw r9, sp[1]
.Ltmp11:
	.cfi_offset 9, -24
	mov r4, r1
.Ltmp12:
	mov r5, r0
.Ltmp13:
	bf r4, .LBB1_7
.Ltmp14:
	.loc	1 45 9 prologue_end
	ldc r6, 0
	ldc r7, 13
	ldaw r8, dp[display_param+8]
	ldaw r9, dp[display_param+16]
.Ltmp15:
.LBB1_2:
	ld8u r0, r5[r6]
	eq r1, r0, r7
	bt r1, .LBB1_6
	eq r1, r0, 10
	bf r1, .LBB1_5
	.loc	1 73 9
.Ltmp16:
	st16 r6, r8[r6]
	.loc	1 74 9
	ld8u r0, r9[r6]
	.loc	1 74 9
	shl r0, r0, 3
	add r1, r8, 2
	.loc	1 74 9
	ld16s r2, r1[r6]
	.loc	1 74 9
	add r0, r2, r0
	.loc	1 74 9
	st16 r0, r1[r6]
	bu .LBB1_6
.Ltmp17:
.LBB1_5:
	.loc	1 78 9
	bl write_raw
.Ltmp18:
.LBB1_6:
	.loc	1 44 5
	add r5, r5, 1
	.loc	1 44 5
	sub r4, r4, 1
	bt r4, .LBB1_2
.Ltmp19:
.LBB1_7:
	.loc	1 47 1
	ldw r9, sp[1]
	ldw r8, sp[2]
	ldw r7, sp[3]
	ldw r6, sp[4]
	ldw r5, sp[5]
	ldw r4, sp[6]
	retsp 7
	# RETURN_REG_HOLDER
.Ltmp20:
	.cc_bottom display_print.function
	.set	display_print.nstackwords,(write_raw.nstackwords + 7)
	.globl	display_print.nstackwords
	.set	display_print.maxcores,write_raw.maxcores $M 1
	.globl	display_print.maxcores
	.set	display_print.maxtimers,write_raw.maxtimers $M 0
	.globl	display_print.maxtimers
	.set	display_print.maxchanends,write_raw.maxchanends $M 0
	.globl	display_print.maxchanends
.Ltmp21:
	.size	display_print, .Ltmp21-display_print
.Lfunc_end1:
	.cfi_endproc

	.globl	write
	.align	4
	.type	write,@function
	.cc_top write.function,write
write:
.Lfunc_begin2:
	.loc	1 70 0
	.cfi_startproc
	entsp 1
.Ltmp22:
	.cfi_def_cfa_offset 4
.Ltmp23:
	.cfi_offset 15, 0
	ldc r1, 13
	.loc	1 72 9 prologue_end
.Ltmp24:
	eq r1, r0, r1
	bt r1, .LBB2_4
.Ltmp25:
	eq r1, r0, 10
	bf r1, .LBB2_3
.Ltmp26:
	ldaw r0, dp[display_param+8]
	.loc	1 74 9
.Ltmp27:
	ldc r1, 0
	.loc	1 73 9
	st16 r1, r0[r1]
	ldaw r2, dp[display_param+16]
	.loc	1 74 9
	ld8u r2, r2[r1]
	.loc	1 74 9
	shl r2, r2, 3
	add r0, r0, 2
	.loc	1 74 9
	ld16s r3, r0[r1]
	.loc	1 74 9
	add r2, r3, r2
	.loc	1 74 9
	st16 r2, r0[r1]
.Ltmp28:
	.loc	1 80 1
	retsp 1
	# RETURN_REG_HOLDER
.LBB2_3:
.Ltmp29:
	.loc	1 78 9
	bl write_raw
.Ltmp30:
.LBB2_4:
	.loc	1 80 1
	retsp 1
	# RETURN_REG_HOLDER
.Ltmp31:
	.cc_bottom write.function
	.set	write.nstackwords,(write_raw.nstackwords + 1)
	.globl	write.nstackwords
	.set	write.maxcores,write_raw.maxcores $M 1
	.globl	write.maxcores
	.set	write.maxtimers,write_raw.maxtimers $M 0
	.globl	write.maxtimers
	.set	write.maxchanends,write_raw.maxchanends $M 0
	.globl	write.maxchanends
.Ltmp32:
	.size	write, .Ltmp32-write
.Lfunc_end2:
	.cfi_endproc

	.globl	display_println
	.align	4
	.type	display_println,@function
	.cc_top display_println.function,display_println
display_println:
.Lfunc_begin3:
	.loc	1 51 0
	.cfi_startproc
	entsp 7
.Ltmp33:
	.cfi_def_cfa_offset 28
.Ltmp34:
	.cfi_offset 15, 0
	stw r4, sp[6]
.Ltmp35:
	.cfi_offset 4, -4
	stw r5, sp[5]
.Ltmp36:
	.cfi_offset 5, -8
	stw r6, sp[4]
.Ltmp37:
	.cfi_offset 6, -12
	stw r7, sp[3]
.Ltmp38:
	.cfi_offset 7, -16
	stw r8, sp[2]
.Ltmp39:
	.cfi_offset 8, -20
	stw r9, sp[1]
.Ltmp40:
	.cfi_offset 9, -24
	mov r4, r1
.Ltmp41:
	mov r5, r0
.Ltmp42:
	bf r4, .LBB3_7
.Ltmp43:
	.loc	1 53 9 prologue_end
	ldc r6, 0
	ldc r7, 13
	ldaw r8, dp[display_param+8]
	ldaw r9, dp[display_param+16]
.Ltmp44:
.LBB3_2:
	ld8u r0, r5[r6]
	eq r1, r0, r7
	bt r1, .LBB3_6
	eq r1, r0, 10
	bf r1, .LBB3_5
	.loc	1 73 9
.Ltmp45:
	st16 r6, r8[r6]
	.loc	1 74 9
	ld8u r0, r9[r6]
	.loc	1 74 9
	shl r0, r0, 3
	add r1, r8, 2
	.loc	1 74 9
	ld16s r2, r1[r6]
	.loc	1 74 9
	add r0, r2, r0
	.loc	1 74 9
	st16 r0, r1[r6]
	bu .LBB3_6
.Ltmp46:
.LBB3_5:
	.loc	1 78 9
	bl write_raw
.Ltmp47:
.LBB3_6:
	.loc	1 52 5
	add r5, r5, 1
	.loc	1 52 5
	sub r4, r4, 1
	bt r4, .LBB3_2
.Ltmp48:
.LBB3_7:
	ldaw r0, dp[display_param+8]
	.loc	1 74 9
.Ltmp49:
	ldc r1, 0
	.loc	1 73 9
	st16 r1, r0[r1]
	ldaw r2, dp[display_param+16]
	.loc	1 74 9
	ld8u r2, r2[r1]
	.loc	1 74 9
	shl r2, r2, 3
	add r0, r0, 2
	.loc	1 74 9
	ld16s r3, r0[r1]
	.loc	1 74 9
	add r2, r3, r2
	.loc	1 74 9
	st16 r2, r0[r1]
.Ltmp50:
	.loc	1 56 1
	ldw r9, sp[1]
	ldw r8, sp[2]
	ldw r7, sp[3]
	ldw r6, sp[4]
	ldw r5, sp[5]
	ldw r4, sp[6]
	retsp 7
	# RETURN_REG_HOLDER
.Ltmp51:
	.cc_bottom display_println.function
	.set	display_println.nstackwords,(write_raw.nstackwords + 7)
	.globl	display_println.nstackwords
	.set	display_println.maxcores,write_raw.maxcores $M 1
	.globl	display_println.maxcores
	.set	display_println.maxtimers,write_raw.maxtimers $M 0
	.globl	display_println.maxtimers
	.set	display_println.maxchanends,write_raw.maxchanends $M 0
	.globl	display_println.maxchanends
.Ltmp52:
	.size	display_println, .Ltmp52-display_println
.Lfunc_end3:
	.cfi_endproc

	.section	.cp.rodata.cst4,"aMc",@progbits,4
	.cc_top .LCPI4_0.data,.LCPI4_0
	.align	4
	.type	.LCPI4_0,@object
	.size	.LCPI4_0, 4
.LCPI4_0:
	.long	4294967290
	.cc_bottom .LCPI4_0.data
	.text
	.globl	write_raw
	.align	4
	.type	write_raw,@function
	.cc_top write_raw.function,write_raw
write_raw:
.Lfunc_begin4:
	.loc	1 58 0
	.cfi_startproc
	entsp 5
.Ltmp53:
	.cfi_def_cfa_offset 20
.Ltmp54:
	.cfi_offset 15, 0
	stw r4, sp[4]
.Ltmp55:
	.cfi_offset 4, -4
	stw r5, sp[3]
.Ltmp56:
	.cfi_offset 5, -8
	mov r2, r0
.Ltmp57:
	.loc	1 60 5 prologue_end
	ldw r0, dp[display_param+8]
	.loc	1 60 5
	ldw r3, dp[display_param+12]
	shr r1, r3, 16
	.loc	1 63 5
	ldc r4, 0
	ldaw r5, dp[display_param+16]
	.loc	1 60 5
	ld8u r11, r5[r4]
	stw r11, sp[2]
	stw r1, sp[1]
	ashr r1, r0, 16
	sext r0, 16
	zext r3, 16
	bl drawChar
.Ltmp58:
	.loc	1 63 5
	ld8u r0, r5[r4]
	ldc r1, 6
	.loc	1 63 5
	mul r1, r0, r1
	.loc	1 63 5
	ldw r2, dp[display_param+8]
	.loc	1 63 5
	mov r3, r2
	zext r3, 16
	.loc	1 63 5
	add r3, r3, r1
	ldaw r1, dp[display_param+8]
	.loc	1 63 5
	st16 r3, r1[r4]
	.loc	1 64 9
.Ltmp59:
	ldw r11, dp[display_param+20]
	bf r11, .LBB4_3
	.loc	1 64 9
	sext r3, 16
	ldaw r11, dp[display_param+4]
	.loc	1 64 9
	ld16s r11, r11[r4]
	ldw r5, cp[.LCPI4_0]
	.loc	1 64 9
	mul r5, r0, r5
	.loc	1 64 9
	add r11, r5, r11
	.loc	1 64 9
	lss r3, r11, r3
	bf r3, .LBB4_3
	shr r2, r2, 16
	.loc	1 65 9
.Ltmp60:
	shl r0, r0, 3
	.loc	1 65 9
	add r0, r2, r0
	add r2, r1, 2
	.loc	1 65 9
	st16 r0, r2[r4]
	.loc	1 66 9
	st16 r4, r1[r4]
.Ltmp61:
.LBB4_3:
	.loc	1 68 1
	ldw r5, sp[3]
	ldw r4, sp[4]
	retsp 5
	# RETURN_REG_HOLDER
.Ltmp62:
	.cc_bottom write_raw.function
	.set	write_raw.nstackwords,(drawChar.nstackwords + 5)
	.globl	write_raw.nstackwords
	.set	write_raw.maxcores,drawChar.maxcores $M 1
	.globl	write_raw.maxcores
	.set	write_raw.maxtimers,drawChar.maxtimers $M 0
	.globl	write_raw.maxtimers
	.set	write_raw.maxchanends,drawChar.maxchanends $M 0
	.globl	write_raw.maxchanends
.Ltmp63:
	.size	write_raw, .Ltmp63-write_raw
.Lfunc_end4:
	.cfi_endproc

	.globl	drawChar
	.align	4
	.type	drawChar,@function
	.cc_top drawChar.function,drawChar
drawChar:
.Lfunc_begin5:
	.loc	1 457 0
	.cfi_startproc
	entsp 17
.Ltmp64:
	.cfi_def_cfa_offset 68
.Ltmp65:
	.cfi_offset 15, 0
	stw r4, sp[16]
.Ltmp66:
	.cfi_offset 4, -4
	stw r5, sp[15]
.Ltmp67:
	.cfi_offset 5, -8
	stw r6, sp[14]
.Ltmp68:
	.cfi_offset 6, -12
	stw r7, sp[13]
.Ltmp69:
	.cfi_offset 7, -16
	stw r8, sp[12]
.Ltmp70:
	.cfi_offset 8, -20
	stw r9, sp[11]
.Ltmp71:
	.cfi_offset 9, -24
	stw r10, sp[10]
.Ltmp72:
	.cfi_offset 10, -28
	mov r4, r3
.Ltmp73:
	stw r1, sp[9]
.Ltmp74:
	.loc	1 459 9 prologue_end
	stw r0, sp[4]
	ldw r3, dp[display_param+4]
	.loc	1 459 9
	mov r1, r3
	sext r1, 16
	.loc	1 459 9
	lss r1, r0, r1
.Ltmp75:
	bf r1, .LBB5_22
.Ltmp76:
	ashr r0, r3, 16
	.loc	1 459 9
	ldw r1, sp[9]
	lss r0, r1, r0
	bf r0, .LBB5_22
.Ltmp77:
	ldw r1, sp[19]
	ldc r0, 6
	.loc	1 459 9
	mul r0, r1, r0
.Ltmp78:
	.loc	1 459 9
	ldw r1, sp[4]
	add r1, r0, r1
	mkmsk r0, 1
	.loc	1 459 9
	lss r1, r1, r0
	bt r1, .LBB5_22
.Ltmp79:
	ldw r1, sp[19]
	.loc	1 459 9
	shl r1, r1, 3
	.loc	1 459 9
	ldw r3, sp[9]
	add r1, r1, r3
	.loc	1 459 9
	lss r0, r1, r0
	bt r0, .LBB5_22
.Ltmp80:
	.loc	1 471 13
	ldaw r0, r2[r2]
	stw r0, sp[3]
	mkmsk r0, 16
	ldw r1, sp[19]
.Ltmp81:
	.loc	1 264 5
	add r0, r1, r0
	stw r0, sp[6]
	ldc r3, 0
	mov r11, r3
.Ltmp82:
.LBB5_5:
	.loc	1 468 13
	mov r0, r11
	zext r0, 8
	.loc	1 468 13
	eq r0, r0, 5
	mov r10, r3
	bt r0, .LBB5_7
.Ltmp83:
	.loc	1 471 13
	ldw r0, sp[3]
	add r0, r11, r0
	.loc	1 471 13
	ldaw r1, dp[font]
	.loc	1 471 13
	ld8u r10, r1[r0]
.Ltmp84:
.LBB5_7:
	ldw r1, sp[4]
.Ltmp85:
	.loc	1 481 21
	add r0, r11, r1
	stw r0, sp[8]
	ldw r0, sp[19]
	mov r2, r0
.Ltmp86:
	.loc	1 483 21
	mul r0, r11, r2
	stw r11, sp[5]
	.loc	1 483 21
	add r0, r0, r1
	.loc	1 274 5
.Ltmp87:
	stw r0, sp[7]
.Ltmp88:
	sext r0, 16
	.loc	1 274 5
	add r9, r0, r2
.Ltmp89:
	mov r0, r3
.Ltmp90:
.LBB5_8:
	mov r6, r0
	.loc	1 474 17
	mov r0, r10
	zext r0, 1
	.loc	1 474 17
	bf r0, .LBB5_14
.Ltmp91:
	ldw r1, sp[19]
.Ltmp92:
	.loc	1 475 21
	eq r0, r1, 1
	bf r0, .LBB5_11
.Ltmp93:
	.loc	1 476 21
	ldw r0, sp[9]
	add r1, r6, r0
	.loc	1 476 21
	sext r1, 16
	ldw r0, sp[8]
	sext r0, 16
	mov r2, r4
	bl setPixel_in_buffer
	bu .LBB5_20
.Ltmp94:
.LBB5_14:
	ldw r0, sp[18]
	eq r0, r0, r4
	bt r0, .LBB5_20
.Ltmp95:
	ldw r1, sp[19]
.Ltmp96:
	.loc	1 480 21
	eq r0, r1, 1
	bf r0, .LBB5_17
.Ltmp97:
	.loc	1 481 21
	ldw r0, sp[9]
	add r1, r6, r0
	.loc	1 481 21
	sext r1, 16
	ldw r0, sp[8]
	sext r0, 16
	ldw r2, sp[18]
	bl setPixel_in_buffer
	bu .LBB5_20
.Ltmp98:
.LBB5_11:
	bf r1, .LBB5_20
.Ltmp99:
	ldw r0, sp[19]
	.loc	1 478 21
.Ltmp100:
	mul r0, r6, r0
	.loc	1 478 21
	ldw r1, sp[9]
	add r5, r0, r1
	.loc	1 264 5
.Ltmp101:
	ldw r0, sp[6]
	add r8, r0, r5
.Ltmp102:
	.loc	1 478 21
	ldw r7, sp[7]
.Ltmp103:
.LBB5_13:
	.loc	1 264 5
	stw r4, sp[1]
	mov r1, r5
	sext r1, 16
	mov r0, r7
	sext r0, 16
	mov r3, r8
	sext r3, 16
	mov r2, r0
	bl drawLine
.Ltmp104:
	.loc	1 274 36
	add r7, r7, 1
	.loc	1 274 5
	mov r0, r7
	sext r0, 16
	.loc	1 274 5
	lss r0, r0, r9
	bt r0, .LBB5_13
	bu .LBB5_20
.Ltmp105:
.LBB5_17:
	bf r1, .LBB5_20
.Ltmp106:
	ldw r0, sp[19]
	.loc	1 483 21
.Ltmp107:
	mul r0, r6, r0
	.loc	1 483 21
	ldw r1, sp[9]
	add r5, r0, r1
	.loc	1 264 5
.Ltmp108:
	ldw r0, sp[6]
	add r8, r0, r5
.Ltmp109:
	.loc	1 483 21
	ldw r7, sp[7]
.Ltmp110:
.LBB5_19:
	ldw r0, sp[18]
	.loc	1 264 5
.Ltmp111:
	stw r0, sp[1]
	mov r1, r5
	sext r1, 16
	mov r0, r7
	sext r0, 16
	mov r3, r8
	sext r3, 16
	mov r2, r0
	bl drawLine
.Ltmp112:
	.loc	1 274 36
	add r7, r7, 1
	.loc	1 274 5
	mov r0, r7
	sext r0, 16
	.loc	1 274 5
	lss r0, r0, r9
	bt r0, .LBB5_19
.Ltmp113:
.LBB5_20:
	ldc r0, 254
	.loc	1 485 13
	and r0, r10, r0
	shr r10, r0, 1
.Ltmp114:
	.loc	1 473 9
	add r0, r6, 1
.xtaloop 8
	# LOOPMARKER 0
	.loc	1 473 9
	eq r1, r6, 7
	bf r1, .LBB5_8
.Ltmp115:
	ldw r1, sp[5]
	.loc	1 465 5
	add r0, r1, 1
.xtaloop 6
	# LOOPMARKER 1
	.loc	1 465 5
	eq r1, r1, 5
	mov r11, r0
	ldc r3, 0
	bf r1, .LBB5_5
.Ltmp116:
.LBB5_22:
	.loc	1 488 1
	ldw r10, sp[10]
	ldw r9, sp[11]
	ldw r8, sp[12]
	ldw r7, sp[13]
	ldw r6, sp[14]
	ldw r5, sp[15]
	ldw r4, sp[16]
	retsp 17
	# RETURN_REG_HOLDER
.Ltmp117:
	.cc_bottom drawChar.function
	.set	drawChar.nstackwords,((setPixel_in_buffer.nstackwords $M drawLine.nstackwords) + 17)
	.globl	drawChar.nstackwords
	.set	drawChar.maxcores,drawLine.maxcores $M setPixel_in_buffer.maxcores $M 1
	.globl	drawChar.maxcores
	.set	drawChar.maxtimers,drawLine.maxtimers $M setPixel_in_buffer.maxtimers $M 0
	.globl	drawChar.maxtimers
	.set	drawChar.maxchanends,drawLine.maxchanends $M setPixel_in_buffer.maxchanends $M 0
	.globl	drawChar.maxchanends
.Ltmp118:
	.size	drawChar, .Ltmp118-drawChar
.Lfunc_end5:
	.cfi_endproc

	.section	.cp.rodata.cst4,"aMc",@progbits,4
	.cc_top .LCPI6_0.data,.LCPI6_0
	.align	4
	.type	.LCPI6_0,@object
	.size	.LCPI6_0, 4
.LCPI6_0:
	.long	1374389535
	.cc_bottom .LCPI6_0.data
	.cc_top .LCPI6_1.data,.LCPI6_1
	.align	4
	.type	.LCPI6_1,@object
	.size	.LCPI6_1, 4
.LCPI6_1:
	.long	4294967196
	.cc_bottom .LCPI6_1.data
	.cc_top .LCPI6_2.data,.LCPI6_2
	.align	4
	.type	.LCPI6_2,@object
	.size	.LCPI6_2, 4
.LCPI6_2:
	.long	3435973837
	.cc_bottom .LCPI6_2.data
	.cc_top .LCPI6_3.data,.LCPI6_3
	.align	4
	.type	.LCPI6_3,@object
	.size	.LCPI6_3, 4
.LCPI6_3:
	.long	4294967286
	.cc_bottom .LCPI6_3.data
	.text
	.globl	display_print_dec_8
	.align	4
	.type	display_print_dec_8,@function
	.cc_top display_print_dec_8.function,display_print_dec_8
display_print_dec_8:
.Lfunc_begin6:
	.loc	1 84 0
	.cfi_startproc
	entsp 5
.Ltmp119:
	.cfi_def_cfa_offset 20
.Ltmp120:
	.cfi_offset 15, 0
	stw r4, sp[4]
.Ltmp121:
	.cfi_offset 4, -4
	stw r5, sp[3]
.Ltmp122:
	.cfi_offset 5, -8
	stw r6, sp[2]
.Ltmp123:
	.cfi_offset 6, -12
	stw r7, sp[1]
.Ltmp124:
	.cfi_offset 7, -16
.Ltmp125:
	ldc r6, 0
	ldw r1, cp[.LCPI6_0]
	.loc	1 86 5 prologue_end
.Ltmp126:
	lmul r1, r2, r0, r1, r6, r6
	shr r1, r1, 5
	ldw r2, cp[.LCPI6_1]
	.loc	1 87 5
	mul r2, r1, r2
	.loc	1 87 5
	add r11, r2, r0
	.loc	1 88 5
	mov r2, r11
	zext r2, 8
	ldw r3, cp[.LCPI6_2]
	.loc	1 88 5
	lmul r3, r4, r2, r3, r6, r6
	shr r4, r3, 3
	ldw r3, cp[.LCPI6_3]
	.loc	1 89 5
	mul r7, r4, r3
	ldc r3, 48
	.loc	1 92 5
	add r5, r4, r3
	.loc	1 89 5
	add r11, r7, r11
	.loc	1 93 5
	add r4, r11, r3
	ldc r11, 99
	.loc	1 95 9
.Ltmp127:
	lsu r0, r11, r0
.Ltmp128:
	bt r0, .LBB6_9
	ldc r0, 10
	.loc	1 96 13
.Ltmp129:
	lsu r0, r2, r0
	bt r0, .LBB6_5
	zext r5, 8
	.loc	1 72 9
.Ltmp130:
	eq r0, r5, 10
	bf r0, .LBB6_3
	ldaw r0, dp[display_param+8]
	.loc	1 73 9
.Ltmp131:
	st16 r6, r0[r6]
	ldaw r1, dp[display_param+16]
	.loc	1 74 9
	ld8u r1, r1[r6]
	.loc	1 74 9
	shl r1, r1, 3
	add r0, r0, 2
	.loc	1 74 9
	ld16s r2, r0[r6]
	.loc	1 74 9
	add r1, r2, r1
	.loc	1 74 9
	st16 r1, r0[r6]
	bu .LBB6_5
.Ltmp132:
.LBB6_9:
	zext r5, 8
	.loc	1 91 5
	or r0, r1, r3
	.loc	1 78 9
.Ltmp133:
	zext r0, 8
	bl write_raw
	ldc r7, 13
.Ltmp134:
	.loc	1 72 9
	eq r0, r5, r7
	bt r0, .LBB6_13
	eq r0, r5, 10
	bf r0, .LBB6_12
	ldaw r0, dp[display_param+8]
	.loc	1 73 9
.Ltmp135:
	st16 r6, r0[r6]
	ldaw r1, dp[display_param+16]
	.loc	1 74 9
	ld8u r1, r1[r6]
	.loc	1 74 9
	shl r1, r1, 3
	add r0, r0, 2
	.loc	1 74 9
	ld16s r2, r0[r6]
	.loc	1 74 9
	add r1, r2, r1
	.loc	1 74 9
	st16 r1, r0[r6]
	bu .LBB6_13
.Ltmp136:
.LBB6_3:
	ldc r0, 13
	eq r0, r5, r0
	bt r0, .LBB6_5
	.loc	1 78 9
.Ltmp137:
	mov r0, r5
	bl write_raw
.Ltmp138:
.LBB6_5:
	zext r4, 8
	ldc r0, 13
	.loc	1 72 9
.Ltmp139:
	eq r0, r4, r0
	bt r0, .LBB6_15
	bu .LBB6_6
.Ltmp140:
.LBB6_12:
	.loc	1 78 9
	mov r0, r5
	bl write_raw
.Ltmp141:
.LBB6_13:
	zext r4, 8
	.loc	1 72 9
.Ltmp142:
	eq r0, r4, r7
	bt r0, .LBB6_15
.Ltmp143:
.LBB6_6:
	eq r0, r4, 10
	bf r0, .LBB6_14
	ldaw r0, dp[display_param+8]
	.loc	1 73 9
.Ltmp144:
	st16 r6, r0[r6]
	ldaw r1, dp[display_param+16]
	.loc	1 74 9
	ld8u r1, r1[r6]
	.loc	1 74 9
	shl r1, r1, 3
	add r0, r0, 2
	.loc	1 74 9
	ld16s r2, r0[r6]
	.loc	1 74 9
	add r1, r2, r1
	.loc	1 74 9
	st16 r1, r0[r6]
	bu .LBB6_15
.Ltmp145:
.LBB6_14:
	.loc	1 78 9
	mov r0, r4
	bl write_raw
.Ltmp146:
.LBB6_15:
	.loc	1 107 1
	ldw r7, sp[1]
	ldw r6, sp[2]
	ldw r5, sp[3]
	ldw r4, sp[4]
	retsp 5
	# RETURN_REG_HOLDER
.Ltmp147:
	.cc_bottom display_print_dec_8.function
	.set	display_print_dec_8.nstackwords,(write_raw.nstackwords + 5)
	.globl	display_print_dec_8.nstackwords
	.set	display_print_dec_8.maxcores,write_raw.maxcores $M 1
	.globl	display_print_dec_8.maxcores
	.set	display_print_dec_8.maxtimers,write_raw.maxtimers $M 0
	.globl	display_print_dec_8.maxtimers
	.set	display_print_dec_8.maxchanends,write_raw.maxchanends $M 0
	.globl	display_print_dec_8.maxchanends
.Ltmp148:
	.size	display_print_dec_8, .Ltmp148-display_print_dec_8
.Lfunc_end6:
	.file	5 "/Applications/XMOS_xTIMEcomposer_Community_14.2.3/target/include/clang/stddef.h"
	.cfi_endproc

	.section	.cp.rodata.cst4,"aMc",@progbits,4
	.cc_top .LCPI7_0.data,.LCPI7_0
	.align	4
	.type	.LCPI7_0,@object
	.size	.LCPI7_0, 4
.LCPI7_0:
	.long	4294901761
	.cc_bottom .LCPI7_0.data
	.text
	.globl	drawCircle
	.align	4
	.type	drawCircle,@function
	.cc_top drawCircle.function,drawCircle
drawCircle:
.Lfunc_begin7:
	.loc	1 110 0
	.cfi_startproc
	entsp 14
.Ltmp149:
	.cfi_def_cfa_offset 56
.Ltmp150:
	.cfi_offset 15, 0
	stw r4, sp[13]
.Ltmp151:
	.cfi_offset 4, -4
	stw r5, sp[12]
.Ltmp152:
	.cfi_offset 5, -8
	stw r6, sp[11]
.Ltmp153:
	.cfi_offset 6, -12
	stw r7, sp[10]
.Ltmp154:
	.cfi_offset 7, -16
	stw r8, sp[9]
.Ltmp155:
	.cfi_offset 8, -20
	stw r9, sp[8]
.Ltmp156:
	.cfi_offset 9, -24
	stw r10, sp[7]
.Ltmp157:
	.cfi_offset 10, -28
.Ltmp158:
	mov r4, r3
.Ltmp159:
	mov r6, r2
.Ltmp160:
	mov r5, r1
.Ltmp161:
	stw r5, sp[6]
	mov r7, r0
.Ltmp162:
	.loc	1 117 5 prologue_end
	stw r7, sp[5]
	add r1, r6, r5
	.loc	1 117 5
	sext r1, 16
	mov r2, r4
	bl setPixel_in_buffer
	.loc	1 118 5
	sub r1, r5, r6
	.loc	1 118 5
	sext r1, 16
	mov r0, r7
	mov r2, r4
	bl setPixel_in_buffer
	.loc	1 119 5
	add r0, r6, r7
	.loc	1 119 5
	sext r0, 16
	mov r1, r5
	mov r2, r4
	bl setPixel_in_buffer
	.loc	1 120 5
	sub r0, r7, r6
.Ltmp163:
	.loc	1 120 5
	sext r0, 16
	mov r1, r5
.Ltmp164:
	mov r2, r4
	mov r5, r4
.Ltmp165:
	bl setPixel_in_buffer
	mkmsk r0, 1
	.loc	1 122 5
	stw r0, sp[4]
	lss r0, r6, r0
	mov r1, r6
.Ltmp166:
	bt r0, .LBB7_6
.Ltmp167:
	ldc r6, 0
	.loc	1 113 5
	stw r1, sp[3]
	lda16 r0, r6[-r1]
	stw r0, sp[1]
	mkmsk r0, 1
	.loc	1 111 5
	sub r3, r0, r1
.Ltmp168:
.LBB7_2:
	.loc	1 123 13
	shl r0, r3, 16
	ldw r1, cp[.LCPI7_0]
	.loc	1 123 13
	lss r1, r0, r1
	bt r1, .LBB7_3
.Ltmp169:
	.loc	1 123 13
	ashr r0, r0, 16
	ldw r2, sp[3]
	.loc	1 124 13
.Ltmp170:
	sub r2, r2, 1
	ldw r1, sp[1]
	.loc	1 125 13
	zext r1, 16
	.loc	1 125 13
	add r1, r1, 2
	.loc	1 126 13
	stw r1, sp[1]
	sext r1, 16
	.loc	1 126 13
	add r3, r1, r0
	bu .LBB7_5
.Ltmp171:
.LBB7_3:
	ldw r2, sp[3]
.Ltmp172:
.LBB7_5:
	.loc	1 128 9
	stw r2, sp[3]
	add r6, r6, 1
	sext r6, 16
	ldw r0, sp[4]
	.loc	1 129 9
	sext r0, 16
	.loc	1 129 9
	add r0, r0, 2
	.loc	1 130 9
	stw r0, sp[4]
	sext r0, 16
	.loc	1 130 9
	sext r3, 16
	.loc	1 130 9
	add r3, r3, r0
	stw r3, sp[2]
	ldw r0, sp[5]
.Ltmp173:
	.loc	1 132 9
	add r8, r6, r0
	mov r4, r0
.Ltmp174:
	.loc	1 132 9
	sext r2, 16
	.loc	1 132 9
	ldw r0, sp[6]
.Ltmp175:
	add r9, r2, r0
	mov r7, r2
.Ltmp176:
	.loc	1 132 9
	sext r9, 16
	sext r8, 16
	mov r0, r8
	mov r1, r9
	mov r2, r5
	bl setPixel_in_buffer
	.loc	1 133 9
	sub r10, r4, r6
.Ltmp177:
	.loc	1 133 9
	sext r10, 16
	mov r0, r10
	mov r1, r9
	mov r2, r5
	bl setPixel_in_buffer
	ldw r4, sp[6]
.Ltmp178:
	.loc	1 134 9
	sub r9, r4, r7
	.loc	1 134 9
	sext r9, 16
	mov r0, r8
	mov r1, r9
	mov r2, r5
	bl setPixel_in_buffer
	.loc	1 135 9
	mov r0, r10
	mov r1, r9
	mov r2, r5
	bl setPixel_in_buffer
	ldw r10, sp[5]
.Ltmp179:
	.loc	1 136 9
	add r8, r7, r10
	.loc	1 136 9
	add r9, r6, r4
.Ltmp180:
	.loc	1 136 9
	sext r8, 16
	sext r9, 16
	mov r0, r8
	mov r1, r9
	mov r2, r5
	bl setPixel_in_buffer
	mov r4, r7
	.loc	1 137 9
	sub r10, r10, r4
.Ltmp181:
	.loc	1 137 9
	sext r10, 16
	mov r0, r10
	mov r1, r9
	mov r2, r5
	bl setPixel_in_buffer
	.loc	1 138 9
	ldw r0, sp[6]
	sub r9, r0, r6
	.loc	1 138 9
	sext r9, 16
	mov r0, r8
	mov r1, r9
	mov r2, r5
	bl setPixel_in_buffer
	.loc	1 139 9
	mov r0, r10
	mov r1, r9
	mov r2, r5
	bl setPixel_in_buffer
	ldw r3, sp[2]
.Ltmp182:
	.loc	1 122 5
	lss r0, r6, r4
	bt r0, .LBB7_2
.Ltmp183:
.LBB7_6:
	.loc	1 141 1
	ldw r10, sp[7]
	ldw r9, sp[8]
	ldw r8, sp[9]
	ldw r7, sp[10]
	ldw r6, sp[11]
	ldw r5, sp[12]
	ldw r4, sp[13]
	retsp 14
	# RETURN_REG_HOLDER
.Ltmp184:
	.cc_bottom drawCircle.function
	.set	drawCircle.nstackwords,(setPixel_in_buffer.nstackwords + 14)
	.globl	drawCircle.nstackwords
	.set	drawCircle.maxcores,setPixel_in_buffer.maxcores $M 1
	.globl	drawCircle.maxcores
	.set	drawCircle.maxtimers,setPixel_in_buffer.maxtimers $M 0
	.globl	drawCircle.maxtimers
	.set	drawCircle.maxchanends,setPixel_in_buffer.maxchanends $M 0
	.globl	drawCircle.maxchanends
.Ltmp185:
	.size	drawCircle, .Ltmp185-drawCircle
.Lfunc_end7:
	.cfi_endproc

	.globl	drawCircleHelper
	.align	4
	.type	drawCircleHelper,@function
	.cc_top drawCircleHelper.function,drawCircleHelper
drawCircleHelper:
.Lfunc_begin8:
	.loc	1 144 0
	.cfi_startproc
	entsp 14
.Ltmp186:
	.cfi_def_cfa_offset 56
.Ltmp187:
	.cfi_offset 15, 0
	stw r4, sp[13]
.Ltmp188:
	.cfi_offset 4, -4
	stw r5, sp[12]
.Ltmp189:
	.cfi_offset 5, -8
	stw r6, sp[11]
.Ltmp190:
	.cfi_offset 6, -12
	stw r7, sp[10]
.Ltmp191:
	.cfi_offset 7, -16
	stw r8, sp[9]
.Ltmp192:
	.cfi_offset 8, -20
	stw r9, sp[8]
.Ltmp193:
	.cfi_offset 9, -24
	stw r10, sp[7]
.Ltmp194:
	.cfi_offset 10, -28
.Ltmp195:
	mov r7, r1
.Ltmp196:
	mov r9, r0
.Ltmp197:
	mkmsk r1, 1
.Ltmp198:
	.loc	1 151 5 prologue_end
	lss r0, r2, r1
	bt r0, .LBB8_14
.Ltmp199:
	ldw r4, sp[15]
	ldc r10, 0
	.loc	1 147 5
	lda16 r0, r10[-r2]
	.loc	1 145 5
	stw r0, sp[5]
	sub r8, r1, r2
	ldc r0, 4
	.loc	1 160 13
.Ltmp200:
	and r0, r3, r0
	stw r0, sp[3]
	ldc r0, 2
.Ltmp201:
	.loc	1 164 13
	and r0, r3, r0
	stw r0, sp[2]
	ldc r0, 8
.Ltmp202:
	.loc	1 168 13
	and r0, r3, r0
.Ltmp203:
	.loc	1 172 13
	stw r0, sp[1]
	zext r3, 1
	stw r3, sp[4]
.Ltmp204:
.LBB8_2:
	.loc	1 145 5
	mov r0, r8
	sext r0, 16
	.loc	1 152 13
.Ltmp205:
	ashr r0, r0, 32
	bt r0, .LBB8_3
.Ltmp206:
	stw r1, sp[6]
	.loc	1 152 13
	zext r8, 16
	.loc	1 153 13
.Ltmp207:
	sub r2, r2, 1
	ldw r0, sp[5]
	.loc	1 154 13
	zext r0, 16
	.loc	1 154 13
	add r0, r0, 2
	.loc	1 155 13
	stw r0, sp[5]
	add r8, r0, r8
	bu .LBB8_5
.Ltmp208:
.LBB8_3:
	stw r1, sp[6]
.Ltmp209:
.LBB8_5:
	.loc	1 157 9
	add r10, r10, 1
	sext r10, 16
	.loc	1 160 13
.Ltmp210:
	ldw r0, sp[3]
	bf r0, .LBB8_7
.Ltmp211:
	.loc	1 161 13
	add r0, r10, r9
	.loc	1 161 13
	mov r5, r2
	sext r5, 16
	.loc	1 161 13
	add r1, r5, r7
	.loc	1 161 13
	sext r0, 16
	sext r1, 16
	mov r6, r2
	mov r2, r4
	bl setPixel_in_buffer
	.loc	1 162 13
	add r0, r5, r9
	.loc	1 162 13
	add r1, r10, r7
	.loc	1 162 13
	sext r1, 16
	sext r0, 16
	mov r2, r4
	bl setPixel_in_buffer
	mov r2, r6
.Ltmp212:
.LBB8_7:
	.loc	1 164 13
	ldw r0, sp[2]
	bf r0, .LBB8_9
.Ltmp213:
	.loc	1 165 13
	add r0, r10, r9
	.loc	1 165 13
	mov r5, r2
	sext r5, 16
	.loc	1 165 13
	sub r1, r7, r5
	.loc	1 165 13
	sext r0, 16
	sext r1, 16
	mov r6, r2
	mov r2, r4
	bl setPixel_in_buffer
	.loc	1 166 13
	add r0, r5, r9
	.loc	1 166 13
	sub r1, r7, r10
	.loc	1 166 13
	sext r1, 16
	sext r0, 16
	mov r2, r4
	bl setPixel_in_buffer
	mov r2, r6
.Ltmp214:
.LBB8_9:
	ldw r1, sp[6]
	.loc	1 158 9
	sext r1, 16
	.loc	1 168 13
.Ltmp215:
	ldw r0, sp[1]
	bf r0, .LBB8_11
.Ltmp216:
	.loc	1 169 13
	mov r5, r2
	sext r5, 16
	.loc	1 169 13
	sub r0, r9, r5
	stw r1, sp[6]
	.loc	1 169 13
	add r1, r10, r7
	.loc	1 169 13
	sext r1, 16
	sext r0, 16
	mov r6, r2
	mov r2, r4
	bl setPixel_in_buffer
	.loc	1 170 13
	sub r0, r9, r10
	.loc	1 170 13
	add r1, r5, r7
	.loc	1 170 13
	sext r0, 16
	sext r1, 16
	mov r2, r4
	bl setPixel_in_buffer
	ldw r1, sp[6]
	mov r2, r6
.Ltmp217:
.LBB8_11:
	.loc	1 158 9
	add r1, r1, 2
	.loc	1 159 9
	zext r8, 16
	.loc	1 172 13
.Ltmp218:
	ldw r0, sp[4]
	bf r0, .LBB8_13
.Ltmp219:
	.loc	1 173 13
	mov r5, r2
	sext r5, 16
	.loc	1 173 13
	sub r0, r9, r5
	stw r1, sp[6]
	.loc	1 173 13
	sub r1, r7, r10
	.loc	1 173 13
	sext r1, 16
	sext r0, 16
	mov r6, r2
	mov r2, r4
	bl setPixel_in_buffer
	.loc	1 174 13
	sub r0, r9, r10
	.loc	1 174 13
	sub r1, r7, r5
	.loc	1 174 13
	sext r0, 16
	sext r1, 16
	mov r2, r4
	bl setPixel_in_buffer
	ldw r1, sp[6]
	mov r2, r6
.Ltmp220:
.LBB8_13:
	.loc	1 159 9
	add r8, r8, r1
.Ltmp221:
	.loc	1 151 5
	mov r0, r2
	sext r0, 16
	lss r0, r10, r0
	bt r0, .LBB8_2
.Ltmp222:
.LBB8_14:
	.loc	1 177 1
	ldw r10, sp[7]
	ldw r9, sp[8]
	ldw r8, sp[9]
	ldw r7, sp[10]
	ldw r6, sp[11]
	ldw r5, sp[12]
	ldw r4, sp[13]
	retsp 14
	# RETURN_REG_HOLDER
.Ltmp223:
	.cc_bottom drawCircleHelper.function
	.set	drawCircleHelper.nstackwords,(setPixel_in_buffer.nstackwords + 14)
	.globl	drawCircleHelper.nstackwords
	.set	drawCircleHelper.maxcores,setPixel_in_buffer.maxcores $M 1
	.globl	drawCircleHelper.maxcores
	.set	drawCircleHelper.maxtimers,setPixel_in_buffer.maxtimers $M 0
	.globl	drawCircleHelper.maxtimers
	.set	drawCircleHelper.maxchanends,setPixel_in_buffer.maxchanends $M 0
	.globl	drawCircleHelper.maxchanends
.Ltmp224:
	.size	drawCircleHelper, .Ltmp224-drawCircleHelper
.Lfunc_end8:
	.cfi_endproc

	.globl	fillCircle
	.align	4
	.type	fillCircle,@function
	.cc_top fillCircle.function,fillCircle
fillCircle:
.Lfunc_begin9:
	.loc	1 179 0
	.cfi_startproc
	entsp 7
.Ltmp225:
	.cfi_def_cfa_offset 28
.Ltmp226:
	.cfi_offset 15, 0
	stw r4, sp[6]
.Ltmp227:
	.cfi_offset 4, -4
	stw r5, sp[5]
.Ltmp228:
	.cfi_offset 5, -8
	stw r6, sp[4]
.Ltmp229:
	.cfi_offset 6, -12
	stw r7, sp[3]
.Ltmp230:
	.cfi_offset 7, -16
	mov r7, r3
.Ltmp231:
	mov r4, r2
.Ltmp232:
	mov r5, r1
.Ltmp233:
	mov r6, r0
.Ltmp234:
	.loc	1 180 5 prologue_end
	mov r0, r5
	zext r0, 16
	.loc	1 180 5
	sub r1, r0, r4
	.loc	1 180 5
	shl r0, r4, 1
	mkmsk r2, 1
	.loc	1 264 5
.Ltmp235:
	or r0, r0, r2
	.loc	1 264 5
	add r0, r1, r0
	mkmsk r2, 16
	.loc	1 264 5
	add r3, r0, r2
	.loc	1 264 5
	sext r3, 16
	sext r1, 16
	stw r7, sp[1]
	mov r0, r6
	mov r2, r6
	bl drawLine
.Ltmp236:
	.loc	1 181 5
	stw r7, sp[2]
	ldc r0, 0
	stw r0, sp[1]
	mkmsk r3, 2
	mov r0, r6
	mov r1, r5
	mov r2, r4
	bl fillCircleHelper
	.loc	1 182 1
	ldw r7, sp[3]
.Ltmp237:
	ldw r6, sp[4]
.Ltmp238:
	ldw r5, sp[5]
.Ltmp239:
	ldw r4, sp[6]
.Ltmp240:
	retsp 7
	# RETURN_REG_HOLDER
.Ltmp241:
	.cc_bottom fillCircle.function
	.set	fillCircle.nstackwords,((drawLine.nstackwords $M fillCircleHelper.nstackwords) + 7)
	.globl	fillCircle.nstackwords
	.set	fillCircle.maxcores,drawLine.maxcores $M fillCircleHelper.maxcores $M 1
	.globl	fillCircle.maxcores
	.set	fillCircle.maxtimers,drawLine.maxtimers $M fillCircleHelper.maxtimers $M 0
	.globl	fillCircle.maxtimers
	.set	fillCircle.maxchanends,drawLine.maxchanends $M fillCircleHelper.maxchanends $M 0
	.globl	fillCircle.maxchanends
.Ltmp242:
	.size	fillCircle, .Ltmp242-fillCircle
.Lfunc_end9:
	.cfi_endproc

	.globl	drawVerticalLine
	.align	4
	.type	drawVerticalLine,@function
	.cc_top drawVerticalLine.function,drawVerticalLine
drawVerticalLine:
.Lfunc_begin10:
	.loc	1 262 0
	.cfi_startproc
	entsp 2
.Ltmp243:
	.cfi_def_cfa_offset 8
.Ltmp244:
	.cfi_offset 15, 0
	.loc	1 264 5 prologue_end
.Ltmp245:
	add r2, r1, r2
.Ltmp246:
	mkmsk r11, 16
	.loc	1 264 5
	add r11, r2, r11
	.loc	1 264 5
	sext r11, 16
	stw r3, sp[1]
	mov r2, r0
	mov r3, r11
.Ltmp247:
	bl drawLine
.Ltmp248:
	.loc	1 265 1
	retsp 2
	# RETURN_REG_HOLDER
.Ltmp249:
	.cc_bottom drawVerticalLine.function
	.set	drawVerticalLine.nstackwords,(drawLine.nstackwords + 2)
	.globl	drawVerticalLine.nstackwords
	.set	drawVerticalLine.maxcores,drawLine.maxcores $M 1
	.globl	drawVerticalLine.maxcores
	.set	drawVerticalLine.maxtimers,drawLine.maxtimers $M 0
	.globl	drawVerticalLine.maxtimers
	.set	drawVerticalLine.maxchanends,drawLine.maxchanends $M 0
	.globl	drawVerticalLine.maxchanends
.Ltmp250:
	.size	drawVerticalLine, .Ltmp250-drawVerticalLine
.Lfunc_end10:
	.cfi_endproc

	.globl	fillCircleHelper
	.align	4
	.type	fillCircleHelper,@function
	.cc_top fillCircleHelper.function,fillCircleHelper
fillCircleHelper:
.Lfunc_begin11:
	.loc	1 185 0
	.cfi_startproc
	entsp 16
.Ltmp251:
	.cfi_def_cfa_offset 64
.Ltmp252:
	.cfi_offset 15, 0
	stw r4, sp[15]
.Ltmp253:
	.cfi_offset 4, -4
	stw r5, sp[14]
.Ltmp254:
	.cfi_offset 5, -8
	stw r6, sp[13]
.Ltmp255:
	.cfi_offset 6, -12
	stw r7, sp[12]
.Ltmp256:
	.cfi_offset 7, -16
	stw r8, sp[11]
.Ltmp257:
	.cfi_offset 8, -20
	stw r9, sp[10]
.Ltmp258:
	.cfi_offset 9, -24
	stw r10, sp[9]
.Ltmp259:
	.cfi_offset 10, -28
.Ltmp260:
	mov r11, r2
.Ltmp261:
	mov r8, r1
.Ltmp262:
	mov r5, r0
.Ltmp263:
	mkmsk r1, 1
.Ltmp264:
	.loc	1 193 5 prologue_end
	lss r0, r11, r1
	bt r0, .LBB11_9
.Ltmp265:
	ldw r0, sp[17]
	ldc r4, 0
	.loc	1 189 5
	lda16 r2, r4[-r11]
	stw r2, sp[5]
	mov r2, r1
	.loc	1 187 5
	sub r9, r2, r11
	ldc r1, 2
	.loc	1 207 13
.Ltmp266:
	and r1, r3, r1
.Ltmp267:
	.loc	1 203 13
	stw r1, sp[2]
	zext r3, 1
	stw r3, sp[3]
	mkmsk r1, 16
.Ltmp268:
	.loc	1 208 13
	add r0, r0, r1
.Ltmp269:
	stw r0, sp[4]
	mov r1, r2
	mov r7, r2
.Ltmp270:
.LBB11_2:
	.loc	1 187 5
	mov r0, r9
	sext r0, 16
	.loc	1 194 13
.Ltmp271:
	ashr r0, r0, 32
	bt r0, .LBB11_4
.Ltmp272:
	.loc	1 194 13
	zext r9, 16
	.loc	1 195 13
.Ltmp273:
	sub r11, r11, 1
	ldw r0, sp[5]
	.loc	1 196 13
	zext r0, 16
	.loc	1 196 13
	add r0, r0, 2
	.loc	1 197 13
	stw r0, sp[5]
	add r9, r0, r9
.Ltmp274:
.LBB11_4:
	.loc	1 199 9
	add r4, r4, 1
	sext r4, 16
	.loc	1 200 9
	sext r1, 16
	.loc	1 203 13
.Ltmp275:
	ldw r0, sp[3]
	bf r0, .LBB11_6
.Ltmp276:
	stw r4, sp[8]
	mov r4, r5
.Ltmp277:
	.loc	1 204 13
	ldw r0, sp[8]
	add r0, r0, r4
	.loc	1 204 13
	mov r5, r11
	sext r5, 16
	stw r1, sp[6]
	.loc	1 204 13
	sub r1, r8, r5
	.loc	1 204 13
	shl r2, r5, 1
	.loc	1 204 13
	or r2, r2, r7
	ldw r10, sp[4]
	.loc	1 264 5
.Ltmp278:
	add r3, r10, r1
	.loc	1 264 5
	add r3, r3, r2
	.loc	1 264 5
	sext r3, 16
	sext r0, 16
	sext r1, 16
	ldw r2, sp[18]
	mov r6, r2
.Ltmp279:
	stw r6, sp[1]
	mov r2, r0
	stw r11, sp[7]
	bl drawLine
.Ltmp280:
	.loc	1 205 13
	add r0, r5, r4
	mov r5, r4
.Ltmp281:
	ldw r4, sp[8]
	.loc	1 205 13
	sub r1, r8, r4
	.loc	1 205 13
	shl r2, r4, 1
	.loc	1 205 13
	or r2, r2, r7
	.loc	1 264 5
.Ltmp282:
	add r3, r10, r1
	.loc	1 264 5
	add r3, r3, r2
	.loc	1 264 5
	sext r3, 16
	sext r1, 16
	sext r0, 16
	stw r6, sp[1]
.Ltmp283:
	mov r2, r0
	bl drawLine
	ldw r1, sp[6]
	ldw r11, sp[7]
.Ltmp284:
.LBB11_6:
	.loc	1 200 9
	add r1, r1, 2
	.loc	1 201 9
	zext r9, 16
	.loc	1 207 13
.Ltmp285:
	ldw r0, sp[2]
	bf r0, .LBB11_8
.Ltmp286:
	stw r4, sp[8]
	mov r4, r5
.Ltmp287:
	.loc	1 208 13
	ldw r0, sp[8]
	sub r0, r4, r0
	.loc	1 208 13
	mov r5, r11
	sext r5, 16
	stw r1, sp[6]
	.loc	1 208 13
	sub r1, r8, r5
	.loc	1 208 13
	shl r2, r5, 1
	.loc	1 208 13
	or r2, r2, r7
	ldw r10, sp[4]
	.loc	1 264 5
.Ltmp288:
	add r3, r10, r1
	.loc	1 264 5
	add r3, r3, r2
	.loc	1 264 5
	sext r3, 16
	sext r0, 16
	sext r1, 16
	ldw r2, sp[18]
	mov r6, r2
.Ltmp289:
	stw r6, sp[1]
	mov r2, r0
	stw r11, sp[7]
	bl drawLine
.Ltmp290:
	.loc	1 209 13
	sub r0, r4, r5
	mov r5, r4
.Ltmp291:
	ldw r4, sp[8]
	.loc	1 209 13
	sub r1, r8, r4
	.loc	1 209 13
	shl r2, r4, 1
	.loc	1 209 13
	or r2, r2, r7
	.loc	1 264 5
.Ltmp292:
	add r3, r10, r1
	.loc	1 264 5
	add r3, r3, r2
	.loc	1 264 5
	sext r3, 16
	sext r1, 16
	sext r0, 16
	stw r6, sp[1]
.Ltmp293:
	mov r2, r0
	bl drawLine
	ldw r1, sp[6]
	ldw r11, sp[7]
.Ltmp294:
.LBB11_8:
	.loc	1 201 9
	add r9, r9, r1
.Ltmp295:
	.loc	1 193 5
	mov r0, r11
	sext r0, 16
	lss r0, r4, r0
	bt r0, .LBB11_2
.Ltmp296:
.LBB11_9:
	.loc	1 212 1
	ldw r10, sp[9]
	ldw r9, sp[10]
	ldw r8, sp[11]
	ldw r7, sp[12]
	ldw r6, sp[13]
	ldw r5, sp[14]
	ldw r4, sp[15]
	retsp 16
	# RETURN_REG_HOLDER
.Ltmp297:
	.cc_bottom fillCircleHelper.function
	.set	fillCircleHelper.nstackwords,(drawLine.nstackwords + 16)
	.globl	fillCircleHelper.nstackwords
	.set	fillCircleHelper.maxcores,drawLine.maxcores $M 1
	.globl	fillCircleHelper.maxcores
	.set	fillCircleHelper.maxtimers,drawLine.maxtimers $M 0
	.globl	fillCircleHelper.maxtimers
	.set	fillCircleHelper.maxchanends,drawLine.maxchanends $M 0
	.globl	fillCircleHelper.maxchanends
.Ltmp298:
	.size	fillCircleHelper, .Ltmp298-fillCircleHelper
.Lfunc_end11:
	.cfi_endproc

	.globl	drawLine
	.align	4
	.type	drawLine,@function
	.cc_top drawLine.function,drawLine
drawLine:
.Lfunc_begin12:
	.loc	1 215 0
	.cfi_startproc
	entsp 10
.Ltmp299:
	.cfi_def_cfa_offset 40
.Ltmp300:
	.cfi_offset 15, 0
	stw r4, sp[9]
.Ltmp301:
	.cfi_offset 4, -4
	stw r5, sp[8]
.Ltmp302:
	.cfi_offset 5, -8
	stw r6, sp[7]
.Ltmp303:
	.cfi_offset 6, -12
	stw r7, sp[6]
.Ltmp304:
	.cfi_offset 7, -16
	stw r8, sp[5]
.Ltmp305:
	.cfi_offset 8, -20
	stw r9, sp[4]
.Ltmp306:
	.cfi_offset 9, -24
	stw r10, sp[3]
.Ltmp307:
	.cfi_offset 10, -28
.Ltmp308:
	mov r4, r3
.Ltmp309:
	.loc	1 216 21 prologue_end
	sub r3, r4, r1
	ashr r11, r3, 32
	add r3, r3, r11
	.loc	1 216 21
	xor r3, r3, r11
	.loc	1 216 36
	sub r11, r2, r0
	ashr r5, r11, 32
	add r11, r11, r5
	.loc	1 216 36
	xor r11, r11, r5
	.loc	1 216 36
	lss r6, r11, r3
	.loc	1 217 9
.Ltmp310:
	mov r7, r2
	bt r6, .LBB12_2
.Ltmp311:
	mov r7, r4
.Ltmp312:
.LBB12_2:
	bt r6, .LBB12_4
.Ltmp313:
	.loc	1 217 9
	mov r4, r2
.Ltmp314:
.LBB12_4:
	.loc	1 217 9
	mov r2, r0
	bt r6, .LBB12_6
.Ltmp315:
	mov r2, r1
.Ltmp316:
.LBB12_6:
	bt r6, .LBB12_8
.Ltmp317:
	.loc	1 217 9
	mov r1, r0
.Ltmp318:
.LBB12_8:
	.loc	1 222 9
	lss r3, r4, r1
	.loc	1 222 9
	mov r0, r2
	bt r3, .LBB12_10
	mov r0, r7
.LBB12_10:
	.loc	1 222 9
	mov r8, r1
	bt r3, .LBB12_12
	mov r8, r4
.LBB12_12:
	bt r3, .LBB12_14
	.loc	1 222 9
	mov r7, r2
.LBB12_14:
	bt r3, .LBB12_16
	.loc	1 222 9
	mov r4, r1
.Ltmp319:
.LBB12_16:
	.loc	1 228 5
	mov r1, r8
	zext r1, 16
	.loc	1 228 5
	mov r2, r4
	zext r2, 16
	.loc	1 228 5
	sub r3, r1, r2
	.loc	1 229 10
	sub r1, r0, r7
	ashr r2, r1, 32
	add r1, r1, r2
	.loc	1 229 10
	xor r10, r1, r2
	.loc	1 231 5
	shl r1, r3, 16
	.loc	1 231 5
	sext r3, 16
	stw r3, sp[2]
	mkmsk r2, 5
	.loc	1 231 5
	shr r1, r1, r2
	add r1, r3, r1
	.loc	1 234 9
.Ltmp320:
	lss r0, r7, r0
.Ltmp321:
	.loc	1 248 13
	bt r0, .LBB12_17
.Ltmp322:
	mkmsk r0, 16
	bu .LBB12_19
.LBB12_17:
	mkmsk r0, 1
.LBB12_19:
	stw r0, sp[1]
	ldw r5, sp[11]
	.loc	1 231 5
	ashr r9, r1, 1
	.loc	1 246 9
.Ltmp323:
	sext r10, 16
.Ltmp324:
.LBB12_20:
	.loc	1 241 13
	bf r6, .LBB12_22
.Ltmp325:
	.loc	1 242 13
	mov r0, r7
	sext r0, 16
	mov r1, r4
	bu .LBB12_23
.Ltmp326:
.LBB12_22:
	.loc	1 244 13
	mov r0, r4
	sext r0, 16
	mov r1, r7
.Ltmp327:
.LBB12_23:
	sext r1, 16
	mov r2, r5
	bl setPixel_in_buffer
.Ltmp328:
	.loc	1 246 9
	sext r9, 16
	.loc	1 246 9
	sub r9, r9, r10
	.loc	1 247 13
.Ltmp329:
	shl r0, r9, 16
	.loc	1 247 13
	ashr r1, r0, 32
	bf r1, .LBB12_25
.Ltmp330:
	.loc	1 247 13
	ashr r0, r0, 16
	.loc	1 248 13
.Ltmp331:
	zext r7, 16
	.loc	1 248 13
	ldw r1, sp[1]
	add r7, r7, r1
	.loc	1 249 13
	ldw r1, sp[2]
	add r9, r0, r1
.Ltmp332:
.LBB12_25:
	.loc	1 240 22
	add r4, r4, 1
	sext r4, 16
	.loc	1 240 5
	lss r0, r8, r4
	bf r0, .LBB12_20
.Ltmp333:
	.loc	1 252 1
	ldw r10, sp[3]
	ldw r9, sp[4]
	ldw r8, sp[5]
	ldw r7, sp[6]
	ldw r6, sp[7]
	ldw r5, sp[8]
	ldw r4, sp[9]
	retsp 10
	# RETURN_REG_HOLDER
.Ltmp334:
	.cc_bottom drawLine.function
	.set	drawLine.nstackwords,(setPixel_in_buffer.nstackwords + 10)
	.globl	drawLine.nstackwords
	.set	drawLine.maxcores,setPixel_in_buffer.maxcores $M 1
	.globl	drawLine.maxcores
	.set	drawLine.maxtimers,setPixel_in_buffer.maxtimers $M 0
	.globl	drawLine.maxtimers
	.set	drawLine.maxchanends,setPixel_in_buffer.maxchanends $M 0
	.globl	drawLine.maxchanends
.Ltmp335:
	.size	drawLine, .Ltmp335-drawLine
.Lfunc_end12:
	.cfi_endproc

	.globl	drawRect
	.align	4
	.type	drawRect,@function
	.cc_top drawRect.function,drawRect
drawRect:
.Lfunc_begin13:
	.loc	1 255 0
	.cfi_startproc
	entsp 8
.Ltmp336:
	.cfi_def_cfa_offset 32
.Ltmp337:
	.cfi_offset 15, 0
	stw r4, sp[7]
.Ltmp338:
	.cfi_offset 4, -4
	stw r5, sp[6]
.Ltmp339:
	.cfi_offset 5, -8
	stw r6, sp[5]
.Ltmp340:
	.cfi_offset 6, -12
	stw r7, sp[4]
.Ltmp341:
	.cfi_offset 7, -16
	stw r8, sp[3]
.Ltmp342:
	.cfi_offset 8, -20
	stw r9, sp[2]
.Ltmp343:
	.cfi_offset 9, -24
	mov r7, r3
.Ltmp344:
	mov r4, r1
.Ltmp345:
	mov r6, r0
.Ltmp346:
	ldw r8, sp[9]
	.loc	1 269 5 prologue_end
.Ltmp347:
	add r0, r6, r2
	mkmsk r9, 16
	.loc	1 269 5
	add r5, r0, r9
	.loc	1 269 5
	sext r5, 16
	stw r8, sp[1]
	mov r0, r6
	mov r2, r5
.Ltmp348:
	mov r3, r4
	bl drawLine
.Ltmp349:
	.loc	1 257 5
	add r0, r4, r7
	.loc	1 257 5
	add r7, r0, r9
.Ltmp350:
	.loc	1 269 5
	sext r7, 16
	stw r8, sp[1]
	mov r0, r6
	mov r1, r7
	mov r2, r5
	mov r3, r7
	bl drawLine
.Ltmp351:
	.loc	1 264 5
	stw r8, sp[1]
	mov r0, r6
	mov r1, r4
	mov r2, r6
	mov r3, r7
	bl drawLine
.Ltmp352:
	.loc	1 264 5
	stw r8, sp[1]
	mov r0, r5
	mov r1, r4
	mov r2, r5
	mov r3, r7
	bl drawLine
.Ltmp353:
	.loc	1 260 1
	ldw r9, sp[2]
	ldw r8, sp[3]
	ldw r7, sp[4]
	ldw r6, sp[5]
.Ltmp354:
	ldw r5, sp[6]
	ldw r4, sp[7]
.Ltmp355:
	retsp 8
	# RETURN_REG_HOLDER
.Ltmp356:
	.cc_bottom drawRect.function
	.set	drawRect.nstackwords,(drawLine.nstackwords + 8)
	.globl	drawRect.nstackwords
	.set	drawRect.maxcores,drawLine.maxcores $M 1
	.globl	drawRect.maxcores
	.set	drawRect.maxtimers,drawLine.maxtimers $M 0
	.globl	drawRect.maxtimers
	.set	drawRect.maxchanends,drawLine.maxchanends $M 0
	.globl	drawRect.maxchanends
.Ltmp357:
	.size	drawRect, .Ltmp357-drawRect
.Lfunc_end13:
	.cfi_endproc

	.globl	drawHorisontalLine
	.align	4
	.type	drawHorisontalLine,@function
	.cc_top drawHorisontalLine.function,drawHorisontalLine
drawHorisontalLine:
.Lfunc_begin14:
	.loc	1 267 0
	.cfi_startproc
	entsp 2
.Ltmp358:
	.cfi_def_cfa_offset 8
.Ltmp359:
	.cfi_offset 15, 0
	.loc	1 269 5 prologue_end
.Ltmp360:
	add r2, r0, r2
.Ltmp361:
	mkmsk r11, 16
	.loc	1 269 5
	add r2, r2, r11
	.loc	1 269 5
	sext r2, 16
	stw r3, sp[1]
	mov r3, r1
.Ltmp362:
	bl drawLine
.Ltmp363:
	.loc	1 270 1
	retsp 2
	# RETURN_REG_HOLDER
.Ltmp364:
	.cc_bottom drawHorisontalLine.function
	.set	drawHorisontalLine.nstackwords,(drawLine.nstackwords + 2)
	.globl	drawHorisontalLine.nstackwords
	.set	drawHorisontalLine.maxcores,drawLine.maxcores $M 1
	.globl	drawHorisontalLine.maxcores
	.set	drawHorisontalLine.maxtimers,drawLine.maxtimers $M 0
	.globl	drawHorisontalLine.maxtimers
	.set	drawHorisontalLine.maxchanends,drawLine.maxchanends $M 0
	.globl	drawHorisontalLine.maxchanends
.Ltmp365:
	.size	drawHorisontalLine, .Ltmp365-drawHorisontalLine
.Lfunc_end14:
	.cfi_endproc

	.globl	fillRect
	.align	4
	.type	fillRect,@function
	.cc_top fillRect.function,fillRect
fillRect:
.Lfunc_begin15:
	.loc	1 272 0
	.cfi_startproc
	entsp 7
.Ltmp366:
	.cfi_def_cfa_offset 28
.Ltmp367:
	.cfi_offset 15, 0
	stw r4, sp[6]
.Ltmp368:
	.cfi_offset 4, -4
	stw r5, sp[5]
.Ltmp369:
	.cfi_offset 5, -8
	stw r6, sp[4]
.Ltmp370:
	.cfi_offset 6, -12
	stw r7, sp[3]
.Ltmp371:
	.cfi_offset 7, -16
	stw r8, sp[2]
.Ltmp372:
	.cfi_offset 8, -20
.Ltmp373:
	mov r4, r1
.Ltmp374:
	mov r5, r0
.Ltmp375:
	mkmsk r0, 1
	.loc	1 274 5 prologue_end
.Ltmp376:
	lss r0, r2, r0
	bt r0, .LBB15_3
.Ltmp377:
	ldw r7, sp[8]
	.loc	1 274 5
	add r8, r2, r5
	.loc	1 264 5
.Ltmp378:
	mov r0, r4
	zext r0, 16
	.loc	1 264 5
	zext r3, 16
	.loc	1 264 5
	add r0, r0, r3
	mkmsk r1, 16
	.loc	1 264 5
	add r6, r0, r1
	.loc	1 264 5
	sext r6, 16
.Ltmp379:
.LBB15_2:
	stw r7, sp[1]
	mov r0, r5
	sext r0, 16
	mov r1, r4
	mov r2, r0
	mov r3, r6
	bl drawLine
.Ltmp380:
	.loc	1 274 36
	add r5, r5, 1
	.loc	1 274 5
	mov r0, r5
	sext r0, 16
	.loc	1 274 5
	lss r0, r0, r8
	bt r0, .LBB15_2
.Ltmp381:
.LBB15_3:
	.loc	1 277 1
	ldw r8, sp[2]
	ldw r7, sp[3]
	ldw r6, sp[4]
	ldw r5, sp[5]
	ldw r4, sp[6]
	retsp 7
	# RETURN_REG_HOLDER
.Ltmp382:
	.cc_bottom fillRect.function
	.set	fillRect.nstackwords,(drawLine.nstackwords + 7)
	.globl	fillRect.nstackwords
	.set	fillRect.maxcores,drawLine.maxcores $M 1
	.globl	fillRect.maxcores
	.set	fillRect.maxtimers,drawLine.maxtimers $M 0
	.globl	fillRect.maxtimers
	.set	fillRect.maxchanends,drawLine.maxchanends $M 0
	.globl	fillRect.maxchanends
.Ltmp383:
	.size	fillRect, .Ltmp383-fillRect
.Lfunc_end15:
	.cfi_endproc

	.globl	fillScreen
	.align	4
	.type	fillScreen,@function
	.cc_top fillScreen.function,fillScreen
fillScreen:
.Lfunc_begin16:
	.loc	1 279 0
	.cfi_startproc
	entsp 7
.Ltmp384:
	.cfi_def_cfa_offset 28
.Ltmp385:
	.cfi_offset 15, 0
	stw r4, sp[6]
.Ltmp386:
	.cfi_offset 4, -4
	stw r5, sp[5]
.Ltmp387:
	.cfi_offset 5, -8
	stw r6, sp[4]
.Ltmp388:
	.cfi_offset 6, -12
	stw r7, sp[3]
.Ltmp389:
	.cfi_offset 7, -16
	stw r8, sp[2]
.Ltmp390:
	.cfi_offset 8, -20
	mov r4, r0
.Ltmp391:
	.loc	1 280 5 prologue_end
	ldw r0, dp[display_param+4]
	.loc	1 280 5
	mov r7, r0
	sext r7, 16
	mkmsk r1, 1
.Ltmp392:
	.loc	1 274 5
	lss r1, r7, r1
	bt r1, .LBB16_3
.Ltmp393:
	shr r0, r0, 16
	mkmsk r1, 16
	.loc	1 264 5
.Ltmp394:
	add r5, r0, r1
	ldc r6, 0
	.loc	1 264 5
	sext r5, 16
.Ltmp395:
	.loc	1 280 5
	mov r8, r6
.Ltmp396:
.LBB16_2:
	.loc	1 264 5
	stw r4, sp[1]
	mov r0, r8
	sext r0, 16
	mov r1, r6
	mov r2, r0
	mov r3, r5
	bl drawLine
.Ltmp397:
	.loc	1 274 36
	add r8, r8, 1
	sext r8, 16
	.loc	1 274 5
	lss r0, r8, r7
	bt r0, .LBB16_2
.Ltmp398:
.LBB16_3:
	.loc	1 281 1
	ldw r8, sp[2]
	ldw r7, sp[3]
	ldw r6, sp[4]
	ldw r5, sp[5]
	ldw r4, sp[6]
	retsp 7
	# RETURN_REG_HOLDER
.Ltmp399:
	.cc_bottom fillScreen.function
	.set	fillScreen.nstackwords,(drawLine.nstackwords + 7)
	.globl	fillScreen.nstackwords
	.set	fillScreen.maxcores,drawLine.maxcores $M 1
	.globl	fillScreen.maxcores
	.set	fillScreen.maxtimers,drawLine.maxtimers $M 0
	.globl	fillScreen.maxtimers
	.set	fillScreen.maxchanends,drawLine.maxchanends $M 0
	.globl	fillScreen.maxchanends
.Ltmp400:
	.size	fillScreen, .Ltmp400-fillScreen
.Lfunc_end16:
	.cfi_endproc

	.globl	drawRoundRect
	.align	4
	.type	drawRoundRect,@function
	.cc_top drawRoundRect.function,drawRoundRect
drawRoundRect:
.Lfunc_begin17:
	.loc	1 285 0
	.cfi_startproc
	entsp 11
.Ltmp401:
	.cfi_def_cfa_offset 44
.Ltmp402:
	.cfi_offset 15, 0
	stw r4, sp[10]
.Ltmp403:
	.cfi_offset 4, -4
	stw r5, sp[9]
.Ltmp404:
	.cfi_offset 5, -8
	stw r6, sp[8]
.Ltmp405:
	.cfi_offset 6, -12
	stw r7, sp[7]
.Ltmp406:
	.cfi_offset 7, -16
	stw r8, sp[6]
.Ltmp407:
	.cfi_offset 8, -20
	stw r9, sp[5]
.Ltmp408:
	.cfi_offset 9, -24
	stw r10, sp[4]
.Ltmp409:
	.cfi_offset 10, -28
	mov r9, r3
.Ltmp410:
	stw r2, sp[2]
	mov r8, r1
.Ltmp411:
	mov r7, r0
.Ltmp412:
	ldw r6, sp[13]
	ldw r1, sp[12]
	.loc	1 287 5 prologue_end
.Ltmp413:
	add r5, r1, r7
	.loc	1 287 5
	add r0, r2, r5
.Ltmp414:
	mkmsk r4, 16
	.loc	1 269 5
.Ltmp415:
	add r0, r0, r4
	.loc	1 269 5
	lda16 r10, r0[-r1]
	.loc	1 269 5
	sext r5, 16
	sext r10, 16
	stw r6, sp[1]
	mov r0, r5
	mov r1, r8
	mov r2, r10
	mov r3, r8
	bl drawLine
.Ltmp416:
	.loc	1 288 5
	add r0, r9, r8
	.loc	1 288 5
	stw r0, sp[3]
	add r1, r0, r4
	.loc	1 269 5
.Ltmp417:
	sext r1, 16
	stw r6, sp[1]
	mov r0, r5
	mov r2, r10
	mov r3, r1
	bl drawLine
	ldw r1, sp[12]
.Ltmp418:
	.loc	1 289 5
	add r8, r1, r8
.Ltmp419:
	.loc	1 289 5
	add r0, r9, r8
	.loc	1 264 5
.Ltmp420:
	add r0, r0, r4
	.loc	1 264 5
	lda16 r9, r0[-r1]
.Ltmp421:
	.loc	1 264 5
	sext r8, 16
	sext r9, 16
	mov r10, r6
	stw r10, sp[1]
	mov r0, r7
	mov r1, r8
	mov r2, r7
	mov r3, r9
	bl drawLine
.Ltmp422:
	.loc	1 290 5
	ldw r0, sp[2]
	add r0, r0, r7
	.loc	1 290 5
	add r6, r0, r4
	.loc	1 264 5
.Ltmp423:
	mov r0, r6
	sext r0, 16
	stw r10, sp[1]
	mov r1, r8
	mov r2, r0
	mov r3, r9
	bl drawLine
.Ltmp424:
	.loc	1 292 5
	stw r10, sp[1]
	mov r9, r10
	mkmsk r3, 1
	mov r0, r5
	mov r1, r8
	ldw r7, sp[12]
.Ltmp425:
	mov r2, r7
	bl drawCircleHelper
	.loc	1 293 5
	sub r6, r6, r7
	.loc	1 293 5
	sext r6, 16
	stw r9, sp[1]
	ldc r3, 2
	mov r0, r6
	mov r1, r8
	mov r2, r7
	bl drawCircleHelper
	.loc	1 294 5
	sub r0, r4, r7
	mov r4, r7
	.loc	1 294 5
	ldw r1, sp[3]
	add r7, r0, r1
	.loc	1 294 5
	sext r7, 16
	stw r9, sp[1]
	ldc r3, 4
	mov r0, r6
	mov r1, r7
	mov r2, r4
	bl drawCircleHelper
	.loc	1 295 5
	stw r9, sp[1]
	ldc r3, 8
	mov r0, r5
	mov r1, r7
	mov r2, r4
	bl drawCircleHelper
	.loc	1 296 1
	ldw r10, sp[4]
	ldw r9, sp[5]
	ldw r8, sp[6]
	ldw r7, sp[7]
	ldw r6, sp[8]
	ldw r5, sp[9]
	ldw r4, sp[10]
	retsp 11
.Ltmp426:
	# RETURN_REG_HOLDER
.Ltmp427:
	.cc_bottom drawRoundRect.function
	.set	drawRoundRect.nstackwords,((drawLine.nstackwords $M drawCircleHelper.nstackwords) + 11)
	.globl	drawRoundRect.nstackwords
	.set	drawRoundRect.maxcores,drawCircleHelper.maxcores $M drawLine.maxcores $M 1
	.globl	drawRoundRect.maxcores
	.set	drawRoundRect.maxtimers,drawCircleHelper.maxtimers $M drawLine.maxtimers $M 0
	.globl	drawRoundRect.maxtimers
	.set	drawRoundRect.maxchanends,drawCircleHelper.maxchanends $M drawLine.maxchanends $M 0
	.globl	drawRoundRect.maxchanends
.Ltmp428:
	.size	drawRoundRect, .Ltmp428-drawRoundRect
.Lfunc_end17:
	.cfi_endproc

	.globl	fillRoundRect
	.align	4
	.type	fillRoundRect,@function
	.cc_top fillRoundRect.function,fillRoundRect
fillRoundRect:
.Lfunc_begin18:
	.loc	1 300 0
	.cfi_startproc
	entsp 14
.Ltmp429:
	.cfi_def_cfa_offset 56
.Ltmp430:
	.cfi_offset 15, 0
	stw r4, sp[13]
.Ltmp431:
	.cfi_offset 4, -4
	stw r5, sp[12]
.Ltmp432:
	.cfi_offset 5, -8
	stw r6, sp[11]
.Ltmp433:
	.cfi_offset 6, -12
	stw r7, sp[10]
.Ltmp434:
	.cfi_offset 7, -16
	stw r8, sp[9]
.Ltmp435:
	.cfi_offset 8, -20
	stw r9, sp[8]
.Ltmp436:
	.cfi_offset 9, -24
	stw r10, sp[7]
.Ltmp437:
	.cfi_offset 10, -28
	mov r6, r3
.Ltmp438:
	stw r2, sp[4]
	mov r9, r1
.Ltmp439:
	stw r0, sp[3]
	ldw r4, sp[16]
	ldw r3, sp[15]
	.loc	1 302 5 prologue_end
.Ltmp440:
	add r7, r3, r0
.Ltmp441:
	.loc	1 302 5
	shl r1, r3, 1
	.loc	1 302 5
	stw r1, sp[5]
	lda16 r0, r2[-r3]
.Ltmp442:
	.loc	1 274 5
	mov r1, r7
	sext r1, 16
	stw r1, sp[6]
	.loc	1 274 5
	sext r0, 16
	.loc	1 264 5
.Ltmp443:
	mov r8, r9
	zext r8, 16
	.loc	1 264 5
	zext r6, 16
.Ltmp444:
	mkmsk r1, 1
.Ltmp445:
	.loc	1 274 5
	lss r1, r0, r1
	bt r1, .LBB18_3
.Ltmp446:
	.loc	1 274 5
	ldw r1, sp[6]
	add r5, r0, r1
	.loc	1 264 5
.Ltmp447:
	add r0, r8, r6
	mkmsk r1, 16
	.loc	1 264 5
	add r10, r0, r1
	.loc	1 264 5
	sext r10, 16
.Ltmp448:
.LBB18_2:
	stw r4, sp[1]
	mov r0, r7
	sext r0, 16
	mov r1, r9
	mov r2, r0
	mov r3, r10
	bl drawLine
.Ltmp449:
	.loc	1 274 36
	add r7, r7, 1
	.loc	1 274 5
	mov r0, r7
	sext r0, 16
	.loc	1 274 5
	lss r0, r0, r5
	bt r0, .LBB18_2
.Ltmp450:
.LBB18_3:
	.loc	1 305 5
	ldw r0, sp[4]
	ldw r1, sp[3]
	add r0, r1, r0
	mkmsk r1, 16
	.loc	1 305 5
	add r0, r0, r1
	ldw r9, sp[15]
.Ltmp451:
	.loc	1 305 5
	sub r0, r0, r9
	.loc	1 305 5
	add r7, r9, r8
	.loc	1 305 5
	add r1, r6, r1
	.loc	1 305 5
	ldw r2, sp[5]
	sub r5, r1, r2
	.loc	1 305 5
	sext r5, 16
	stw r5, sp[1]
	sext r7, 16
	sext r0, 16
	stw r4, sp[2]
	mkmsk r3, 1
	mov r1, r7
	mov r2, r9
	bl fillCircleHelper
	.loc	1 306 5
	stw r5, sp[1]
	stw r4, sp[2]
	ldc r3, 2
	ldw r0, sp[6]
	mov r1, r7
	mov r2, r9
	bl fillCircleHelper
	.loc	1 307 1
	ldw r10, sp[7]
	ldw r9, sp[8]
.Ltmp452:
	ldw r8, sp[9]
	ldw r7, sp[10]
	ldw r6, sp[11]
	ldw r5, sp[12]
	ldw r4, sp[13]
.Ltmp453:
	retsp 14
.Ltmp454:
	# RETURN_REG_HOLDER
.Ltmp455:
	.cc_bottom fillRoundRect.function
	.set	fillRoundRect.nstackwords,((drawLine.nstackwords $M fillCircleHelper.nstackwords) + 14)
	.globl	fillRoundRect.nstackwords
	.set	fillRoundRect.maxcores,drawLine.maxcores $M fillCircleHelper.maxcores $M 1
	.globl	fillRoundRect.maxcores
	.set	fillRoundRect.maxtimers,drawLine.maxtimers $M fillCircleHelper.maxtimers $M 0
	.globl	fillRoundRect.maxtimers
	.set	fillRoundRect.maxchanends,drawLine.maxchanends $M fillCircleHelper.maxchanends $M 0
	.globl	fillRoundRect.maxchanends
.Ltmp456:
	.size	fillRoundRect, .Ltmp456-fillRoundRect
.Lfunc_end18:
	.cfi_endproc

	.globl	drawTriangle
	.align	4
	.type	drawTriangle,@function
	.cc_top drawTriangle.function,drawTriangle
drawTriangle:
.Lfunc_begin19:
	.loc	1 311 0
	.cfi_startproc
	entsp 9
.Ltmp457:
	.cfi_def_cfa_offset 36
.Ltmp458:
	.cfi_offset 15, 0
	stw r4, sp[8]
.Ltmp459:
	.cfi_offset 4, -4
	stw r5, sp[7]
.Ltmp460:
	.cfi_offset 5, -8
	stw r6, sp[6]
.Ltmp461:
	.cfi_offset 6, -12
	stw r7, sp[5]
.Ltmp462:
	.cfi_offset 7, -16
	stw r8, sp[4]
.Ltmp463:
	.cfi_offset 8, -20
	stw r9, sp[3]
.Ltmp464:
	.cfi_offset 9, -24
	stw r10, sp[2]
.Ltmp465:
	.cfi_offset 10, -28
	mov r5, r3
.Ltmp466:
	mov r6, r2
.Ltmp467:
	mov r4, r1
.Ltmp468:
	mov r7, r0
.Ltmp469:
	ldw r8, sp[10]
	ldw r9, sp[11]
	ldw r10, sp[12]
	.loc	1 312 5 prologue_end
.Ltmp470:
	stw r10, sp[1]
	bl drawLine
	.loc	1 313 5
	stw r10, sp[1]
	mov r0, r6
	mov r1, r5
	mov r2, r8
	mov r3, r9
	bl drawLine
	.loc	1 314 5
	stw r10, sp[1]
	mov r0, r8
	mov r1, r9
	mov r2, r7
	mov r3, r4
	bl drawLine
	.loc	1 315 1
	ldw r10, sp[2]
	ldw r9, sp[3]
	ldw r8, sp[4]
	ldw r7, sp[5]
.Ltmp471:
	ldw r6, sp[6]
.Ltmp472:
	ldw r5, sp[7]
.Ltmp473:
	ldw r4, sp[8]
.Ltmp474:
	retsp 9
	# RETURN_REG_HOLDER
.Ltmp475:
	.cc_bottom drawTriangle.function
	.set	drawTriangle.nstackwords,(drawLine.nstackwords + 9)
	.globl	drawTriangle.nstackwords
	.set	drawTriangle.maxcores,drawLine.maxcores $M 1
	.globl	drawTriangle.maxcores
	.set	drawTriangle.maxtimers,drawLine.maxtimers $M 0
	.globl	drawTriangle.maxtimers
	.set	drawTriangle.maxchanends,drawLine.maxchanends $M 0
	.globl	drawTriangle.maxchanends
.Ltmp476:
	.size	drawTriangle, .Ltmp476-drawTriangle
.Lfunc_end19:
	.cfi_endproc

	.globl	fillTriangle
	.align	4
	.type	fillTriangle,@function
	.cc_top fillTriangle.function,fillTriangle
fillTriangle:
.Lfunc_begin20:
	.loc	1 319 0
	.cfi_startproc
	entsp 18
.Ltmp477:
	.cfi_def_cfa_offset 72
.Ltmp478:
	.cfi_offset 15, 0
	stw r4, sp[17]
.Ltmp479:
	.cfi_offset 4, -4
	stw r5, sp[16]
.Ltmp480:
	.cfi_offset 5, -8
	stw r6, sp[15]
.Ltmp481:
	.cfi_offset 6, -12
	stw r7, sp[14]
.Ltmp482:
	.cfi_offset 7, -16
	stw r8, sp[13]
.Ltmp483:
	.cfi_offset 8, -20
	stw r9, sp[12]
.Ltmp484:
	.cfi_offset 9, -24
	stw r10, sp[11]
.Ltmp485:
	.cfi_offset 10, -28
.Ltmp486:
	.loc	1 324 9 prologue_end
	lss r5, r3, r1
	.loc	1 324 9
	mov r11, r1
	bt r5, .LBB20_2
.Ltmp487:
	mov r11, r3
.Ltmp488:
.LBB20_2:
	.loc	1 324 9
	mov r4, r0
	bt r5, .LBB20_4
.Ltmp489:
	mov r4, r2
.Ltmp490:
.LBB20_4:
	bt r5, .LBB20_6
.Ltmp491:
	.loc	1 324 9
	mov r3, r1
.Ltmp492:
.LBB20_6:
	ldw r6, sp[20]
	bt r5, .LBB20_8
.Ltmp493:
	.loc	1 324 9
	mov r2, r0
.Ltmp494:
.LBB20_8:
	.loc	1 328 9
	lss r7, r6, r11
	.loc	1 328 9
	mov r1, r11
	bt r7, .LBB20_10
	mov r1, r6
.LBB20_10:
	ldw r5, sp[19]
	.loc	1 328 9
	mov r0, r4
	bt r7, .LBB20_12
	mov r0, r5
.LBB20_12:
	bt r7, .LBB20_14
	.loc	1 328 9
	mov r6, r11
.LBB20_14:
	bt r7, .LBB20_16
	.loc	1 328 9
	mov r5, r4
.Ltmp495:
.LBB20_16:
	.loc	1 332 9
	lss r4, r6, r3
	.loc	1 332 9
	mov r7, r3
	bt r4, .LBB20_18
	mov r7, r6
.LBB20_18:
	.loc	1 332 9
	mov r10, r2
	bt r4, .LBB20_20
	mov r10, r5
.LBB20_20:
	bt r4, .LBB20_22
	.loc	1 332 9
	mov r6, r3
.Ltmp496:
.LBB20_22:
	.loc	1 328 9
	mov r3, r1
	zext r3, 16
.Ltmp497:
	.loc	1 332 9
	mov r11, r6
	zext r11, 16
	bt r4, .LBB20_24
	.loc	1 332 9
	mov r5, r2
.Ltmp498:
.LBB20_24:
	.loc	1 337 9
	eq r2, r3, r11
	bf r2, .LBB20_36
.Ltmp499:
	.loc	1 339 13
	lss r2, r10, r5
	.loc	1 339 13
	bf r2, .LBB20_27
.Ltmp500:
	mov r2, r5
	mov r5, r10
	bu .LBB20_30
.Ltmp501:
.LBB20_36:
	.loc	1 363 9
	eq r2, r1, r7
	mov r3, r1
	bt r2, .LBB20_38
.Ltmp502:
	mkmsk r2, 16
	.loc	1 366 9
	add r3, r7, r2
.Ltmp503:
.LBB20_38:
	.loc	1 353 5
	sub r8, r0, r5
	.loc	1 353 5
	sub r2, r1, r6
	.loc	1 353 5
	sub r0, r0, r10
	.loc	1 353 5
	stw r0, sp[9]
	sub r0, r1, r7
	.loc	1 368 5
.Ltmp504:
	stw r0, sp[8]
	sext r3, 16
	.loc	1 368 5
	lss r0, r3, r6
	bf r0, .LBB20_40
.Ltmp505:
	.loc	1 385 5
	sext r8, 16
	mov r4, r6
	bu .LBB20_47
.Ltmp506:
.LBB20_27:
	.loc	1 341 18
	lss r2, r5, r10
	bt r2, .LBB20_29
.Ltmp507:
	.loc	1 341 18
	mov r10, r5
.Ltmp508:
.LBB20_29:
	mov r2, r10
.Ltmp509:
.LBB20_30:
	.loc	1 344 13
	lss r3, r0, r5
	.loc	1 344 13
	bf r3, .LBB20_32
.Ltmp510:
	mov r5, r0
	bu .LBB20_35
.Ltmp511:
.LBB20_40:
	stw r1, sp[10]
	.loc	1 353 5
	sub r1, r10, r5
	stw r10, sp[5]
	mov r0, r6
	.loc	1 353 5
	stw r0, sp[4]
	sub r11, r7, r0
	stw r7, sp[2]
	.loc	1 369 9
.Ltmp512:
	sext r11, 16
	stw r11, sp[6]
	.loc	1 370 9
	mov r10, r2
	stw r2, sp[3]
	sext r10, 16
	.loc	1 371 9
	sext r1, 16
	stw r1, sp[7]
	.loc	1 372 9
	sext r8, 16
	ldc r9, 0
	mov r7, r9
	mov r4, r0
.LBB20_41:
	mov r6, r3
	.loc	1 369 9
	ldw r0, sp[6]
	divs r0, r7, r0
	.loc	1 369 9
	add r1, r0, r5
	.loc	1 370 9
	divs r0, r9, r10
	.loc	1 370 9
	add r0, r0, r5
	.loc	1 377 13
.Ltmp513:
	shl r2, r1, 16
	.loc	1 377 13
	shl r3, r0, 16
	.loc	1 377 13
	lss r3, r3, r2
	.loc	1 377 13
	mov r2, r1
	bt r3, .LBB20_43
	mov r2, r0
.LBB20_43:
	bt r3, .LBB20_45
	.loc	1 377 13
	mov r0, r1
.Ltmp514:
.LBB20_45:
	.loc	1 371 9
	ldw r1, sp[7]
	add r7, r7, r1
.Ltmp515:
	.loc	1 372 9
	add r9, r9, r8
.Ltmp516:
	.loc	1 269 5
	sext r0, 16
	sext r2, 16
	ldw r1, sp[21]
	stw r1, sp[1]
	mov r1, r4
	sext r1, 16
	mov r3, r1
	bl drawLine
.Ltmp517:
	.loc	1 368 29
	add r4, r4, 1
	sext r4, 16
	mov r3, r6
	.loc	1 368 5
	lss r0, r3, r4
	bf r0, .LBB20_41
.Ltmp518:
	ldw r1, sp[10]
.Ltmp519:
	ldw r10, sp[5]
	ldw r6, sp[4]
	ldw r2, sp[3]
	ldw r7, sp[2]
.Ltmp520:
.LBB20_47:
	.loc	1 386 5
	stw r1, sp[10]
	lss r0, r1, r4
	bt r0, .LBB20_54
.Ltmp521:
	ldw r1, sp[9]
	.loc	1 384 5
	sext r1, 16
	.loc	1 385 5
	stw r1, sp[9]
	sub r0, r4, r6
	.loc	1 385 5
	mul r6, r0, r8
.Ltmp522:
	.loc	1 384 5
	sub r0, r4, r7
	.loc	1 384 5
	mul r7, r0, r1
.Ltmp523:
	.loc	1 387 9
	ldw r0, sp[8]
	sext r0, 16
	.loc	1 388 9
	stw r0, sp[8]
	sext r2, 16
.Ltmp524:
.LBB20_49:
	.loc	1 387 9
	ldw r0, sp[8]
	divs r0, r7, r0
	.loc	1 387 9
	add r1, r0, r10
	mov r9, r10
	.loc	1 388 9
	divs r0, r6, r2
	mov r10, r2
	.loc	1 388 9
	add r0, r0, r5
	.loc	1 395 13
.Ltmp525:
	shl r2, r1, 16
	.loc	1 395 13
	shl r3, r0, 16
	.loc	1 395 13
	lss r3, r3, r2
	.loc	1 395 13
	mov r2, r1
	bt r3, .LBB20_51
.Ltmp526:
	mov r2, r0
.Ltmp527:
.LBB20_51:
	bt r3, .LBB20_53
.Ltmp528:
	.loc	1 395 13
	mov r0, r1
.Ltmp529:
.LBB20_53:
	.loc	1 389 9
	ldw r1, sp[9]
	add r7, r7, r1
.Ltmp530:
	.loc	1 390 9
	add r6, r6, r8
.Ltmp531:
	.loc	1 269 5
	sext r0, 16
	sext r2, 16
	ldw r1, sp[21]
	stw r1, sp[1]
	mov r1, r4
	sext r1, 16
	mov r3, r1
	bl drawLine
.Ltmp532:
	.loc	1 386 21
	add r4, r4, 1
	sext r4, 16
	.loc	1 386 5
	ldw r0, sp[10]
	lss r0, r0, r4
	mov r2, r10
	mov r10, r9
	bf r0, .LBB20_49
	bu .LBB20_54
.Ltmp533:
.LBB20_32:
	.loc	1 346 18
	lss r3, r2, r0
	bt r3, .LBB20_34
.Ltmp534:
	.loc	1 346 18
	mov r0, r2
.Ltmp535:
.LBB20_34:
	mov r2, r0
.Ltmp536:
.LBB20_35:
	ldw r0, sp[21]
	.loc	1 269 5
.Ltmp537:
	stw r0, sp[1]
	mov r0, r5
	mov r3, r1
	bl drawLine
.Ltmp538:
.LBB20_54:
	.loc	1 399 1
	ldw r10, sp[11]
	ldw r9, sp[12]
	ldw r8, sp[13]
	ldw r7, sp[14]
	ldw r6, sp[15]
	ldw r5, sp[16]
	ldw r4, sp[17]
	retsp 18
	# RETURN_REG_HOLDER
.Ltmp539:
	.cc_bottom fillTriangle.function
	.set	fillTriangle.nstackwords,(drawLine.nstackwords + 18)
	.globl	fillTriangle.nstackwords
	.set	fillTriangle.maxcores,drawLine.maxcores $M 1
	.globl	fillTriangle.maxcores
	.set	fillTriangle.maxtimers,drawLine.maxtimers $M 0
	.globl	fillTriangle.maxtimers
	.set	fillTriangle.maxchanends,drawLine.maxchanends $M 0
	.globl	fillTriangle.maxchanends
.Ltmp540:
	.size	fillTriangle, .Ltmp540-fillTriangle
.Lfunc_end20:
	.cfi_endproc

	.globl	drawBitmap
	.align	4
	.type	drawBitmap,@function
	.cc_top drawBitmap.function,drawBitmap
drawBitmap:
.Lfunc_begin21:
	.loc	1 402 0
	.cfi_startproc
	entsp 13
.Ltmp541:
	.cfi_def_cfa_offset 52
.Ltmp542:
	.cfi_offset 15, 0
	stw r4, sp[12]
.Ltmp543:
	.cfi_offset 4, -4
	stw r5, sp[11]
.Ltmp544:
	.cfi_offset 5, -8
	stw r6, sp[10]
.Ltmp545:
	.cfi_offset 6, -12
	stw r7, sp[9]
.Ltmp546:
	.cfi_offset 7, -16
	stw r8, sp[8]
.Ltmp547:
	.cfi_offset 8, -20
	stw r9, sp[7]
.Ltmp548:
	.cfi_offset 9, -24
	stw r10, sp[6]
.Ltmp549:
	.cfi_offset 10, -28
	mov r4, r2
.Ltmp550:
	stw r1, sp[2]
.Ltmp551:
	stw r0, sp[5]
.Ltmp552:
	ldw r1, sp[14]
.Ltmp553:
	mkmsk r0, 1
	.loc	1 406 5 prologue_end
.Ltmp554:
	lss r2, r1, r0
	bt r2, .LBB21_8
.Ltmp555:
	.loc	1 404 5
	add r2, r3, 7
	.loc	1 404 5
	ashr r11, r2, 32
	ldc r9, 29
	shr r11, r11, r9
	add r2, r2, r11
	ashr r2, r2, 3
	.loc	1 410 17
.Ltmp556:
	stw r2, sp[1]
	ldw r2, sp[2]
	zext r2, 16
.Ltmp557:
	.loc	1 406 5
	stw r2, sp[2]
	sub r10, r3, 1
	.loc	1 406 5
	sub r2, r1, 1
	ldw r1, sp[5]
.Ltmp558:
	zext r1, 16
	stw r1, sp[5]
	ldc r5, 0
	.loc	1 407 9
.Ltmp559:
	lss r0, r3, r0
	stw r0, sp[3]
	.loc	1 407 9
	zext r10, 16
.Ltmp560:
	.loc	1 406 5
	zext r2, 16
	stw r2, sp[4]
.Ltmp561:
.LBB21_2:
	.loc	1 407 9
	ldw r0, sp[3]
	bt r0, .LBB21_7
.Ltmp562:
	.loc	1 408 13
	ldw r0, sp[1]
	mul r7, r5, r0
	.loc	1 410 17
.Ltmp563:
	ldw r0, sp[2]
	add r8, r5, r0
	ldc r6, 0
.Ltmp564:
.LBB21_4:
	.loc	1 408 13
	ashr r0, r6, 32
	shr r0, r0, r9
	add r0, r6, r0
	ashr r0, r0, 3
	.loc	1 408 13
	add r0, r0, r7
	.loc	1 409 17
.Ltmp565:
	ld8u r0, r4[r0]
	.loc	1 409 17
	mov r1, r6
	zext r1, 3
	ldc r2, 128
	.loc	1 409 17
	shr r1, r2, r1
	.loc	1 409 17
	and r0, r0, r1
	bf r0, .LBB21_6
.Ltmp566:
	.loc	1 410 17
	ldw r0, sp[5]
	add r0, r0, r6
	.loc	1 410 17
	sext r0, 16
	mov r1, r8
	sext r1, 16
	ldw r2, sp[15]
	bl setPixel_in_buffer
.Ltmp567:
.LBB21_6:
	.loc	1 407 9
	add r0, r6, 1
	.loc	1 407 9
	zext r6, 16
	.loc	1 407 9
	eq r1, r6, r10
	mov r6, r0
	bf r1, .LBB21_4
.Ltmp568:
.LBB21_7:
	.loc	1 406 5
	add r0, r5, 1
	.loc	1 406 5
	zext r5, 16
	.loc	1 406 5
	ldw r1, sp[4]
	eq r1, r5, r1
	mov r5, r0
	bf r1, .LBB21_2
.Ltmp569:
.LBB21_8:
	.loc	1 414 1
	ldw r10, sp[6]
	ldw r9, sp[7]
	ldw r8, sp[8]
	ldw r7, sp[9]
	ldw r6, sp[10]
	ldw r5, sp[11]
	ldw r4, sp[12]
	retsp 13
	# RETURN_REG_HOLDER
.Ltmp570:
	.cc_bottom drawBitmap.function
	.set	drawBitmap.nstackwords,(setPixel_in_buffer.nstackwords + 13)
	.globl	drawBitmap.nstackwords
	.set	drawBitmap.maxcores,setPixel_in_buffer.maxcores $M 1
	.globl	drawBitmap.maxcores
	.set	drawBitmap.maxtimers,setPixel_in_buffer.maxtimers $M 0
	.globl	drawBitmap.maxtimers
	.set	drawBitmap.maxchanends,setPixel_in_buffer.maxchanends $M 0
	.globl	drawBitmap.maxchanends
.Ltmp571:
	.size	drawBitmap, .Ltmp571-drawBitmap
.Lfunc_end21:
	.cfi_endproc

	.globl	drawBitmap_bg
	.align	4
	.type	drawBitmap_bg,@function
	.cc_top drawBitmap_bg.function,drawBitmap_bg
drawBitmap_bg:
.Lfunc_begin22:
	.loc	1 421 0
	.cfi_startproc
	entsp 13
.Ltmp572:
	.cfi_def_cfa_offset 52
.Ltmp573:
	.cfi_offset 15, 0
	stw r4, sp[12]
.Ltmp574:
	.cfi_offset 4, -4
	stw r5, sp[11]
.Ltmp575:
	.cfi_offset 5, -8
	stw r6, sp[10]
.Ltmp576:
	.cfi_offset 6, -12
	stw r7, sp[9]
.Ltmp577:
	.cfi_offset 7, -16
	stw r8, sp[8]
.Ltmp578:
	.cfi_offset 8, -20
	stw r9, sp[7]
.Ltmp579:
	.cfi_offset 9, -24
	stw r10, sp[6]
.Ltmp580:
	.cfi_offset 10, -28
	mov r4, r2
.Ltmp581:
	stw r1, sp[2]
.Ltmp582:
	mov r6, r0
.Ltmp583:
	ldw r1, sp[14]
.Ltmp584:
	mkmsk r0, 1
	.loc	1 425 5 prologue_end
.Ltmp585:
	lss r2, r1, r0
	bt r2, .LBB22_9
.Ltmp586:
	.loc	1 423 5
	add r2, r3, 7
	.loc	1 423 5
	ashr r11, r2, 32
	ldc r7, 29
	shr r11, r11, r7
	add r2, r2, r11
	ashr r2, r2, 3
	.loc	1 429 17
.Ltmp587:
	stw r2, sp[1]
	ldw r2, sp[2]
	zext r2, 16
.Ltmp588:
	.loc	1 425 5
	stw r2, sp[2]
	sub r5, r3, 1
	.loc	1 425 5
	sub r1, r1, 1
.Ltmp589:
	zext r6, 16
	ldc r2, 0
	.loc	1 426 9
.Ltmp590:
	lss r0, r3, r0
	stw r0, sp[3]
	.loc	1 426 9
	zext r5, 16
.Ltmp591:
	.loc	1 425 5
	zext r1, 16
	stw r1, sp[4]
	stw r2, sp[5]
.Ltmp592:
.LBB22_2:
	.loc	1 426 9
	ldw r0, sp[3]
	bt r0, .LBB22_8
.Ltmp593:
	.loc	1 427 13
	ldw r0, sp[1]
	ldw r1, sp[5]
	mul r8, r1, r0
	.loc	1 429 17
.Ltmp594:
	ldw r0, sp[2]
	add r9, r1, r0
	ldc r10, 0
.Ltmp595:
.LBB22_4:
	.loc	1 427 13
	ashr r0, r10, 32
	shr r0, r0, r7
	add r0, r10, r0
	ashr r0, r0, 3
	.loc	1 427 13
	add r0, r0, r8
	.loc	1 428 17
.Ltmp596:
	ld8u r0, r4[r0]
	.loc	1 428 17
	mov r1, r10
	zext r1, 3
	ldc r2, 128
	.loc	1 428 17
	shr r1, r2, r1
	.loc	1 428 17
	and r1, r0, r1
	.loc	1 429 17
.Ltmp597:
	add r0, r6, r10
.Ltmp598:
	.loc	1 431 17
	sext r0, 16
.Ltmp599:
	.loc	1 428 17
	bf r1, .LBB22_6
.Ltmp600:
	.loc	1 429 17
	mov r1, r9
	sext r1, 16
	ldw r2, sp[15]
	bu .LBB22_7
.Ltmp601:
.LBB22_6:
	.loc	1 431 17
	mov r1, r9
	sext r1, 16
	ldw r2, sp[16]
.LBB22_7:
	bl setPixel_in_buffer
.Ltmp602:
	.loc	1 426 9
	add r0, r10, 1
	.loc	1 426 9
	zext r10, 16
	.loc	1 426 9
	eq r1, r10, r5
	mov r10, r0
	bf r1, .LBB22_4
.Ltmp603:
.LBB22_8:
	ldw r2, sp[5]
	.loc	1 425 5
	add r0, r2, 1
	.loc	1 425 5
	zext r2, 16
	.loc	1 425 5
	ldw r1, sp[4]
	eq r1, r2, r1
	stw r0, sp[5]
	bf r1, .LBB22_2
.Ltmp604:
.LBB22_9:
	.loc	1 435 1
	ldw r10, sp[6]
	ldw r9, sp[7]
	ldw r8, sp[8]
	ldw r7, sp[9]
	ldw r6, sp[10]
	ldw r5, sp[11]
	ldw r4, sp[12]
	retsp 13
	# RETURN_REG_HOLDER
.Ltmp605:
	.cc_bottom drawBitmap_bg.function
	.set	drawBitmap_bg.nstackwords,(setPixel_in_buffer.nstackwords + 13)
	.globl	drawBitmap_bg.nstackwords
	.set	drawBitmap_bg.maxcores,setPixel_in_buffer.maxcores $M 1
	.globl	drawBitmap_bg.maxcores
	.set	drawBitmap_bg.maxtimers,setPixel_in_buffer.maxtimers $M 0
	.globl	drawBitmap_bg.maxtimers
	.set	drawBitmap_bg.maxchanends,setPixel_in_buffer.maxchanends $M 0
	.globl	drawBitmap_bg.maxchanends
.Ltmp606:
	.size	drawBitmap_bg, .Ltmp606-drawBitmap_bg
.Lfunc_end22:
	.cfi_endproc

	.globl	drawXBitmap
	.align	4
	.type	drawXBitmap,@function
	.cc_top drawXBitmap.function,drawXBitmap
drawXBitmap:
.Lfunc_begin23:
	.loc	1 441 0
	.cfi_startproc
	entsp 14
.Ltmp607:
	.cfi_def_cfa_offset 56
.Ltmp608:
	.cfi_offset 15, 0
	stw r4, sp[13]
.Ltmp609:
	.cfi_offset 4, -4
	stw r5, sp[12]
.Ltmp610:
	.cfi_offset 5, -8
	stw r6, sp[11]
.Ltmp611:
	.cfi_offset 6, -12
	stw r7, sp[10]
.Ltmp612:
	.cfi_offset 7, -16
	stw r8, sp[9]
.Ltmp613:
	.cfi_offset 8, -20
	stw r9, sp[8]
.Ltmp614:
	.cfi_offset 9, -24
	stw r10, sp[7]
.Ltmp615:
	.cfi_offset 10, -28
	mov r4, r2
.Ltmp616:
	stw r1, sp[2]
.Ltmp617:
	stw r0, sp[6]
.Ltmp618:
	ldw r0, sp[15]
.Ltmp619:
	mkmsk r6, 1
	.loc	1 445 5 prologue_end
.Ltmp620:
	lss r1, r0, r6
	bt r1, .LBB23_8
.Ltmp621:
	.loc	1 443 5
	add r1, r3, 7
	.loc	1 443 5
	ashr r2, r1, 32
	ldc r10, 29
	shr r2, r2, r10
	add r1, r1, r2
	ashr r1, r1, 3
	.loc	1 449 17
.Ltmp622:
	stw r1, sp[1]
	ldw r1, sp[2]
	zext r1, 16
.Ltmp623:
	.loc	1 445 5
	stw r1, sp[2]
	sub r5, r3, 1
	.loc	1 445 5
	sub r1, r0, 1
	ldw r0, sp[6]
.Ltmp624:
	zext r0, 16
	stw r0, sp[6]
	ldc r0, 0
	.loc	1 446 9
.Ltmp625:
	lss r2, r3, r6
	.loc	1 446 9
	stw r2, sp[3]
	zext r5, 16
.Ltmp626:
	.loc	1 445 5
	zext r1, 16
	stw r1, sp[4]
	stw r0, sp[5]
.Ltmp627:
.LBB23_2:
	.loc	1 446 9
	ldw r0, sp[3]
	bt r0, .LBB23_7
.Ltmp628:
	.loc	1 447 13
	ldw r0, sp[1]
	ldw r1, sp[5]
	mul r7, r1, r0
	.loc	1 449 17
.Ltmp629:
	ldw r0, sp[2]
	add r8, r1, r0
	ldc r9, 0
.Ltmp630:
.LBB23_4:
	.loc	1 447 13
	ashr r0, r9, 32
	shr r0, r0, r10
	add r0, r9, r0
	ashr r0, r0, 3
	.loc	1 447 13
	add r0, r0, r7
	.loc	1 448 17
.Ltmp631:
	ld8u r0, r4[r0]
	.loc	1 448 17
	mov r1, r9
	zext r1, 3
	.loc	1 448 17
	shl r1, r6, r1
	.loc	1 448 17
	and r0, r0, r1
	bf r0, .LBB23_6
.Ltmp632:
	.loc	1 449 17
	ldw r0, sp[6]
	add r0, r0, r9
	.loc	1 449 17
	sext r0, 16
	mov r1, r8
	sext r1, 16
	ldw r2, sp[16]
	bl setPixel_in_buffer
.Ltmp633:
.LBB23_6:
	.loc	1 446 9
	add r0, r9, 1
	.loc	1 446 9
	zext r9, 16
	.loc	1 446 9
	eq r1, r9, r5
	mov r9, r0
	bf r1, .LBB23_4
.Ltmp634:
.LBB23_7:
	ldw r2, sp[5]
	.loc	1 445 5
	add r0, r2, 1
	.loc	1 445 5
	zext r2, 16
	.loc	1 445 5
	ldw r1, sp[4]
	eq r1, r2, r1
	stw r0, sp[5]
	bf r1, .LBB23_2
.Ltmp635:
.LBB23_8:
	.loc	1 453 1
	ldw r10, sp[7]
	ldw r9, sp[8]
	ldw r8, sp[9]
	ldw r7, sp[10]
	ldw r6, sp[11]
	ldw r5, sp[12]
	ldw r4, sp[13]
	retsp 14
	# RETURN_REG_HOLDER
.Ltmp636:
	.cc_bottom drawXBitmap.function
	.set	drawXBitmap.nstackwords,(setPixel_in_buffer.nstackwords + 14)
	.globl	drawXBitmap.nstackwords
	.set	drawXBitmap.maxcores,setPixel_in_buffer.maxcores $M 1
	.globl	drawXBitmap.maxcores
	.set	drawXBitmap.maxtimers,setPixel_in_buffer.maxtimers $M 0
	.globl	drawXBitmap.maxtimers
	.set	drawXBitmap.maxchanends,setPixel_in_buffer.maxchanends $M 0
	.globl	drawXBitmap.maxchanends
.Ltmp637:
	.size	drawXBitmap, .Ltmp637-drawXBitmap
.Lfunc_end23:
	.cfi_endproc

	.globl	setCursor
	.align	4
	.type	setCursor,@function
	.cc_top setCursor.function,setCursor
setCursor:
.Lfunc_begin24:
	.loc	1 490 0
	.cfi_startproc
	.loc	1 492 5 prologue_end
	ldc r2, 0
	ldaw r3, dp[display_param+8]
	.loc	1 491 5
	st16 r0, r3[r2]
	add r0, r3, 2
.Ltmp638:
	.loc	1 492 5
	st16 r1, r0[r2]
	.loc	1 493 1
	retsp 0
	# RETURN_REG_HOLDER
.Ltmp639:
	.cc_bottom setCursor.function
	.set	setCursor.nstackwords,0
	.globl	setCursor.nstackwords
	.set	setCursor.maxcores,1
	.globl	setCursor.maxcores
	.set	setCursor.maxtimers,0
	.globl	setCursor.maxtimers
	.set	setCursor.maxchanends,0
	.globl	setCursor.maxchanends
.Ltmp640:
	.size	setCursor, .Ltmp640-setCursor
.Lfunc_end24:
	.cfi_endproc

	.globl	setTextSize
	.align	4
	.type	setTextSize,@function
	.cc_top setTextSize.function,setTextSize
setTextSize:
.Lfunc_begin25:
	.loc	1 495 0
	.cfi_startproc
	bt r0, .LBB25_2
.Ltmp641:
	mkmsk r0, 1
.LBB25_2:
	.loc	1 496 5 prologue_end
.Ltmp642:
	ldc r1, 0
	ldaw r2, dp[display_param+16]
	st8 r0, r2[r1]
	.loc	1 497 1
	retsp 0
	# RETURN_REG_HOLDER
.Ltmp643:
	.cc_bottom setTextSize.function
	.set	setTextSize.nstackwords,0
	.globl	setTextSize.nstackwords
	.set	setTextSize.maxcores,1
	.globl	setTextSize.maxcores
	.set	setTextSize.maxtimers,0
	.globl	setTextSize.maxtimers
	.set	setTextSize.maxchanends,0
	.globl	setTextSize.maxchanends
.Ltmp644:
	.size	setTextSize, .Ltmp644-setTextSize
.Lfunc_end25:
	.cfi_endproc

	.globl	setTextColor
	.align	4
	.type	setTextColor,@function
	.cc_top setTextColor.function,setTextColor
setTextColor:
.Lfunc_begin26:
	.loc	1 499 0
	.cfi_startproc
	.loc	1 502 5 prologue_end
	ldc r1, 0
	ldaw r2, dp[display_param+12]
	add r3, r2, 2
	.loc	1 502 5
	st16 r0, r3[r1]
	.loc	1 502 5
	st16 r0, r2[r1]
	.loc	1 503 1
	retsp 0
	# RETURN_REG_HOLDER
.Ltmp645:
	.cc_bottom setTextColor.function
	.set	setTextColor.nstackwords,0
	.globl	setTextColor.nstackwords
	.set	setTextColor.maxcores,1
	.globl	setTextColor.maxcores
	.set	setTextColor.maxtimers,0
	.globl	setTextColor.maxtimers
	.set	setTextColor.maxchanends,0
	.globl	setTextColor.maxchanends
.Ltmp646:
	.size	setTextColor, .Ltmp646-setTextColor
.Lfunc_end26:
	.cfi_endproc

	.globl	setTextColor_bg
	.align	4
	.type	setTextColor_bg,@function
	.cc_top setTextColor_bg.function,setTextColor_bg
setTextColor_bg:
.Lfunc_begin27:
	.loc	1 505 0
	.cfi_startproc
	.loc	1 507 5 prologue_end
	ldc r2, 0
	ldaw r3, dp[display_param+12]
	.loc	1 506 5
	st16 r0, r3[r2]
	add r0, r3, 2
.Ltmp647:
	.loc	1 507 5
	st16 r1, r0[r2]
	.loc	1 508 1
	retsp 0
	# RETURN_REG_HOLDER
.Ltmp648:
	.cc_bottom setTextColor_bg.function
	.set	setTextColor_bg.nstackwords,0
	.globl	setTextColor_bg.nstackwords
	.set	setTextColor_bg.maxcores,1
	.globl	setTextColor_bg.maxcores
	.set	setTextColor_bg.maxtimers,0
	.globl	setTextColor_bg.maxtimers
	.set	setTextColor_bg.maxchanends,0
	.globl	setTextColor_bg.maxchanends
.Ltmp649:
	.size	setTextColor_bg, .Ltmp649-setTextColor_bg
.Lfunc_end27:
	.cfi_endproc

	.globl	setTextWrap
	.align	4
	.type	setTextWrap,@function
	.cc_top setTextWrap.function,setTextWrap
setTextWrap:
.Lfunc_begin28:
	.loc	1 510 0
	.cfi_startproc
	.loc	1 511 5 prologue_end
	stw r0, dp[display_param+20]
	.loc	1 512 1
	retsp 0
	# RETURN_REG_HOLDER
.Ltmp650:
	.cc_bottom setTextWrap.function
	.set	setTextWrap.nstackwords,0
	.globl	setTextWrap.nstackwords
	.set	setTextWrap.maxcores,1
	.globl	setTextWrap.maxcores
	.set	setTextWrap.maxtimers,0
	.globl	setTextWrap.maxtimers
	.set	setTextWrap.maxchanends,0
	.globl	setTextWrap.maxchanends
.Ltmp651:
	.size	setTextWrap, .Ltmp651-setTextWrap
.Lfunc_end28:
	.cfi_endproc

	.globl	getRotation
	.align	4
	.type	getRotation,@function
	.cc_top getRotation.function,getRotation
getRotation:
.Lfunc_begin29:
	.loc	1 514 0
	.cfi_startproc
	mkmsk r0, 1
	ldaw r1, dp[display_param+16]
	.loc	1 515 5 prologue_end
.Ltmp652:
	ld8u r0, r1[r0]
	retsp 0
	# RETURN_REG_HOLDER
.Ltmp653:
	.cc_bottom getRotation.function
	.set	getRotation.nstackwords,0
	.globl	getRotation.nstackwords
	.set	getRotation.maxcores,1
	.globl	getRotation.maxcores
	.set	getRotation.maxtimers,0
	.globl	getRotation.maxtimers
	.set	getRotation.maxchanends,0
	.globl	getRotation.maxchanends
.Ltmp654:
	.size	getRotation, .Ltmp654-getRotation
.Lfunc_end29:
	.cfi_endproc

	.globl	setRotation
	.align	4
	.type	setRotation,@function
	.cc_top setRotation.function,setRotation
setRotation:
.Lfunc_begin30:
	.loc	1 518 0
	.cfi_startproc
	.loc	1 519 5 prologue_end
	zext r0, 2
.Ltmp655:
	mkmsk r1, 1
	ldaw r2, dp[display_param+16]
	.loc	1 519 5
	st8 r0, r2[r1]
	mkmsk r1, 2
	.loc	1 520 5
	lsu r1, r1, r0
	bt r1, .LBB30_4

	.xtabranch .Ljumptable0+2,.Ljumptable0+4,.Ljumptable0+6,.Ljumptable0+8
.Ljumptable0:
		
	bru r0
	.jmptable .LBB30_2,.LBB30_3,.LBB30_2,.LBB30_3
.LBB30_2:
	.loc	1 523 9
.Ltmp656:
	ldw r0, dp[display_param]
	.loc	1 524 9
	ldc r1, 0
	ldaw r2, dp[display_param+4]
	.loc	1 523 9
	st16 r0, r2[r1]
	shr r0, r0, 16
	add r2, r2, 2
	.loc	1 524 9
	st16 r0, r2[r1]
.Ltmp657:
	.loc	1 532 1
	retsp 0
	# RETURN_REG_HOLDER
.LBB30_3:
	.loc	1 529 9
.Ltmp658:
	ldc r0, 0
	ldaw r1, dp[display_param]
	add r2, r1, 2
	.loc	1 528 9
	ld16s r2, r2[r0]
	ldaw r3, dp[display_param+4]
	.loc	1 528 9
	st16 r2, r3[r0]
	.loc	1 529 9
	ld16s r1, r1[r0]
	add r2, r3, 2
	.loc	1 529 9
	st16 r1, r2[r0]
.Ltmp659:
.LBB30_4:
	.loc	1 532 1
	retsp 0
	# RETURN_REG_HOLDER
.Ltmp660:
	.cc_bottom setRotation.function
	.set	setRotation.nstackwords,0
	.globl	setRotation.nstackwords
	.set	setRotation.maxcores,1
	.globl	setRotation.maxcores
	.set	setRotation.maxtimers,0
	.globl	setRotation.maxtimers
	.set	setRotation.maxchanends,0
	.globl	setRotation.maxchanends
.Ltmp661:
	.size	setRotation, .Ltmp661-setRotation
.Lfunc_end30:
	.cfi_endproc

	.globl	width
	.align	4
	.type	width,@function
	.cc_top width.function,width
width:
.Lfunc_begin31:
	.loc	1 535 0
	.cfi_startproc
	.loc	1 536 5 prologue_end
	ldc r0, 0
	ldaw r1, dp[display_param+4]
	ld16s r0, r1[r0]
	retsp 0
	# RETURN_REG_HOLDER
.Ltmp662:
	.cc_bottom width.function
	.set	width.nstackwords,0
	.globl	width.nstackwords
	.set	width.maxcores,1
	.globl	width.maxcores
	.set	width.maxtimers,0
	.globl	width.maxtimers
	.set	width.maxchanends,0
	.globl	width.maxchanends
.Ltmp663:
	.size	width, .Ltmp663-width
.Lfunc_end31:
	.cfi_endproc

	.globl	heigh
	.align	4
	.type	heigh,@function
	.cc_top heigh.function,heigh
heigh:
.Lfunc_begin32:
	.loc	1 539 0
	.cfi_startproc
	.loc	1 540 5 prologue_end
	ldc r0, 0
	ldaw r1, dp[display_param+4]
	add r1, r1, 2
	ld16s r0, r1[r0]
	retsp 0
	# RETURN_REG_HOLDER
.Ltmp664:
	.cc_bottom heigh.function
	.set	heigh.nstackwords,0
	.globl	heigh.nstackwords
	.set	heigh.maxcores,1
	.globl	heigh.maxcores
	.set	heigh.maxtimers,0
	.globl	heigh.maxtimers
	.set	heigh.maxchanends,0
	.globl	heigh.maxchanends
.Ltmp665:
	.size	heigh, .Ltmp665-heigh
.Lfunc_end32:
	.cfi_endproc

	.globl	height
	.align	4
	.type	height,@function
	.cc_top height.function,height
height:
.Lfunc_begin33:
	.loc	1 544 0
	.cfi_startproc
	.loc	1 545 5 prologue_end
	ldc r0, 0
	ldaw r1, dp[display_param+4]
	add r1, r1, 2
	ld16s r0, r1[r0]
	retsp 0
	# RETURN_REG_HOLDER
.Ltmp666:
	.cc_bottom height.function
	.set	height.nstackwords,0
	.globl	height.nstackwords
	.set	height.maxcores,1
	.globl	height.maxcores
	.set	height.maxtimers,0
	.globl	height.maxtimers
	.set	height.maxchanends,0
	.globl	height.maxchanends
.Ltmp667:
	.size	height, .Ltmp667-height
.Lfunc_end33:
	.cfi_endproc

	.section	.dp.data,"awd",@progbits
	.cc_top font.data,font
	.globl	font.globound
font.globound = 1275
	.globl	font
	.align	4
	.type	font,@object
	.size	font, 1275
font:
.asciiz"\000\000\000\000\000>[O[>>kOk>\034>|>\034\030<~<\030\034W}W\034\034^\177^\034\000\030<\030\000\377\347\303\347\377\000\030$\030\000\377\347\333\347\3770H:\006\016&)y)&@\177\005\005\007@\177\005%?Z<\347<Z\177>\034\034\b\b\034\034>\177\024\"\177\"\024__\000__\006\t\177\001\177\000f\211\225j`````\224\242\377\242\224\b\004~\004\b\020 ~ \020\b\b*\034\b\b\034*\b\b\036\020\020\020\020\f\036\f\036\f08>80\006\016>\016\006\000\000\000\000\000\000\000_\000\000\000\007\000\007\000\024\177\024\177\024$*\177*\022#\023\bdb6IV P\000\b\007\003\000\000\034\"A\000\000A\"\034\000*\034\177\034*\b\b>\b\b\000\200p0\000\b\b\b\b\b\000\000``\000 \020\b\004\002>QIE>\000B\177@\000rIIIF!AIM3\030\024\022\177\020'EEE9<JII1A!\021\t\0076III6FII)\036\000\000\024\000\000\000@4\000\000\000\b\024\"A\024\024\024\024\024\000A\"\024\b\002\001Y\t\006>A]YN|\022\021\022|\177III6>AAA\"\177AAA>\177IIIA\177\t\t\t\001>AAQs\177\b\b\b\177\000A\177A\000 @A?\001\177\b\024\"A\177@@@@\177\002\034\002\177\177\004\b\020\177>AAA>\177\t\t\t\006>AQ!^\177\t\031)F&III2\003\001\177\001\003?@@@?\037 @ \037?@8@?c\024\b\024c\003\004x\004\003aYIMC\000\177AAA\002\004\b\020 \000AAA\177\004\002\001\002\004@@@@@\000\003\007\b\000 TTx@\177(DD88DDD(8DD(\1778TTT\030\000\b~\t\002\030\244\244\234x\177\b\004\004x\000D}@\000 @@=\000\177\020(D\000\000A\177@\000|\004x\004x|\b\004\004x8DDD8\374\030$$\030\030$$\030\374|\b\004\004\bHTTT$\004\004?D$<@@ |\034 @ \034<@0@<D(\020(DL\220\220\220|DdTLD\000\b6A\000\000\000w\000\000\000A6\b\000\002\001\002\004\002<&#&<\036\241\241a\022:@@ z8TTUY!UUyA VUz@!UTx@ TUy@\f\036Rr\0229UUUY9TTTY9UTTX\000\000E|A\000\002E}B\000\001E|@}\022\021\022}|\022\027\022||TUE\000 TT|T|\n\t\177I2III2\270dTL:2JHH0:AA!z:B@ x\000\235\240\240}=BBB==@@@=<$\377$$H~ICf+/\374/+\377\t)\366 \300\210~\t\003 TTyA\000\000D}A0HHJ28@@\"z\000z\n\nr}\r\0311}&))/(&)))&0HM@ 8\b\b\b\b\b\b\b\b8/\020\310\254\272/\020(4\372\000\000{\000\000\b\024*\024\"\"\024*\024\b\252\000U\000\252\252U\252U\252\000\000\000\377\000\020\020\020\377\000\024\024\024\377\000\020\020\377\000\377\020\020\360\020\360\024\024\024\374\000\024\024\367\000\377\000\000\377\000\377\024\024\364\004\374\024\024\027\020\037\020\020\037\020\037\024\024\024\037\000\020\020\020\360\000\000\000\000\037\020\020\020\020\037\020\020\020\020\360\020\000\000\000\377\020\020\020\020\020\020\020\020\020\377\020\000\000\000\377\024\000\000\377\000\377\000\000\037\020\027\000\000\374\004\364\024\024\027\020\027\024\024\364\004\364\000\000\377\000\367\024\024\024\024\024\024\024\367\000\367\024\024\024\027\024\020\020\037\020\037\024\024\024\364\024\020\020\360\020\360\000\000\037\020\037\000\000\000\037\024\000\000\000\374\024\000\000\360\020\360\020\020\377\020\377\024\024\024\377\024\020\020\020\037\000\000\000\000\360\020\377\377\377\377\377\360\360\360\360\360\377\377\377\000\000\000\000\000\377\377\017\017\017\017\0178DD8D\374JJJ4~\002\002\006\006\002~\002~\002cUIAc8DD<\004@~ \036 \006\002~\002\002\231\245\347\245\231\034*I*\034Lr\001rL0JMM00HxH0\274bZF=>III\000~\001\001\001~*****DD_DD@QJD@@DJQ@\000\000\377\001\003\340\200\377\000\000\b\bkk\b6\0226$6\006\017\t\017\006\000\000\030\030\000\000\000\020\020\0000@\377\001\001\000\037\001\001\036\000\031\035\027\022\000<<<<\000\000\000\000"
	.cc_bottom font.data
	.section	.dp.bss,"awd",@nobits
	.cc_top display_param.data,display_param
	.globl	display_param
	.align	4
	.type	display_param,@object
	.size	display_param, 24
display_param:
	.space	24
	.cc_bottom display_param.data
.Ldebug_end0:
	.section	.dp.data,"awd",@progbits
.Ldebug_end1:
	.text
.Ldebug_end2:
	.section	.trap_info,"",@progbits
.Ltrap_info_entries_start0:
	.long	.Ltrap_info_entries_end0-.Ltrap_info_entries_start0
	.long	1
.Ltrap_info_entries_end0: