	.text
	.file	"../src/f_conversions.xc"

	.inline_definition delay_seconds
	.inline_definition delay_milliseconds
	.inline_definition delay_microseconds
	.inline_definition _safe_memcmp
	.inline_definition _safe_memmove
	.inline_definition _safe_memset
	.weak _i.i2c_external_commands_if.read_temperature_ok.maxchanends.group
	.max_reduce _i.i2c_external_commands_if.read_temperature_ok.max.maxchanends, _i.i2c_external_commands_if.read_temperature_ok.maxchanends.group, 0
	.weak _i.i2c_external_commands_if.read_temperature_ok.maxcores.group
	.max_reduce _i.i2c_external_commands_if.read_temperature_ok.max.maxcores, _i.i2c_external_commands_if.read_temperature_ok.maxcores.group, 0
	.weak _i.i2c_external_commands_if.read_temperature_ok.maxtimers.group
	.max_reduce _i.i2c_external_commands_if.read_temperature_ok.max.maxtimers, _i.i2c_external_commands_if.read_temperature_ok.maxtimers.group, 0
	.weak _i.i2c_external_commands_if.read_temperature_ok.nstackwords.group
	.globl _i.i2c_external_commands_if.read_temperature_ok.nstackwords.group
	.weak _i.i2c_external_commands_if.read_temperature_ok.fns.group
	.globl _i.i2c_external_commands_if.read_temperature_ok.fns.group
	.max_reduce _i.i2c_external_commands_if.read_temperature_ok.max.nstackwords, _i.i2c_external_commands_if.read_temperature_ok.nstackwords.group, 0
	.max_reduce _i.i2c_external_commands_if.read_temperature_ok.fns, _i.i2c_external_commands_if.read_temperature_ok.fns.group, 0
	.weak _i.i2c_external_commands_if.command.maxchanends.group
	.max_reduce _i.i2c_external_commands_if.command.max.maxchanends, _i.i2c_external_commands_if.command.maxchanends.group, 0
	.weak _i.i2c_external_commands_if.command.maxcores.group
	.max_reduce _i.i2c_external_commands_if.command.max.maxcores, _i.i2c_external_commands_if.command.maxcores.group, 0
	.weak _i.i2c_external_commands_if.command.maxtimers.group
	.max_reduce _i.i2c_external_commands_if.command.max.maxtimers, _i.i2c_external_commands_if.command.maxtimers.group, 0
	.weak _i.i2c_external_commands_if.command.nstackwords.group
	.globl _i.i2c_external_commands_if.command.nstackwords.group
	.weak _i.i2c_external_commands_if.command.fns.group
	.globl _i.i2c_external_commands_if.command.fns.group
	.max_reduce _i.i2c_external_commands_if.command.max.nstackwords, _i.i2c_external_commands_if.command.nstackwords.group, 0
	.max_reduce _i.i2c_external_commands_if.command.fns, _i.i2c_external_commands_if.command.fns.group, 0
	.weak _i.i2c_external_commands_if.__interface_init.maxchanends.group
	.max_reduce _i.i2c_external_commands_if.__interface_init.max.maxchanends, _i.i2c_external_commands_if.__interface_init.maxchanends.group, 0
	.weak _i.i2c_external_commands_if.__interface_init.maxcores.group
	.max_reduce _i.i2c_external_commands_if.__interface_init.max.maxcores, _i.i2c_external_commands_if.__interface_init.maxcores.group, 0
	.weak _i.i2c_external_commands_if.__interface_init.maxtimers.group
	.max_reduce _i.i2c_external_commands_if.__interface_init.max.maxtimers, _i.i2c_external_commands_if.__interface_init.maxtimers.group, 0
	.weak _i.i2c_external_commands_if.__interface_init.nstackwords.group
	.globl _i.i2c_external_commands_if.__interface_init.nstackwords.group
	.weak _i.i2c_external_commands_if.__interface_init.fns.group
	.globl _i.i2c_external_commands_if.__interface_init.fns.group
	.max_reduce _i.i2c_external_commands_if.__interface_init.max.nstackwords, _i.i2c_external_commands_if.__interface_init.nstackwords.group, 0
	.max_reduce _i.i2c_external_commands_if.__interface_init.fns, _i.i2c_external_commands_if.__interface_init.fns.group, 0
	.weak _i.i2c_external_commands_if._client_call_y.maxchanends.group
	.add_to_set _i.i2c_external_commands_if._client_call_y.maxchanends.group, (__interface_client_call_y_other.maxchanends + __interface_client_call_y_extra.maxchanends), __interface_client_call_y_other
	.max_reduce _i.i2c_external_commands_if._client_call_y.max.maxchanends, _i.i2c_external_commands_if._client_call_y.maxchanends.group, 0
	.weak _i.i2c_external_commands_if._client_call_y.maxcores.group
	.add_to_set _i.i2c_external_commands_if._client_call_y.maxcores.group, (__interface_client_call_y_other.maxcores + __interface_client_call_y_extra.maxcores), __interface_client_call_y_other
	.max_reduce _i.i2c_external_commands_if._client_call_y.max.maxcores, _i.i2c_external_commands_if._client_call_y.maxcores.group, 0
	.weak _i.i2c_external_commands_if._client_call_y.maxtimers.group
	.add_to_set _i.i2c_external_commands_if._client_call_y.maxtimers.group, (__interface_client_call_y_other.maxtimers + __interface_client_call_y_extra.maxtimers), __interface_client_call_y_other
	.max_reduce _i.i2c_external_commands_if._client_call_y.max.maxtimers, _i.i2c_external_commands_if._client_call_y.maxtimers.group, 0
	.weak _i.i2c_external_commands_if._client_call_y.nstackwords.group
	.globl _i.i2c_external_commands_if._client_call_y.nstackwords.group
	.weak _i.i2c_external_commands_if._client_call_y.fns.group
	.globl _i.i2c_external_commands_if._client_call_y.fns.group
	.add_to_set _i.i2c_external_commands_if._client_call_y.nstackwords.group, (__interface_client_call_y_other.nstackwords + __interface_client_call_y_extra.nstackwords), __interface_client_call_y_other
	.add_to_set _i.i2c_external_commands_if._client_call_y.fns.group, __interface_client_call_y_other
	.max_reduce _i.i2c_external_commands_if._client_call_y.max.nstackwords, _i.i2c_external_commands_if._client_call_y.nstackwords.group, 0
	.max_reduce _i.i2c_external_commands_if._client_call_y.fns, _i.i2c_external_commands_if._client_call_y.fns.group, 0
	.set usage.anon.0,0
	.set usage.anon.1,0
	.set usage.anon.2,0
	.set usage.anon.3,0
	.set usage.anon.4,0
	.set usage.anon.5,0
	.call RR_12V_24V_To_String_Ok,snprintf
	.call Ambient_Light_Sensor_ALS_PDIC243_To_String_Ok,snprintf
	.call TC1047_Raw_DegC_To_String_Ok,snprintf
	.call Temp_OnetenthDegC_To_Str,snprintf
	.call myExceptionHandler,printf
	.call usage.anon.5,memset
	.call usage.anon.4,memmove
	.call usage.anon.3,memcmp
	.call usage.anon.2,delay_ticks_longlong
	.call usage.anon.1,delay_ticks_longlong
	.call usage.anon.0,delay_ticks_longlong
	.assert 1,memset.actnoglobalaccess,"In file included from ../src/f_conversions.xc:14:\nIn file included from /Applications/XMOS_xTIMEcomposer_Community_14.2.4/target/include/xc/string.h:5:\n/Applications/XMOS_xTIMEcomposer_Community_14.2.4/target/include/xc/safe/string.h:21:3: error: passing non-local alias to function `memset\' which accesses a global variable\n  memset(s, c, n);\n  ^~~~~~~~~~~~~~~"
	.assert 1,memmove.actnoglobalaccess,"In file included from ../src/f_conversions.xc:14:\nIn file included from /Applications/XMOS_xTIMEcomposer_Community_14.2.4/target/include/xc/string.h:5:\n/Applications/XMOS_xTIMEcomposer_Community_14.2.4/target/include/xc/safe/string.h:15:3: error: passing non-local alias to function `memmove\' which accesses a global variable\n  memmove(s1, s2, n);\n  ^~~~~~~~~~~~~~~~~~"


	.text
	.weak	_i.i2c_external_commands_if._chan.command
	.align	4
	.type	_i.i2c_external_commands_if._chan.command,@function
	.cc_top _i.i2c_external_commands_if._chan.command.function,_i.i2c_external_commands_if._chan.command
_i.i2c_external_commands_if._chan.command:
	.cfi_startproc
	getr r2, 2
	setd res[r2], r0
	add r0, r2, 1
	out res[r2], r0
	outct res[r2], 2
	chkct res[r2], 1
	out res[r2], r1
	outct res[r2], 2
	in r0, res[r2]
	chkct res[r2], 1
	freer res[r2]
	retsp 0
	# RETURN_REG_HOLDER
	.cc_bottom _i.i2c_external_commands_if._chan.command.function
	.set	_i.i2c_external_commands_if._chan.command.nstackwords,0
	.globl	_i.i2c_external_commands_if._chan.command.nstackwords
	.weak	_i.i2c_external_commands_if._chan.command.nstackwords
	.set	_i.i2c_external_commands_if._chan.command.maxcores,1
	.globl	_i.i2c_external_commands_if._chan.command.maxcores
	.weak	_i.i2c_external_commands_if._chan.command.maxcores
	.set	_i.i2c_external_commands_if._chan.command.maxtimers,0
	.globl	_i.i2c_external_commands_if._chan.command.maxtimers
	.weak	_i.i2c_external_commands_if._chan.command.maxtimers
	.set	_i.i2c_external_commands_if._chan.command.maxchanends,1
	.globl	_i.i2c_external_commands_if._chan.command.maxchanends
	.weak	_i.i2c_external_commands_if._chan.command.maxchanends
.Ltmp0:
	.size	_i.i2c_external_commands_if._chan.command, .Ltmp0-_i.i2c_external_commands_if._chan.command
	.cfi_endproc

	.weak	_i.i2c_external_commands_if._chan.read_temperature_ok
	.align	4
	.type	_i.i2c_external_commands_if._chan.read_temperature_ok,@function
	.cc_top _i.i2c_external_commands_if._chan.read_temperature_ok.function,_i.i2c_external_commands_if._chan.read_temperature_ok
_i.i2c_external_commands_if._chan.read_temperature_ok:
	.cfi_startproc
	entsp 2
.Ltmp1:
	.cfi_def_cfa_offset 8
.Ltmp2:
	.cfi_offset 15, 0
	stw r4, sp[1]
.Ltmp3:
	.cfi_offset 4, -4
	mov r3, r0
	getr r4, 2
	setd res[r4], r1
	out res[r4], r4
	outct res[r4], 2
	chkct res[r4], 1
	out res[r4], r2
	outct res[r4], 2
	in r0, res[r4]
	ldc r2, 20
	mov r0, r4
	mov r1, r3
	bl sin_char_array
	chkct res[r4], 1
	freer res[r4]
	ldw r4, sp[1]
	retsp 2
	# RETURN_REG_HOLDER
	.cc_bottom _i.i2c_external_commands_if._chan.read_temperature_ok.function
	.set	_i.i2c_external_commands_if._chan.read_temperature_ok.nstackwords,(sin_char_array.nstackwords + 2)
	.globl	_i.i2c_external_commands_if._chan.read_temperature_ok.nstackwords
	.weak	_i.i2c_external_commands_if._chan.read_temperature_ok.nstackwords
	.set	_i.i2c_external_commands_if._chan.read_temperature_ok.maxcores,sin_char_array.maxcores $M 1
	.globl	_i.i2c_external_commands_if._chan.read_temperature_ok.maxcores
	.weak	_i.i2c_external_commands_if._chan.read_temperature_ok.maxcores
	.set	_i.i2c_external_commands_if._chan.read_temperature_ok.maxtimers,sin_char_array.maxtimers $M 0
	.globl	_i.i2c_external_commands_if._chan.read_temperature_ok.maxtimers
	.weak	_i.i2c_external_commands_if._chan.read_temperature_ok.maxtimers
	.set	_i.i2c_external_commands_if._chan.read_temperature_ok.maxchanends,(1 + sin_char_array.maxchanends) $M 1
	.globl	_i.i2c_external_commands_if._chan.read_temperature_ok.maxchanends
	.weak	_i.i2c_external_commands_if._chan.read_temperature_ok.maxchanends
.Ltmp4:
	.size	_i.i2c_external_commands_if._chan.read_temperature_ok, .Ltmp4-_i.i2c_external_commands_if._chan.read_temperature_ok
	.cfi_endproc

	.weak	_i.i2c_external_commands_if._chan_y.command
	.align	4
	.type	_i.i2c_external_commands_if._chan_y.command,@function
	.cc_top _i.i2c_external_commands_if._chan_y.command.function,_i.i2c_external_commands_if._chan_y.command
_i.i2c_external_commands_if._chan_y.command:
	.cfi_startproc
	entsp 2
.Ltmp5:
	.cfi_def_cfa_offset 8
.Ltmp6:
	.cfi_offset 15, 0
	stw r4, sp[1]
.Ltmp7:
	.cfi_offset 4, -4
	ldw r2, r0[0]
	getr r4, 2
	setd res[r4], r2
	add r2, r4, 1
	out res[r4], r2
	outct res[r4], 2
	chkct res[r4], 1
	out res[r4], r1
	outct res[r4], 2
	ldw r2, r0[1]
	ldc r1, 0
	mov r0, r4
	bl __interface_client_call_y
	chkct res[r4], 1
	freer res[r4]
	ldw r4, sp[1]
	retsp 2
	# RETURN_REG_HOLDER
	.cc_bottom _i.i2c_external_commands_if._chan_y.command.function
	.set	_i.i2c_external_commands_if._chan_y.command.nstackwords,((_i.i2c_external_commands_if._client_call_y.max.nstackwords $M ($D __interface_client_call_y.nstackwords ? __interface_client_call_y.nstackwords $: _i.i2c_external_commands_if._client_call_y.max.nstackwords)) + 2)
	.globl	_i.i2c_external_commands_if._chan_y.command.nstackwords
	.weak	_i.i2c_external_commands_if._chan_y.command.nstackwords
	.set	_i.i2c_external_commands_if._chan_y.command.maxcores,($D __interface_client_call_y.maxcores ? __interface_client_call_y.maxcores $: _i.i2c_external_commands_if._client_call_y.max.maxcores) $M 1
	.globl	_i.i2c_external_commands_if._chan_y.command.maxcores
	.weak	_i.i2c_external_commands_if._chan_y.command.maxcores
	.set	_i.i2c_external_commands_if._chan_y.command.maxtimers,($D __interface_client_call_y.maxtimers ? __interface_client_call_y.maxtimers $: _i.i2c_external_commands_if._client_call_y.max.maxtimers) $M 0
	.globl	_i.i2c_external_commands_if._chan_y.command.maxtimers
	.weak	_i.i2c_external_commands_if._chan_y.command.maxtimers
	.set	_i.i2c_external_commands_if._chan_y.command.maxchanends,(1 + ($D __interface_client_call_y.maxchanends ? __interface_client_call_y.maxchanends $: _i.i2c_external_commands_if._client_call_y.max.maxchanends)) $M 1
	.globl	_i.i2c_external_commands_if._chan_y.command.maxchanends
	.weak	_i.i2c_external_commands_if._chan_y.command.maxchanends
.Ltmp8:
	.size	_i.i2c_external_commands_if._chan_y.command, .Ltmp8-_i.i2c_external_commands_if._chan_y.command
	.cfi_endproc

	.weak	_i.i2c_external_commands_if._chan_y.read_temperature_ok
	.align	4
	.type	_i.i2c_external_commands_if._chan_y.read_temperature_ok,@function
	.cc_top _i.i2c_external_commands_if._chan_y.read_temperature_ok.function,_i.i2c_external_commands_if._chan_y.read_temperature_ok
_i.i2c_external_commands_if._chan_y.read_temperature_ok:
	.cfi_startproc
	entsp 3
.Ltmp9:
	.cfi_def_cfa_offset 12
.Ltmp10:
	.cfi_offset 15, 0
	stw r4, sp[2]
.Ltmp11:
	.cfi_offset 4, -4
	stw r5, sp[1]
.Ltmp12:
	.cfi_offset 5, -8
	mov r4, r0
	ldw r0, r1[0]
	getr r5, 2
	setd res[r5], r0
	out res[r5], r5
	outct res[r5], 2
	chkct res[r5], 1
	out res[r5], r2
	outct res[r5], 2
	ldw r2, r1[1]
	ldc r1, 0
	mov r0, r5
	bl __interface_client_call_y
	ldc r2, 20
	mov r0, r5
	mov r1, r4
	bl sin_char_array
	chkct res[r5], 1
	freer res[r5]
	ldw r5, sp[1]
	ldw r4, sp[2]
	retsp 3
	# RETURN_REG_HOLDER
	.cc_bottom _i.i2c_external_commands_if._chan_y.read_temperature_ok.function
	.set	_i.i2c_external_commands_if._chan_y.read_temperature_ok.nstackwords,((_i.i2c_external_commands_if._client_call_y.max.nstackwords $M ($D __interface_client_call_y.nstackwords ? __interface_client_call_y.nstackwords $: _i.i2c_external_commands_if._client_call_y.max.nstackwords) $M sin_char_array.nstackwords) + 3)
	.globl	_i.i2c_external_commands_if._chan_y.read_temperature_ok.nstackwords
	.weak	_i.i2c_external_commands_if._chan_y.read_temperature_ok.nstackwords
	.set	_i.i2c_external_commands_if._chan_y.read_temperature_ok.maxcores,($D __interface_client_call_y.maxcores ? __interface_client_call_y.maxcores $: _i.i2c_external_commands_if._client_call_y.max.maxcores) $M sin_char_array.maxcores $M 1
	.globl	_i.i2c_external_commands_if._chan_y.read_temperature_ok.maxcores
	.weak	_i.i2c_external_commands_if._chan_y.read_temperature_ok.maxcores
	.set	_i.i2c_external_commands_if._chan_y.read_temperature_ok.maxtimers,($D __interface_client_call_y.maxtimers ? __interface_client_call_y.maxtimers $: _i.i2c_external_commands_if._client_call_y.max.maxtimers) $M sin_char_array.maxtimers $M 0
	.globl	_i.i2c_external_commands_if._chan_y.read_temperature_ok.maxtimers
	.weak	_i.i2c_external_commands_if._chan_y.read_temperature_ok.maxtimers
	.set	_i.i2c_external_commands_if._chan_y.read_temperature_ok.maxchanends,(1 + ($D __interface_client_call_y.maxchanends ? __interface_client_call_y.maxchanends $: _i.i2c_external_commands_if._client_call_y.max.maxchanends)) $M (1 + sin_char_array.maxchanends) $M 1
	.globl	_i.i2c_external_commands_if._chan_y.read_temperature_ok.maxchanends
	.weak	_i.i2c_external_commands_if._chan_y.read_temperature_ok.maxchanends
.Ltmp13:
	.size	_i.i2c_external_commands_if._chan_y.read_temperature_ok, .Ltmp13-_i.i2c_external_commands_if._chan_y.read_temperature_ok
	.cfi_endproc

	.globl	installExceptionHandler
	.align	4
	.type	installExceptionHandler,@function
	.cc_top installExceptionHandler.function,installExceptionHandler
installExceptionHandler:
.Lfunc_begin4:
	.loc	1 28 0
	.cfi_startproc
.Lxtalabel0:
	.loc	1 29 0 prologue_end
	#APP
	 ldap r11, exception
	#NO_APP
	.loc	1 30 0
	#APP
	 set kep, r11
	#NO_APP
	.loc	1 31 0
	#APP
	 retsp 0
	#NO_APP
	.loc	1 32 0
	#APP
	.align 128
	#NO_APP
	.loc	1 33 0
	#APP
	exception: bl myExceptionHandler
	#NO_APP
	retsp 0
	# RETURN_REG_HOLDER
.Ltmp14:
	.cc_bottom installExceptionHandler.function
	.set	installExceptionHandler.nstackwords,0
	.globl	installExceptionHandler.nstackwords
	.set	installExceptionHandler.maxcores,1
	.globl	installExceptionHandler.maxcores
	.set	installExceptionHandler.maxtimers,0
	.globl	installExceptionHandler.maxtimers
	.set	installExceptionHandler.maxchanends,0
	.globl	installExceptionHandler.maxchanends
.Ltmp15:
	.size	installExceptionHandler, .Ltmp15-installExceptionHandler
.Lfunc_end4:
	.cfi_endproc

	.globl	myExceptionHandler
	.align	4
	.type	myExceptionHandler,@function
	.cc_top myExceptionHandler.function,myExceptionHandler
myExceptionHandler:
.Lfunc_begin5:
	.loc	1 37 0
	.cfi_startproc
.Lxtalabel1:
	entsp 1
.Ltmp16:
	.cfi_def_cfa_offset 4
.Ltmp17:
	.cfi_offset 15, 0
	.loc	1 39 0 prologue_end
.Ltmp18:
	ldaw r11, cp[.Lstr]
	mov r0, r11
	bl puts
	.loc	1 40 0
	#APP
	 clre
	#NO_APP
	.loc	1 41 0
	#APP
	 waiteu
	#NO_APP
	retsp 1
	# RETURN_REG_HOLDER
.Ltmp19:
	.cc_bottom myExceptionHandler.function
	.set	myExceptionHandler.nstackwords,(puts.nstackwords + 1)
	.globl	myExceptionHandler.nstackwords
	.set	myExceptionHandler.maxcores,puts.maxcores $M 1
	.globl	myExceptionHandler.maxcores
	.set	myExceptionHandler.maxtimers,puts.maxtimers $M 0
	.globl	myExceptionHandler.maxtimers
	.set	myExceptionHandler.maxchanends,puts.maxchanends $M 0
	.globl	myExceptionHandler.maxchanends
.Ltmp20:
	.size	myExceptionHandler, .Ltmp20-myExceptionHandler
.Lfunc_end5:
	.cfi_endproc

	.section	.cp.rodata.cst4,"aMc",@progbits,4
	.cc_top .LCPI6_0.data,.LCPI6_0
	.align	4
	.type	.LCPI6_0,@object
	.size	.LCPI6_0, 4
.LCPI6_0:
	.long	1717986919
	.cc_bottom .LCPI6_0.data
	.cc_top .LCPI6_1.data,.LCPI6_1
	.align	4
	.type	.LCPI6_1,@object
	.size	.LCPI6_1, 4
.LCPI6_1:
	.long	4294967286
	.cc_bottom .LCPI6_1.data
	.text
	.globl	Temp_OnetenthDegC_To_Str
	.align	4
	.type	Temp_OnetenthDegC_To_Str,@function
	.cc_top Temp_OnetenthDegC_To_Str.function,Temp_OnetenthDegC_To_Str
Temp_OnetenthDegC_To_Str:
.Lfunc_begin6:
	.loc	1 188 0
	.cfi_startproc
.Lxtalabel2:
	entsp 7
.Ltmp21:
	.cfi_def_cfa_offset 28
.Ltmp22:
	.cfi_offset 15, 0
	stw r4, sp[6]
.Ltmp23:
	.cfi_offset 4, -4
	stw r5, sp[5]
.Ltmp24:
	.cfi_offset 5, -8
	stw r6, sp[4]
.Ltmp25:
	.cfi_offset 6, -12
	stw r7, sp[3]
.Ltmp26:
	.cfi_offset 7, -16
	stw r8, sp[2]
.Ltmp27:
	.cfi_offset 8, -20
.Ltmp28:
	mov r4, r1
.Ltmp29:
	mov r5, r0
.Ltmp30:
	ldw r0, cp[.LCPI6_0]
	ldc r1, 0
	.loc	1 190 0 prologue_end
.Ltmp31:
	mov r2, r1
	maccs r1, r2, r5, r0
	mkmsk r6, 5
	shr r0, r1, r6
	ashr r1, r1, 2
	add r3, r1, r0
.Ltmp32:
	ldw r0, cp[.LCPI6_1]
	.loc	1 191 0
.Ltmp33:
	mul r0, r3, r0
	.loc	1 191 0
	add r0, r0, r5
.Ltmp34:
	.loc	1 198 0
	add r1, r5, 9
	zext r1, 16
	ldc r2, 10008
	.loc	1 198 0
	lsu r7, r2, r1
	ldc r1, 9
	.loc	1 199 0
	lsu r8, r1, r0
	.loc	1 201 0
	stw r0, sp[1]
	ldaw r11, cp[.str41]
	ldc r1, 5
	mov r0, r4
.Ltmp35:
	mov r2, r11
.Lxta.call_labels0:
	bl snprintf
.Ltmp36:
	.loc	1 202 0
	eq r1, r0, 4
	eq r1, r1, 0
	.loc	1 203 0
	shr r0, r0, r6
.Ltmp37:
	.loc	1 199 0
	or r0, r0, r7
.Ltmp38:
	.loc	1 202 0
	or r0, r0, r1
.Ltmp39:
	.loc	1 203 0
	or r6, r0, r8
.Ltmp40:
	bf r6, .LBB6_2
.Ltmp41:
.Lxtalabel3:
	.loc	1 207 0
	ldaw r11, cp[.str48]
	ldc r2, 5
	mov r0, r4
	mov r1, r11
	bl memcpy
.Ltmp42:
	ldc r5, 999
.Ltmp43:
.LBB6_2:
.Lxtalabel4:
	mkmsk r0, 1
	.loc	1 211 5
	xor r1, r6, r0
	mov r0, r5
	ldw r8, sp[2]
	ldw r7, sp[3]
	ldw r6, sp[4]
.Ltmp44:
	ldw r5, sp[5]
	ldw r4, sp[6]
	retsp 7
	# RETURN_REG_HOLDER
.Ltmp45:
	.cc_bottom Temp_OnetenthDegC_To_Str.function
	.set	Temp_OnetenthDegC_To_Str.nstackwords,((snprintf.nstackwords $M memcpy.nstackwords) + 7)
	.globl	Temp_OnetenthDegC_To_Str.nstackwords
	.set	Temp_OnetenthDegC_To_Str.maxcores,snprintf.maxcores $M 1
	.globl	Temp_OnetenthDegC_To_Str.maxcores
	.set	Temp_OnetenthDegC_To_Str.maxtimers,snprintf.maxtimers $M 0
	.globl	Temp_OnetenthDegC_To_Str.maxtimers
	.set	Temp_OnetenthDegC_To_Str.maxchanends,snprintf.maxchanends $M 0
	.globl	Temp_OnetenthDegC_To_Str.maxchanends
.Ltmp46:
	.size	Temp_OnetenthDegC_To_Str, .Ltmp46-Temp_OnetenthDegC_To_Str
.Lfunc_end6:
	.cfi_endproc

	.section	.cp.rodata.cst4,"aMc",@progbits,4
	.cc_top .LCPI7_0.data,.LCPI7_0
	.align	4
	.type	.LCPI7_0,@object
	.size	.LCPI7_0, 4
.LCPI7_0:
	.long	4294768751
	.cc_bottom .LCPI7_0.data
	.cc_top .LCPI7_1.data,.LCPI7_1
	.align	4
	.type	.LCPI7_1,@object
	.size	.LCPI7_1, 4
.LCPI7_1:
	.long	138477535
	.cc_bottom .LCPI7_1.data
	.cc_top .LCPI7_2.data,.LCPI7_2
	.align	4
	.type	.LCPI7_2,@object
	.size	.LCPI7_2, 4
.LCPI7_2:
	.long	4294966878
	.cc_bottom .LCPI7_2.data
	.cc_top .LCPI7_3.data,.LCPI7_3
	.align	4
	.type	.LCPI7_3,@object
	.size	.LCPI7_3, 4
.LCPI7_3:
	.long	1717986919
	.cc_bottom .LCPI7_3.data
	.cc_top .LCPI7_4.data,.LCPI7_4
	.align	4
	.type	.LCPI7_4,@object
	.size	.LCPI7_4, 4
.LCPI7_4:
	.long	4294967286
	.cc_bottom .LCPI7_4.data
	.cc_top .LCPI7_5.data,.LCPI7_5
	.align	4
	.type	.LCPI7_5,@object
	.size	.LCPI7_5, 4
.LCPI7_5:
	.long	4294966887
	.cc_bottom .LCPI7_5.data
	.text
	.globl	TC1047_Raw_DegC_To_String_Ok
	.align	4
	.type	TC1047_Raw_DegC_To_String_Ok,@function
	.cc_top TC1047_Raw_DegC_To_String_Ok.function,TC1047_Raw_DegC_To_String_Ok
TC1047_Raw_DegC_To_String_Ok:
.Lfunc_begin7:
	.loc	1 217 0
	.cfi_startproc
.Lxtalabel5:
	entsp 7
.Ltmp47:
	.cfi_def_cfa_offset 28
.Ltmp48:
	.cfi_offset 15, 0
	stw r4, sp[6]
.Ltmp49:
	.cfi_offset 4, -4
	stw r5, sp[5]
.Ltmp50:
	.cfi_offset 5, -8
	stw r6, sp[4]
.Ltmp51:
	.cfi_offset 6, -12
	stw r7, sp[3]
.Ltmp52:
	.cfi_offset 7, -16
	stw r8, sp[2]
.Ltmp53:
	.cfi_offset 8, -20
	mov r4, r1
.Ltmp54:
	ldc r1, 100
	.loc	1 234 0 prologue_end
.Ltmp55:
	mul r0, r0, r1
.Ltmp56:
	ldw r1, cp[.LCPI7_0]
	.loc	1 234 0
	add r0, r0, r1
	ldc r1, 0
	ldw r2, cp[.LCPI7_1]
	.loc	1 234 0
	lmul r0, r2, r0, r2, r1, r1
	shr r0, r0, 6
	ldw r2, cp[.LCPI7_2]
	.loc	1 234 0
	add r5, r0, r2
.Ltmp57:
	ldw r2, cp[.LCPI7_3]
	.loc	1 238 0
.Ltmp58:
	mov r3, r1
	maccs r1, r3, r5, r2
	mkmsk r6, 5
	shr r2, r1, r6
	ashr r1, r1, 2
	add r3, r1, r2
.Ltmp59:
	ldw r1, cp[.LCPI7_4]
	.loc	1 239 0
.Ltmp60:
	mul r1, r3, r1
	.loc	1 239 0
	add r1, r1, r5
.Ltmp61:
	ldw r2, cp[.LCPI7_5]
.Ltmp62:
	.loc	1 245 0
	add r0, r0, r2
	ldc r2, 1008
	.loc	1 245 0
	lsu r7, r2, r0
	ldc r0, 9
	.loc	1 246 0
	lsu r8, r0, r1
	.loc	1 248 0
	stw r1, sp[1]
	ldaw r11, cp[.str47]
	ldc r1, 5
.Ltmp63:
	mov r0, r4
	mov r2, r11
.Lxta.call_labels1:
	bl snprintf
.Ltmp64:
	.loc	1 249 0
	eq r1, r0, 4
	eq r1, r1, 0
	.loc	1 250 0
	shr r0, r0, r6
.Ltmp65:
	.loc	1 246 0
	or r0, r0, r7
.Ltmp66:
	.loc	1 249 0
	or r0, r0, r1
.Ltmp67:
	.loc	1 250 0
	or r6, r0, r8
.Ltmp68:
	bf r6, .LBB7_2
.Ltmp69:
.Lxtalabel6:
	.loc	1 254 0
	ldaw r11, cp[.str48]
	ldc r2, 5
	mov r0, r4
	mov r1, r11
	bl memcpy
.Ltmp70:
	ldc r5, 999
.Ltmp71:
.LBB7_2:
.Lxtalabel7:
	mkmsk r0, 1
	.loc	1 258 5
	xor r1, r6, r0
	mov r0, r5
	ldw r8, sp[2]
	ldw r7, sp[3]
	ldw r6, sp[4]
.Ltmp72:
	ldw r5, sp[5]
	ldw r4, sp[6]
	retsp 7
	# RETURN_REG_HOLDER
.Ltmp73:
	.cc_bottom TC1047_Raw_DegC_To_String_Ok.function
	.set	TC1047_Raw_DegC_To_String_Ok.nstackwords,((snprintf.nstackwords $M memcpy.nstackwords) + 7)
	.globl	TC1047_Raw_DegC_To_String_Ok.nstackwords
	.set	TC1047_Raw_DegC_To_String_Ok.maxcores,snprintf.maxcores $M 1
	.globl	TC1047_Raw_DegC_To_String_Ok.maxcores
	.set	TC1047_Raw_DegC_To_String_Ok.maxtimers,snprintf.maxtimers $M 0
	.globl	TC1047_Raw_DegC_To_String_Ok.maxtimers
	.set	TC1047_Raw_DegC_To_String_Ok.maxchanends,snprintf.maxchanends $M 0
	.globl	TC1047_Raw_DegC_To_String_Ok.maxchanends
.Ltmp74:
	.size	TC1047_Raw_DegC_To_String_Ok, .Ltmp74-TC1047_Raw_DegC_To_String_Ok
.Lfunc_end7:
	.cfi_endproc

	.section	.cp.rodata.cst4,"aMc",@progbits,4
	.cc_top .LCPI8_0.data,.LCPI8_0
	.align	4
	.type	.LCPI8_0,@object
	.size	.LCPI8_0, 4
.LCPI8_0:
	.long	2701502771
	.cc_bottom .LCPI8_0.data
	.text
	.globl	Ambient_Light_Sensor_ALS_PDIC243_To_String_Ok
	.align	4
	.type	Ambient_Light_Sensor_ALS_PDIC243_To_String_Ok,@function
	.cc_top Ambient_Light_Sensor_ALS_PDIC243_To_String_Ok.function,Ambient_Light_Sensor_ALS_PDIC243_To_String_Ok
Ambient_Light_Sensor_ALS_PDIC243_To_String_Ok:
.Lfunc_begin8:
	.loc	1 264 0
	.cfi_startproc
.Lxtalabel8:
	entsp 5
.Ltmp75:
	.cfi_def_cfa_offset 20
.Ltmp76:
	.cfi_offset 15, 0
	stw r4, sp[4]
.Ltmp77:
	.cfi_offset 4, -4
	stw r5, sp[3]
.Ltmp78:
	.cfi_offset 5, -8
	stw r6, sp[2]
.Ltmp79:
	.cfi_offset 6, -12
	stw r7, sp[1]
.Ltmp80:
	.cfi_offset 7, -16
	mov r5, r1
.Ltmp81:
	ldc r7, 0
	ldw r1, cp[.LCPI8_0]
	.loc	1 276 0 prologue_end
.Ltmp82:
	lmul r0, r1, r0, r1, r7, r7
.Ltmp83:
	shr r0, r0, 8
.Ltmp84:
	ldc r4, 99
	.loc	1 277 5
	lsu r1, r4, r0
	bt r1, .LBB8_2
.Ltmp85:
.Lxtalabel9:
	.loc	1 277 5
	mov r4, r0
.Ltmp86:
.LBB8_2:
.Lxtalabel10:
	mkmsk r6, 1
	bf r5, .LBB8_4
.Ltmp87:
.Lxtalabel11:
	.loc	1 298 0
	ldaw r11, cp[.str53]
	mkmsk r1, 2
	mov r0, r5
	mov r2, r11
	mov r3, r4
.Lxta.call_labels2:
	bl snprintf
.Ltmp88:
	.loc	1 299 0
	eq r1, r0, 2
	eq r1, r1, 0
	mkmsk r2, 5
	.loc	1 300 0
	shr r0, r0, r2
.Ltmp89:
	.loc	1 300 0
	or r0, r1, r0
.Ltmp90:
	bf r0, .LBB8_4
.Ltmp91:
.Lxtalabel12:
	.loc	1 304 0
	ldaw r11, cp[.str54]
	mkmsk r2, 2
	mov r0, r5
	mov r1, r11
	bl memcpy
.Ltmp92:
	ldc r4, 99
	mov r6, r7
.Ltmp93:
.LBB8_4:
.Lxtalabel13:
	bt r6, .LBB8_6
.Lxtalabel14:
	ldc r4, 99
.LBB8_6:
.Lxtalabel15:
	mov r0, r4
	mov r1, r6
	ldw r7, sp[1]
	ldw r6, sp[2]
	ldw r5, sp[3]
	ldw r4, sp[4]
	retsp 5
	# RETURN_REG_HOLDER
	.cc_bottom Ambient_Light_Sensor_ALS_PDIC243_To_String_Ok.function
	.set	Ambient_Light_Sensor_ALS_PDIC243_To_String_Ok.nstackwords,((snprintf.nstackwords $M memcpy.nstackwords) + 5)
	.globl	Ambient_Light_Sensor_ALS_PDIC243_To_String_Ok.nstackwords
	.set	Ambient_Light_Sensor_ALS_PDIC243_To_String_Ok.maxcores,snprintf.maxcores $M 1
	.globl	Ambient_Light_Sensor_ALS_PDIC243_To_String_Ok.maxcores
	.set	Ambient_Light_Sensor_ALS_PDIC243_To_String_Ok.maxtimers,snprintf.maxtimers $M 0
	.globl	Ambient_Light_Sensor_ALS_PDIC243_To_String_Ok.maxtimers
	.set	Ambient_Light_Sensor_ALS_PDIC243_To_String_Ok.maxchanends,snprintf.maxchanends $M 0
	.globl	Ambient_Light_Sensor_ALS_PDIC243_To_String_Ok.maxchanends
.Ltmp94:
	.size	Ambient_Light_Sensor_ALS_PDIC243_To_String_Ok, .Ltmp94-Ambient_Light_Sensor_ALS_PDIC243_To_String_Ok
.Lfunc_end8:
	.cfi_endproc

	.section	.cp.rodata.cst4,"aMc",@progbits,4
	.cc_top .LCPI9_0.data,.LCPI9_0
	.align	4
	.type	.LCPI9_0,@object
	.size	.LCPI9_0, 4
.LCPI9_0:
	.long	1789278483
	.cc_bottom .LCPI9_0.data
	.cc_top .LCPI9_1.data,.LCPI9_1
	.align	4
	.type	.LCPI9_1,@object
	.size	.LCPI9_1, 4
.LCPI9_1:
	.long	2862845573
	.cc_bottom .LCPI9_1.data
	.cc_top .LCPI9_2.data,.LCPI9_2
	.align	4
	.type	.LCPI9_2,@object
	.size	.LCPI9_2, 4
.LCPI9_2:
	.long	4294967286
	.cc_bottom .LCPI9_2.data
	.cc_top .LCPI9_3.data,.LCPI9_3
	.align	4
	.type	.LCPI9_3,@object
	.size	.LCPI9_3, 4
.LCPI9_3:
	.long	1229000
	.cc_bottom .LCPI9_3.data
	.cc_top .LCPI9_4.data,.LCPI9_4
	.align	4
	.type	.LCPI9_4,@object
	.size	.LCPI9_4, 4
.LCPI9_4:
	.long	1228999
	.cc_bottom .LCPI9_4.data
	.text
	.globl	RR_12V_24V_To_String_Ok
	.align	4
	.type	RR_12V_24V_To_String_Ok,@function
	.cc_top RR_12V_24V_To_String_Ok.function,RR_12V_24V_To_String_Ok
RR_12V_24V_To_String_Ok:
.Lfunc_begin9:
	.loc	1 320 0
	.cfi_startproc
.Lxtalabel16:
	entsp 6
.Ltmp95:
	.cfi_def_cfa_offset 24
.Ltmp96:
	.cfi_offset 15, 0
	stw r4, sp[5]
.Ltmp97:
	.cfi_offset 4, -4
	stw r5, sp[4]
.Ltmp98:
	.cfi_offset 5, -8
	stw r6, sp[3]
.Ltmp99:
	.cfi_offset 6, -12
	stw r7, sp[2]
.Ltmp100:
	.cfi_offset 7, -16
	mov r5, r1
.Ltmp101:
	.loc	1 334 0 prologue_end
	shr r0, r0, 4
.Ltmp102:
	ldc r1, 100
	.loc	1 334 0
	mul r1, r0, r1
	ldc r6, 0
	ldw r0, cp[.LCPI9_0]
	.loc	1 334 0
	lmul r0, r2, r1, r0, r6, r6
	ldc r2, 9
	shr r4, r0, r2
.Ltmp103:
	ldw r0, cp[.LCPI9_1]
	.loc	1 338 0
.Ltmp104:
	lmul r0, r3, r1, r0, r6, r6
	ldc r3, 13
	shr r3, r0, r3
.Ltmp105:
	ldw r0, cp[.LCPI9_2]
	.loc	1 339 0
.Ltmp106:
	mul r0, r3, r0
	.loc	1 339 0
	add r0, r0, r4
.Ltmp107:
	ldw r11, cp[.LCPI9_3]
.Ltmp108:
	.loc	1 344 0
	lsu r11, r1, r11
	ldw r7, cp[.LCPI9_4]
	lsu r1, r7, r1
	ldc r7, 10
	.loc	1 345 0
	lsu r7, r0, r7
	lsu r2, r2, r0
	.loc	1 347 5
	and r11, r7, r11
.Ltmp109:
	bt r11, .LBB9_2
.Ltmp110:
.Lxtalabel17:
	ldc r4, 99
.Ltmp111:
.LBB9_2:
.Lxtalabel18:
	.loc	1 345 0
	or r7, r2, r1
	bf r5, .LBB9_5
.Ltmp112:
.Lxtalabel19:
	.loc	1 352 0
	stw r0, sp[1]
	ldaw r11, cp[.str59]
	ldc r1, 5
	mov r0, r5
.Ltmp113:
	mov r2, r11
.Lxta.call_labels3:
	bl snprintf
.Ltmp114:
	.loc	1 353 0
	eq r1, r0, 4
	eq r1, r1, 0
	mkmsk r2, 5
	.loc	1 354 0
	shr r0, r0, r2
.Ltmp115:
	.loc	1 353 0
	or r0, r0, r7
.Ltmp116:
	.loc	1 354 0
	or r7, r0, r1
.Ltmp117:
	bf r7, .LBB9_6
.Ltmp118:
.Lxtalabel20:
	.loc	1 358 0
	ldaw r11, cp[.str60]
	ldc r2, 5
	mov r0, r5
	mov r1, r11
	bl memcpy
.Ltmp119:
.LBB9_5:
.Lxtalabel21:
	mov r6, r7
.Ltmp120:
.LBB9_6:
.Lxtalabel22:
	.loc	1 362 5
	eq r1, r6, 0
	mov r0, r4
	ldw r7, sp[2]
	ldw r6, sp[3]
	ldw r5, sp[4]
	ldw r4, sp[5]
	retsp 6
	# RETURN_REG_HOLDER
.Ltmp121:
	.cc_bottom RR_12V_24V_To_String_Ok.function
	.set	RR_12V_24V_To_String_Ok.nstackwords,((snprintf.nstackwords $M memcpy.nstackwords) + 6)
	.globl	RR_12V_24V_To_String_Ok.nstackwords
	.set	RR_12V_24V_To_String_Ok.maxcores,snprintf.maxcores $M 1
	.globl	RR_12V_24V_To_String_Ok.maxcores
	.set	RR_12V_24V_To_String_Ok.maxtimers,snprintf.maxtimers $M 0
	.globl	RR_12V_24V_To_String_Ok.maxtimers
	.set	RR_12V_24V_To_String_Ok.maxchanends,snprintf.maxchanends $M 0
	.globl	RR_12V_24V_To_String_Ok.maxchanends
.Ltmp122:
	.size	RR_12V_24V_To_String_Ok, .Ltmp122-RR_12V_24V_To_String_Ok
.Lfunc_end9:
	.cfi_endproc

	.section	.cp.rodata.cst4,"aMc",@progbits,4
	.cc_top .LCPI10_0.data,.LCPI10_0
	.align	4
	.type	.LCPI10_0,@object
	.size	.LCPI10_0, 4
.LCPI10_0:
	.long	4294967290
	.cc_bottom .LCPI10_0.data
	.text
	.globl	BCD_To_Bin_8
	.align	4
	.type	BCD_To_Bin_8,@function
	.cc_top BCD_To_Bin_8.function,BCD_To_Bin_8
BCD_To_Bin_8:
.Lfunc_begin10:
	.loc	1 369 0
	.cfi_startproc
.Lxtalabel23:
	.loc	1 370 5 prologue_end
	shr r1, r0, 4
	ldw r2, cp[.LCPI10_0]
	.loc	1 370 5
	mul r1, r1, r2
	.loc	1 370 5
	add r0, r1, r0
.Ltmp123:
	zext r0, 8
	retsp 0
	# RETURN_REG_HOLDER
.Ltmp124:
	.cc_bottom BCD_To_Bin_8.function
	.set	BCD_To_Bin_8.nstackwords,0
	.globl	BCD_To_Bin_8.nstackwords
	.set	BCD_To_Bin_8.maxcores,1
	.globl	BCD_To_Bin_8.maxcores
	.set	BCD_To_Bin_8.maxtimers,0
	.globl	BCD_To_Bin_8.maxtimers
	.set	BCD_To_Bin_8.maxchanends,0
	.globl	BCD_To_Bin_8.maxchanends
.Ltmp125:
	.size	BCD_To_Bin_8, .Ltmp125-BCD_To_Bin_8
.Lfunc_end10:
	.cfi_endproc

	.section	.cp.rodata.cst4,"aMc",@progbits,4
	.cc_top .LCPI11_0.data,.LCPI11_0
	.align	4
	.type	.LCPI11_0,@object
	.size	.LCPI11_0, 4
.LCPI11_0:
	.long	3435973837
	.cc_bottom .LCPI11_0.data
	.text
	.globl	Bin_To_BCD_8
	.align	4
	.type	Bin_To_BCD_8,@function
	.cc_top Bin_To_BCD_8.function,Bin_To_BCD_8
Bin_To_BCD_8:
.Lfunc_begin11:
	.loc	1 374 0
	.cfi_startproc
.Lxtalabel24:
	ldc r1, 0
	ldw r2, cp[.LCPI11_0]
	.loc	1 375 5 prologue_end
.Ltmp126:
	lmul r1, r2, r0, r2, r1, r1
	shr r1, r1, 3
	ldc r2, 6
	.loc	1 375 5
	mul r1, r1, r2
	.loc	1 375 5
	add r0, r1, r0
.Ltmp127:
	zext r0, 8
	retsp 0
	# RETURN_REG_HOLDER
.Ltmp128:
	.cc_bottom Bin_To_BCD_8.function
	.set	Bin_To_BCD_8.nstackwords,0
	.globl	Bin_To_BCD_8.nstackwords
	.set	Bin_To_BCD_8.maxcores,1
	.globl	Bin_To_BCD_8.maxcores
	.set	Bin_To_BCD_8.maxtimers,0
	.globl	Bin_To_BCD_8.maxtimers
	.set	Bin_To_BCD_8.maxchanends,0
	.globl	Bin_To_BCD_8.maxchanends
.Ltmp129:
	.size	Bin_To_BCD_8, .Ltmp129-Bin_To_BCD_8
.Lfunc_end11:
	.cfi_endproc

	.section	.cp.rodata.cst4,"aMc",@progbits,4
	.cc_top .LCPI12_0.data,.LCPI12_0
	.align	4
	.type	.LCPI12_0,@object
	.size	.LCPI12_0, 4
.LCPI12_0:
	.long	4294967253
	.cc_bottom .LCPI12_0.data
	.text
	.globl	Init_Arithmetic_Mean_Temp_OnetenthDegC
	.align	4
	.type	Init_Arithmetic_Mean_Temp_OnetenthDegC,@function
	.cc_top Init_Arithmetic_Mean_Temp_OnetenthDegC.function,Init_Arithmetic_Mean_Temp_OnetenthDegC
Init_Arithmetic_Mean_Temp_OnetenthDegC:
.Lfunc_begin12:
	.loc	1 53 0
	.cfi_startproc
.Lxtalabel25:
	extsp 4
.Ltmp130:
	.cfi_def_cfa_offset 16
	stw r4, sp[3]
.Ltmp131:
	.cfi_offset 4, -4
	stw r5, sp[2]
.Ltmp132:
	.cfi_offset 5, -8
	stw r6, sp[1]
.Ltmp133:
	.cfi_offset 6, -12
	stw r7, sp[0]
.Ltmp134:
	.cfi_offset 7, -16
.Ltmp135:
	.loc	1 58 0 prologue_end
	sub r2, r0, r2
	.loc	1 55 0
.Ltmp136:
	bf r1, .LBB12_1
.Ltmp137:
	ldc r11, 43
	.loc	1 56 0
	lsu r6, r3, r11
	ldw r11, cp[.LCPI12_0]
	.loc	1 56 0
	add r11, r3, r11
	ldc r4, 0
	.loc	1 56 0
	mov r5, r4
	bt r6, .LBB12_7
.Ltmp138:
	mov r5, r11
.Ltmp139:
.LBB12_7:
	.loc	1 56 0
	lsu r5, r2, r5
.Ltrap_info0:
	ecallf r5
	ldc r6, 8
	ldc r5, 0
.Ltmp140:
.LBB12_8:
.Lxtalabel26:
	.loc	1 56 0
	lsu r7, r4, r6
.Ltrap_info1:
	ecallf r7
	.loc	1 56 0
	stw r5, r0[r4]
	.loc	1 55 0
	add r4, r4, 1
.Ltmp141:
	.loc	1 55 0
	lsu r7, r4, r1
.Lxta.loop_labels0:
	# LOOPMARKER 0
	bt r7, .LBB12_8
	bu .LBB12_2
.Ltmp142:
.LBB12_1:
	ldw r1, cp[.LCPI12_0]
	.loc	1 58 0
	add r11, r3, r1
.LBB12_2:
.Lxtalabel27:
	ldc r1, 43
	.loc	1 58 0
	lsu r1, r3, r1
	bf r1, .LBB12_4
	ldc r11, 0
.LBB12_4:
.Lxtalabel28:
	.loc	1 58 0
	lsu r1, r2, r11
.Ltrap_info2:
	ecallf r1
	ldc r1, 0
	.loc	1 58 0
	stw r1, r0[8]
	.loc	1 59 0
	stw r1, r0[9]
	.loc	1 60 0
	stw r1, r0[10]
	ldw r7, sp[0]
	ldw r6, sp[1]
	ldw r5, sp[2]
	ldw r4, sp[3]
	ldaw sp, sp[4]
	retsp 0
	# RETURN_REG_HOLDER
.Ltmp143:
	.cc_bottom Init_Arithmetic_Mean_Temp_OnetenthDegC.function
	.set	Init_Arithmetic_Mean_Temp_OnetenthDegC.nstackwords,4
	.globl	Init_Arithmetic_Mean_Temp_OnetenthDegC.nstackwords
	.set	Init_Arithmetic_Mean_Temp_OnetenthDegC.maxcores,1
	.globl	Init_Arithmetic_Mean_Temp_OnetenthDegC.maxcores
	.set	Init_Arithmetic_Mean_Temp_OnetenthDegC.maxtimers,0
	.globl	Init_Arithmetic_Mean_Temp_OnetenthDegC.maxtimers
	.set	Init_Arithmetic_Mean_Temp_OnetenthDegC.maxchanends,0
	.globl	Init_Arithmetic_Mean_Temp_OnetenthDegC.maxchanends
.Ltmp144:
	.size	Init_Arithmetic_Mean_Temp_OnetenthDegC, .Ltmp144-Init_Arithmetic_Mean_Temp_OnetenthDegC
.Lfunc_end12:
	.cfi_endproc

	.section	.cp.rodata.cst4,"aMc",@progbits,4
	.cc_top .LCPI13_0.data,.LCPI13_0
	.align	4
	.type	.LCPI13_0,@object
	.size	.LCPI13_0, 4
.LCPI13_0:
	.long	4294967253
	.cc_bottom .LCPI13_0.data
	.cc_top .LCPI13_1.data,.LCPI13_1
	.align	4
	.type	.LCPI13_1,@object
	.size	.LCPI13_1, 4
.LCPI13_1:
	.long	2147483647
	.cc_bottom .LCPI13_1.data
	.cc_top .LCPI13_2.data,.LCPI13_2
	.align	4
	.type	.LCPI13_2,@object
	.size	.LCPI13_2, 4
.LCPI13_2:
	.long	2147483648
	.cc_bottom .LCPI13_2.data
	.text
	.globl	Do_Arithmetic_Mean_Temp_OnetenthDegC
	.align	4
	.type	Do_Arithmetic_Mean_Temp_OnetenthDegC,@function
	.cc_top Do_Arithmetic_Mean_Temp_OnetenthDegC.function,Do_Arithmetic_Mean_Temp_OnetenthDegC
Do_Arithmetic_Mean_Temp_OnetenthDegC:
.Lfunc_begin13:
	.loc	1 91 0
	.cfi_startproc
.Lxtalabel29:
	extsp 7
.Ltmp145:
	.cfi_def_cfa_offset 28
	stw r4, sp[6]
.Ltmp146:
	.cfi_offset 4, -4
	stw r5, sp[5]
.Ltmp147:
	.cfi_offset 5, -8
	stw r6, sp[4]
.Ltmp148:
	.cfi_offset 6, -12
	stw r7, sp[3]
.Ltmp149:
	.cfi_offset 7, -16
	stw r8, sp[2]
.Ltmp150:
	.cfi_offset 8, -20
	stw r9, sp[1]
.Ltmp151:
	.cfi_offset 9, -24
	stw r10, sp[0]
.Ltmp152:
	.cfi_offset 10, -28
.Ltmp153:
	ldw r11, sp[9]
	ldw r3, sp[8]
.Ltmp154:
	.loc	1 103 0 prologue_end
	sub r3, r0, r3
	ldc r4, 43
	.loc	1 103 0
	lsu r4, r11, r4
	.loc	1 103 0
	bt r4, .LBB13_1
.Ltmp155:
.Lxtalabel30:
	ldw r4, cp[.LCPI13_0]
	.loc	1 103 0
	add r11, r11, r4
	bu .LBB13_3
.Ltmp156:
.LBB13_1:
	ldc r11, 0
.Ltmp157:
.LBB13_3:
.Lxtalabel31:
	.loc	1 103 0
	lsu r3, r3, r11
.Ltmp158:
.Ltrap_info3:
	ecallf r3
.Ltmp159:
	.loc	1 103 0
	ldw r3, r0[8]
.Ltmp160:
	ldc r11, 8
	.loc	1 103 0
	lsu r11, r3, r11
.Ltrap_info4:
	ecallf r11
.Ltmp161:
	.loc	1 103 0
	stw r2, r0[r3]
	.loc	1 104 0
	ldw r2, r0[8]
.Ltmp162:
	.loc	1 104 0
	add r2, r2, 1
	.loc	1 104 0
	remu r2, r2, r1
	.loc	1 104 0
	stw r2, r0[8]
	.loc	1 107 5
	ldw r2, r0[9]
	.loc	1 107 5
	lsu r3, r2, r1
.Ltmp163:
	.loc	1 107 5
	bf r3, .LBB13_4
.Ltmp164:
.Lxtalabel32:
	.loc	1 108 0
	add r1, r2, 1
.Ltmp165:
	.loc	1 108 0
	stw r1, r0[9]
	mkmsk r2, 32
	mov r11, r2
	bu .LBB13_8
.Ltmp166:
.LBB13_4:
.Lxtalabel33:
	ldc r3, 0
.Ltmp167:
	bf r1, .LBB13_5
.Ltmp168:
	ldw r5, cp[.LCPI13_1]
	mkmsk r7, 32
	ldw r9, cp[.LCPI13_2]
	mov r6, r7
.Ltmp169:
.LBB13_11:
.Lxtalabel34:
	mkmsk r2, 3
	.loc	1 116 0
.Ltmp170:
	lsu r2, r2, r3
.Ltrap_info5:
	ecallt r2
	.loc	1 116 0
	ldw r8, r0[r3]
.Ltmp171:
	.loc	1 118 13
	lss r11, r9, r8
	.loc	1 118 13
	mov r10, r8
	bt r11, .LBB13_13
.Ltmp172:
.Lxtalabel35:
	mov r10, r9
.Ltmp173:
.LBB13_13:
.Lxtalabel36:
	.loc	1 118 13
	mov r2, r3
	bt r11, .LBB13_15
.Ltmp174:
.Lxtalabel37:
	mov r2, r7
.Ltmp175:
.LBB13_15:
.Lxtalabel38:
	.loc	1 123 13
	lss r7, r8, r5
	bt r7, .LBB13_17
.Ltmp176:
.Lxtalabel39:
	.loc	1 123 13
	mov r8, r5
.Ltmp177:
.LBB13_17:
.Lxtalabel40:
	.loc	1 123 13
	mov r11, r3
	bt r7, .LBB13_19
.Ltmp178:
.Lxtalabel41:
	mov r11, r6
.Ltmp179:
.LBB13_19:
.Lxtalabel42:
	.loc	1 114 0
	add r3, r3, 1
.Ltmp180:
	.loc	1 114 0
	lsu r4, r3, r1
.Lxta.loop_labels1:
	# LOOPMARKER 0
	mov r9, r10
	mov r7, r2
	mov r5, r8
	mov r6, r11
	bt r4, .LBB13_11
.Ltmp181:
.LBB13_8:
.Lxtalabel43:
	ldc r4, 0
	.loc	1 136 0
.Ltmp182:
	bf r1, .LBB13_9
.Ltmp183:
	mkmsk r3, 3
.Ltmp184:
	mov r5, r4
	mov r6, r4
.LBB13_21:
.Lxtalabel44:
.Ltmp185:
	.loc	1 138 9
	eq r7, r2, r6
	bf r7, .LBB13_23
.Ltmp186:
.Lxtalabel45:
	.loc	1 140 0
	add r4, r4, 1
.Ltmp187:
	bu .LBB13_26
.Ltmp188:
.LBB13_23:
	.loc	1 141 16
	eq r7, r11, r6
	bf r7, .LBB13_25
.Ltmp189:
.Lxtalabel46:
	.loc	1 143 0
	add r4, r4, 1
.Ltmp190:
	bu .LBB13_26
.Ltmp191:
.LBB13_25:
.Lxtalabel47:
	.loc	1 145 0
	lsu r7, r3, r6
.Ltrap_info6:
	ecallt r7
	.loc	1 145 0
	ldw r7, r0[r6]
	.loc	1 145 0
	add r5, r7, r5
.Ltmp192:
.LBB13_26:
.Lxtalabel48:
	.loc	1 136 0
	add r6, r6, 1
.Ltmp193:
	.loc	1 136 0
	lsu r7, r6, r1
.Lxta.loop_labels2:
	# LOOPMARKER 1
	bt r7, .LBB13_21
.Ltmp194:
	mov r3, r1
.Ltmp195:
	bu .LBB13_6
.LBB13_9:
.Ltmp196:
	mov r3, r4
.Ltmp197:
	mov r5, r4
	bu .LBB13_6
.LBB13_5:
.Ltmp198:
	mov r4, r3
	mov r5, r3
.Ltmp199:
.LBB13_6:
.Lxtalabel49:
	.loc	1 150 0
	sub r0, r3, r4
	.loc	1 150 0
	divu r0, r5, r0
.Ltmp200:
	ldw r10, sp[0]
	ldw r9, sp[1]
	ldw r8, sp[2]
	ldw r7, sp[3]
	ldw r6, sp[4]
	ldw r5, sp[5]
	ldw r4, sp[6]
	ldaw sp, sp[7]
	retsp 0
	# RETURN_REG_HOLDER
.Ltmp201:
	.cc_bottom Do_Arithmetic_Mean_Temp_OnetenthDegC.function
	.set	Do_Arithmetic_Mean_Temp_OnetenthDegC.nstackwords,7
	.globl	Do_Arithmetic_Mean_Temp_OnetenthDegC.nstackwords
	.set	Do_Arithmetic_Mean_Temp_OnetenthDegC.maxcores,1
	.globl	Do_Arithmetic_Mean_Temp_OnetenthDegC.maxcores
	.set	Do_Arithmetic_Mean_Temp_OnetenthDegC.maxtimers,0
	.globl	Do_Arithmetic_Mean_Temp_OnetenthDegC.maxtimers
	.set	Do_Arithmetic_Mean_Temp_OnetenthDegC.maxchanends,0
	.globl	Do_Arithmetic_Mean_Temp_OnetenthDegC.maxchanends
.Ltmp202:
	.size	Do_Arithmetic_Mean_Temp_OnetenthDegC, .Ltmp202-Do_Arithmetic_Mean_Temp_OnetenthDegC
.Lfunc_end13:
	.cfi_endproc

	.section	.cp.rodata,"ac",@progbits
	.cc_top .str41.data,.str41
	.align	4
	.type	.str41,@object
	.size	.str41, 10
.str41:
.asciiz"%02u.%01u"
	.cc_bottom .str41.data
	.cc_top .str47.data,.str47
	.align	4
	.type	.str47,@object
	.size	.str47, 10
.str47:
.asciiz"%02u.%01u"
	.cc_bottom .str47.data
	.section	.cp.rodata.string,"aMSc",@progbits
	.cc_top .str48.data,.str48
	.align	4
	.type	.str48,@object
	.size	.str48, 5
.str48:
.asciiz"Feil"
	.cc_bottom .str48.data
	.section	.cp.rodata,"ac",@progbits
	.cc_top .str53.data,.str53
	.align	4
	.type	.str53,@object
	.size	.str53, 5
.str53:
.asciiz"%02u"
	.cc_bottom .str53.data
	.section	.cp.rodata.string,"aMSc",@progbits
	.cc_top .str54.data,.str54
	.align	4
	.type	.str54,@object
	.size	.str54, 3
.str54:
.asciiz"??"
	.space	1
	.cc_bottom .str54.data
	.section	.cp.rodata,"ac",@progbits
	.cc_top .str59.data,.str59
	.align	4
	.type	.str59,@object
	.size	.str59, 10
.str59:
.asciiz"%02u.%01u"
	.cc_bottom .str59.data
	.section	.cp.rodata.string,"aMSc",@progbits
	.cc_top .str60.data,.str60
	.align	4
	.type	.str60,@object
	.size	.str60, 5
.str60:
.asciiz"??.?"
	.cc_bottom .str60.data
	.cc_top .Lstr.data,.Lstr
	.align	4
	.type	.Lstr,@object
	.size	.Lstr, 9
.Lstr:
.asciiz"\nCRASH!\n"
	.cc_bottom .Lstr.data
	.text
.Ldebug_end0:
	.file	2 "/Applications/XMOS_xTIMEcomposer_Community_14.2.4/target/include/timer.h"
	.file	3 "/Applications/XMOS_xTIMEcomposer_Community_14.2.4/target/include/xc/safe/string.h"
	.section	.xtacalltable,"",@progbits
.Lentries_start0:
	.long	.Lentries_end1-.Lentries_start0
	.long	0
	.ascii	"/Users/teig/workspace/_Aquarium_1_x/.build"
	.byte	0
.cc_top cc_0,.Lxta.call_labels0
	.ascii	"../src/f_conversions.xc"
	.byte	0
	.long	201
	.long	.Lxta.call_labels0
.cc_bottom cc_0
.cc_top cc_1,.Lxta.call_labels1
	.ascii	"../src/f_conversions.xc"
	.byte	0
	.long	248
	.long	.Lxta.call_labels1
.cc_bottom cc_1
.cc_top cc_2,.Lxta.call_labels2
	.ascii	"../src/f_conversions.xc"
	.byte	0
	.long	298
	.long	.Lxta.call_labels2
.cc_bottom cc_2
.cc_top cc_3,.Lxta.call_labels3
	.ascii	"../src/f_conversions.xc"
	.byte	0
	.long	352
	.long	.Lxta.call_labels3
.cc_bottom cc_3
.Lentries_end1:
	.section	.xtalabeltable,"",@progbits
.Lentries_start2:
	.long	.Lentries_end3-.Lentries_start2
	.long	0
	.ascii	"/Users/teig/workspace/_Aquarium_1_x/.build"
	.byte	0
.cc_top cc_4,.Lxtalabel0
	.ascii	"../src/f_conversions.xc"
	.byte	0
	.long	28
	.long	34
	.long	.Lxtalabel0
.cc_bottom cc_4
.cc_top cc_5,.Lxtalabel1
	.ascii	"../src/f_conversions.xc"
	.byte	0
	.long	37
	.long	37
	.long	.Lxtalabel1
.cc_bottom cc_5
.cc_top cc_6,.Lxtalabel1
	.ascii	"../src/f_conversions.xc"
	.byte	0
	.long	39
	.long	42
	.long	.Lxtalabel1
.cc_bottom cc_6
.cc_top cc_7,.Lxtalabel25
	.ascii	"../src/f_conversions.xc"
	.byte	0
	.long	55
	.long	55
	.long	.Lxtalabel25
.cc_bottom cc_7
.cc_top cc_8,.Lxtalabel26
	.ascii	"../src/f_conversions.xc"
	.byte	0
	.long	56
	.long	57
	.long	.Lxtalabel26
.cc_bottom cc_8
.cc_top cc_9,.Lxtalabel27
	.ascii	"../src/f_conversions.xc"
	.byte	0
	.long	58
	.long	61
	.long	.Lxtalabel27
.cc_bottom cc_9
.cc_top cc_10,.Lxtalabel28
	.ascii	"../src/f_conversions.xc"
	.byte	0
	.long	58
	.long	61
	.long	.Lxtalabel28
.cc_bottom cc_10
.cc_top cc_11,.Lxtalabel29
	.ascii	"../src/f_conversions.xc"
	.byte	0
	.long	93
	.long	100
	.long	.Lxtalabel29
.cc_bottom cc_11
.cc_top cc_12,.Lxtalabel30
	.ascii	"../src/f_conversions.xc"
	.byte	0
	.long	93
	.long	100
	.long	.Lxtalabel30
.cc_bottom cc_12
.cc_top cc_13,.Lxtalabel31
	.ascii	"../src/f_conversions.xc"
	.byte	0
	.long	93
	.long	100
	.long	.Lxtalabel31
.cc_bottom cc_13
.cc_top cc_14,.Lxtalabel29
	.ascii	"../src/f_conversions.xc"
	.byte	0
	.long	103
	.long	104
	.long	.Lxtalabel29
.cc_bottom cc_14
.cc_top cc_15,.Lxtalabel30
	.ascii	"../src/f_conversions.xc"
	.byte	0
	.long	103
	.long	104
	.long	.Lxtalabel30
.cc_bottom cc_15
.cc_top cc_16,.Lxtalabel31
	.ascii	"../src/f_conversions.xc"
	.byte	0
	.long	103
	.long	104
	.long	.Lxtalabel31
.cc_bottom cc_16
.cc_top cc_17,.Lxtalabel31
	.ascii	"../src/f_conversions.xc"
	.byte	0
	.long	107
	.long	107
	.long	.Lxtalabel31
.cc_bottom cc_17
.cc_top cc_18,.Lxtalabel29
	.ascii	"../src/f_conversions.xc"
	.byte	0
	.long	107
	.long	107
	.long	.Lxtalabel29
.cc_bottom cc_18
.cc_top cc_19,.Lxtalabel30
	.ascii	"../src/f_conversions.xc"
	.byte	0
	.long	107
	.long	107
	.long	.Lxtalabel30
.cc_bottom cc_19
.cc_top cc_20,.Lxtalabel32
	.ascii	"../src/f_conversions.xc"
	.byte	0
	.long	108
	.long	110
	.long	.Lxtalabel32
.cc_bottom cc_20
.cc_top cc_21,.Lxtalabel33
	.ascii	"../src/f_conversions.xc"
	.byte	0
	.long	111
	.long	111
	.long	.Lxtalabel33
.cc_bottom cc_21
.cc_top cc_22,.Lxtalabel33
	.ascii	"../src/f_conversions.xc"
	.byte	0
	.long	114
	.long	114
	.long	.Lxtalabel33
.cc_bottom cc_22
.cc_top cc_23,.Lxtalabel34
	.ascii	"../src/f_conversions.xc"
	.byte	0
	.long	116
	.long	116
	.long	.Lxtalabel34
.cc_bottom cc_23
.cc_top cc_24,.Lxtalabel34
	.ascii	"../src/f_conversions.xc"
	.byte	0
	.long	118
	.long	118
	.long	.Lxtalabel34
.cc_bottom cc_24
.cc_top cc_25,.Lxtalabel39
	.ascii	"../src/f_conversions.xc"
	.byte	0
	.long	119
	.long	121
	.long	.Lxtalabel39
.cc_bottom cc_25
.cc_top cc_26,.Lxtalabel41
	.ascii	"../src/f_conversions.xc"
	.byte	0
	.long	119
	.long	121
	.long	.Lxtalabel41
.cc_bottom cc_26
.cc_top cc_27,.Lxtalabel35
	.ascii	"../src/f_conversions.xc"
	.byte	0
	.long	119
	.long	121
	.long	.Lxtalabel35
.cc_bottom cc_27
.cc_top cc_28,.Lxtalabel38
	.ascii	"../src/f_conversions.xc"
	.byte	0
	.long	119
	.long	121
	.long	.Lxtalabel38
.cc_bottom cc_28
.cc_top cc_29,.Lxtalabel42
	.ascii	"../src/f_conversions.xc"
	.byte	0
	.long	119
	.long	121
	.long	.Lxtalabel42
.cc_bottom cc_29
.cc_top cc_30,.Lxtalabel40
	.ascii	"../src/f_conversions.xc"
	.byte	0
	.long	119
	.long	121
	.long	.Lxtalabel40
.cc_bottom cc_30
.cc_top cc_31,.Lxtalabel37
	.ascii	"../src/f_conversions.xc"
	.byte	0
	.long	119
	.long	121
	.long	.Lxtalabel37
.cc_bottom cc_31
.cc_top cc_32,.Lxtalabel36
	.ascii	"../src/f_conversions.xc"
	.byte	0
	.long	119
	.long	121
	.long	.Lxtalabel36
.cc_bottom cc_32
.cc_top cc_33,.Lxtalabel36
	.ascii	"../src/f_conversions.xc"
	.byte	0
	.long	123
	.long	123
	.long	.Lxtalabel36
.cc_bottom cc_33
.cc_top cc_34,.Lxtalabel38
	.ascii	"../src/f_conversions.xc"
	.byte	0
	.long	123
	.long	123
	.long	.Lxtalabel38
.cc_bottom cc_34
.cc_top cc_35,.Lxtalabel37
	.ascii	"../src/f_conversions.xc"
	.byte	0
	.long	123
	.long	123
	.long	.Lxtalabel37
.cc_bottom cc_35
.cc_top cc_36,.Lxtalabel35
	.ascii	"../src/f_conversions.xc"
	.byte	0
	.long	123
	.long	123
	.long	.Lxtalabel35
.cc_bottom cc_36
.cc_top cc_37,.Lxtalabel40
	.ascii	"../src/f_conversions.xc"
	.byte	0
	.long	123
	.long	123
	.long	.Lxtalabel40
.cc_bottom cc_37
.cc_top cc_38,.Lxtalabel41
	.ascii	"../src/f_conversions.xc"
	.byte	0
	.long	123
	.long	123
	.long	.Lxtalabel41
.cc_bottom cc_38
.cc_top cc_39,.Lxtalabel42
	.ascii	"../src/f_conversions.xc"
	.byte	0
	.long	123
	.long	123
	.long	.Lxtalabel42
.cc_bottom cc_39
.cc_top cc_40,.Lxtalabel39
	.ascii	"../src/f_conversions.xc"
	.byte	0
	.long	123
	.long	123
	.long	.Lxtalabel39
.cc_bottom cc_40
.cc_top cc_41,.Lxtalabel35
	.ascii	"../src/f_conversions.xc"
	.byte	0
	.long	127
	.long	127
	.long	.Lxtalabel35
.cc_bottom cc_41
.cc_top cc_42,.Lxtalabel41
	.ascii	"../src/f_conversions.xc"
	.byte	0
	.long	127
	.long	127
	.long	.Lxtalabel41
.cc_bottom cc_42
.cc_top cc_43,.Lxtalabel36
	.ascii	"../src/f_conversions.xc"
	.byte	0
	.long	127
	.long	127
	.long	.Lxtalabel36
.cc_bottom cc_43
.cc_top cc_44,.Lxtalabel42
	.ascii	"../src/f_conversions.xc"
	.byte	0
	.long	127
	.long	127
	.long	.Lxtalabel42
.cc_bottom cc_44
.cc_top cc_45,.Lxtalabel37
	.ascii	"../src/f_conversions.xc"
	.byte	0
	.long	127
	.long	127
	.long	.Lxtalabel37
.cc_bottom cc_45
.cc_top cc_46,.Lxtalabel38
	.ascii	"../src/f_conversions.xc"
	.byte	0
	.long	127
	.long	127
	.long	.Lxtalabel38
.cc_bottom cc_46
.cc_top cc_47,.Lxtalabel39
	.ascii	"../src/f_conversions.xc"
	.byte	0
	.long	127
	.long	127
	.long	.Lxtalabel39
.cc_bottom cc_47
.cc_top cc_48,.Lxtalabel40
	.ascii	"../src/f_conversions.xc"
	.byte	0
	.long	127
	.long	127
	.long	.Lxtalabel40
.cc_bottom cc_48
.cc_top cc_49,.Lxtalabel33
	.ascii	"../src/f_conversions.xc"
	.byte	0
	.long	136
	.long	136
	.long	.Lxtalabel33
.cc_bottom cc_49
.cc_top cc_50,.Lxtalabel43
	.ascii	"../src/f_conversions.xc"
	.byte	0
	.long	136
	.long	136
	.long	.Lxtalabel43
.cc_bottom cc_50
.cc_top cc_51,.Lxtalabel44
	.ascii	"../src/f_conversions.xc"
	.byte	0
	.long	138
	.long	138
	.long	.Lxtalabel44
.cc_bottom cc_51
.cc_top cc_52,.Lxtalabel45
	.ascii	"../src/f_conversions.xc"
	.byte	0
	.long	140
	.long	141
	.long	.Lxtalabel45
.cc_bottom cc_52
.cc_top cc_53,.Lxtalabel46
	.ascii	"../src/f_conversions.xc"
	.byte	0
	.long	143
	.long	144
	.long	.Lxtalabel46
.cc_bottom cc_53
.cc_top cc_54,.Lxtalabel47
	.ascii	"../src/f_conversions.xc"
	.byte	0
	.long	145
	.long	146
	.long	.Lxtalabel47
.cc_bottom cc_54
.cc_top cc_55,.Lxtalabel48
	.ascii	"../src/f_conversions.xc"
	.byte	0
	.long	147
	.long	147
	.long	.Lxtalabel48
.cc_bottom cc_55
.cc_top cc_56,.Lxtalabel49
	.ascii	"../src/f_conversions.xc"
	.byte	0
	.long	150
	.long	150
	.long	.Lxtalabel49
.cc_bottom cc_56
.cc_top cc_57,.Lxtalabel49
	.ascii	"../src/f_conversions.xc"
	.byte	0
	.long	180
	.long	181
	.long	.Lxtalabel49
.cc_bottom cc_57
.cc_top cc_58,.Lxtalabel2
	.ascii	"../src/f_conversions.xc"
	.byte	0
	.long	190
	.long	191
	.long	.Lxtalabel2
.cc_bottom cc_58
.cc_top cc_59,.Lxtalabel2
	.ascii	"../src/f_conversions.xc"
	.byte	0
	.long	193
	.long	193
	.long	.Lxtalabel2
.cc_bottom cc_59
.cc_top cc_60,.Lxtalabel2
	.ascii	"../src/f_conversions.xc"
	.byte	0
	.long	195
	.long	196
	.long	.Lxtalabel2
.cc_bottom cc_60
.cc_top cc_61,.Lxtalabel2
	.ascii	"../src/f_conversions.xc"
	.byte	0
	.long	198
	.long	199
	.long	.Lxtalabel2
.cc_bottom cc_61
.cc_top cc_62,.Lxtalabel2
	.ascii	"../src/f_conversions.xc"
	.byte	0
	.long	201
	.long	203
	.long	.Lxtalabel2
.cc_bottom cc_62
.cc_top cc_63,.Lxtalabel2
	.ascii	"../src/f_conversions.xc"
	.byte	0
	.long	205
	.long	205
	.long	.Lxtalabel2
.cc_bottom cc_63
.cc_top cc_64,.Lxtalabel3
	.ascii	"../src/f_conversions.xc"
	.byte	0
	.long	206
	.long	206
	.long	.Lxtalabel3
.cc_bottom cc_64
.cc_top cc_65,.Lxtalabel3
	.ascii	"../src/f_conversions.xc"
	.byte	0
	.long	207
	.long	207
	.long	.Lxtalabel3
.cc_bottom cc_65
.cc_top cc_66,.Lxtalabel3
	.ascii	"../src/f_conversions.xc"
	.byte	0
	.long	208
	.long	209
	.long	.Lxtalabel3
.cc_bottom cc_66
.cc_top cc_67,.Lxtalabel4
	.ascii	"../src/f_conversions.xc"
	.byte	0
	.long	211
	.long	212
	.long	.Lxtalabel4
.cc_bottom cc_67
.cc_top cc_68,.Lxtalabel5
	.ascii	"../src/f_conversions.xc"
	.byte	0
	.long	234
	.long	234
	.long	.Lxtalabel5
.cc_bottom cc_68
.cc_top cc_69,.Lxtalabel5
	.ascii	"../src/f_conversions.xc"
	.byte	0
	.long	238
	.long	239
	.long	.Lxtalabel5
.cc_bottom cc_69
.cc_top cc_70,.Lxtalabel5
	.ascii	"../src/f_conversions.xc"
	.byte	0
	.long	242
	.long	243
	.long	.Lxtalabel5
.cc_bottom cc_70
.cc_top cc_71,.Lxtalabel5
	.ascii	"../src/f_conversions.xc"
	.byte	0
	.long	245
	.long	246
	.long	.Lxtalabel5
.cc_bottom cc_71
.cc_top cc_72,.Lxtalabel5
	.ascii	"../src/f_conversions.xc"
	.byte	0
	.long	248
	.long	250
	.long	.Lxtalabel5
.cc_bottom cc_72
.cc_top cc_73,.Lxtalabel5
	.ascii	"../src/f_conversions.xc"
	.byte	0
	.long	252
	.long	252
	.long	.Lxtalabel5
.cc_bottom cc_73
.cc_top cc_74,.Lxtalabel6
	.ascii	"../src/f_conversions.xc"
	.byte	0
	.long	253
	.long	253
	.long	.Lxtalabel6
.cc_bottom cc_74
.cc_top cc_75,.Lxtalabel6
	.ascii	"../src/f_conversions.xc"
	.byte	0
	.long	254
	.long	254
	.long	.Lxtalabel6
.cc_bottom cc_75
.cc_top cc_76,.Lxtalabel6
	.ascii	"../src/f_conversions.xc"
	.byte	0
	.long	255
	.long	256
	.long	.Lxtalabel6
.cc_bottom cc_76
.cc_top cc_77,.Lxtalabel7
	.ascii	"../src/f_conversions.xc"
	.byte	0
	.long	258
	.long	259
	.long	.Lxtalabel7
.cc_bottom cc_77
.cc_top cc_78,.Lxtalabel9
	.ascii	"../src/f_conversions.xc"
	.byte	0
	.long	276
	.long	277
	.long	.Lxtalabel9
.cc_bottom cc_78
.cc_top cc_79,.Lxtalabel8
	.ascii	"../src/f_conversions.xc"
	.byte	0
	.long	276
	.long	277
	.long	.Lxtalabel8
.cc_bottom cc_79
.cc_top cc_80,.Lxtalabel10
	.ascii	"../src/f_conversions.xc"
	.byte	0
	.long	276
	.long	277
	.long	.Lxtalabel10
.cc_bottom cc_80
.cc_top cc_81,.Lxtalabel8
	.ascii	"../src/f_conversions.xc"
	.byte	0
	.long	279
	.long	280
	.long	.Lxtalabel8
.cc_bottom cc_81
.cc_top cc_82,.Lxtalabel9
	.ascii	"../src/f_conversions.xc"
	.byte	0
	.long	279
	.long	280
	.long	.Lxtalabel9
.cc_bottom cc_82
.cc_top cc_83,.Lxtalabel10
	.ascii	"../src/f_conversions.xc"
	.byte	0
	.long	279
	.long	280
	.long	.Lxtalabel10
.cc_bottom cc_83
.cc_top cc_84,.Lxtalabel9
	.ascii	"../src/f_conversions.xc"
	.byte	0
	.long	295
	.long	295
	.long	.Lxtalabel9
.cc_bottom cc_84
.cc_top cc_85,.Lxtalabel10
	.ascii	"../src/f_conversions.xc"
	.byte	0
	.long	295
	.long	295
	.long	.Lxtalabel10
.cc_bottom cc_85
.cc_top cc_86,.Lxtalabel8
	.ascii	"../src/f_conversions.xc"
	.byte	0
	.long	295
	.long	295
	.long	.Lxtalabel8
.cc_bottom cc_86
.cc_top cc_87,.Lxtalabel8
	.ascii	"../src/f_conversions.xc"
	.byte	0
	.long	297
	.long	297
	.long	.Lxtalabel8
.cc_bottom cc_87
.cc_top cc_88,.Lxtalabel9
	.ascii	"../src/f_conversions.xc"
	.byte	0
	.long	297
	.long	297
	.long	.Lxtalabel9
.cc_bottom cc_88
.cc_top cc_89,.Lxtalabel10
	.ascii	"../src/f_conversions.xc"
	.byte	0
	.long	297
	.long	297
	.long	.Lxtalabel10
.cc_bottom cc_89
.cc_top cc_90,.Lxtalabel11
	.ascii	"../src/f_conversions.xc"
	.byte	0
	.long	298
	.long	300
	.long	.Lxtalabel11
.cc_bottom cc_90
.cc_top cc_91,.Lxtalabel11
	.ascii	"../src/f_conversions.xc"
	.byte	0
	.long	302
	.long	302
	.long	.Lxtalabel11
.cc_bottom cc_91
.cc_top cc_92,.Lxtalabel12
	.ascii	"../src/f_conversions.xc"
	.byte	0
	.long	303
	.long	303
	.long	.Lxtalabel12
.cc_bottom cc_92
.cc_top cc_93,.Lxtalabel12
	.ascii	"../src/f_conversions.xc"
	.byte	0
	.long	304
	.long	304
	.long	.Lxtalabel12
.cc_bottom cc_93
.cc_top cc_94,.Lxtalabel12
	.ascii	"../src/f_conversions.xc"
	.byte	0
	.long	305
	.long	306
	.long	.Lxtalabel12
.cc_bottom cc_94
.cc_top cc_95,.Lxtalabel15
	.ascii	"../src/f_conversions.xc"
	.byte	0
	.long	309
	.long	309
	.long	.Lxtalabel15
.cc_bottom cc_95
.cc_top cc_96,.Lxtalabel14
	.ascii	"../src/f_conversions.xc"
	.byte	0
	.long	309
	.long	309
	.long	.Lxtalabel14
.cc_bottom cc_96
.cc_top cc_97,.Lxtalabel13
	.ascii	"../src/f_conversions.xc"
	.byte	0
	.long	309
	.long	309
	.long	.Lxtalabel13
.cc_bottom cc_97
.cc_top cc_98,.Lxtalabel14
	.ascii	"../src/f_conversions.xc"
	.byte	0
	.long	310
	.long	311
	.long	.Lxtalabel14
.cc_bottom cc_98
.cc_top cc_99,.Lxtalabel15
	.ascii	"../src/f_conversions.xc"
	.byte	0
	.long	310
	.long	311
	.long	.Lxtalabel15
.cc_bottom cc_99
.cc_top cc_100,.Lxtalabel13
	.ascii	"../src/f_conversions.xc"
	.byte	0
	.long	310
	.long	311
	.long	.Lxtalabel13
.cc_bottom cc_100
.cc_top cc_101,.Lxtalabel13
	.ascii	"../src/f_conversions.xc"
	.byte	0
	.long	313
	.long	314
	.long	.Lxtalabel13
.cc_bottom cc_101
.cc_top cc_102,.Lxtalabel14
	.ascii	"../src/f_conversions.xc"
	.byte	0
	.long	313
	.long	314
	.long	.Lxtalabel14
.cc_bottom cc_102
.cc_top cc_103,.Lxtalabel15
	.ascii	"../src/f_conversions.xc"
	.byte	0
	.long	313
	.long	314
	.long	.Lxtalabel15
.cc_bottom cc_103
.cc_top cc_104,.Lxtalabel16
	.ascii	"../src/f_conversions.xc"
	.byte	0
	.long	334
	.long	334
	.long	.Lxtalabel16
.cc_bottom cc_104
.cc_top cc_105,.Lxtalabel18
	.ascii	"../src/f_conversions.xc"
	.byte	0
	.long	334
	.long	334
	.long	.Lxtalabel18
.cc_bottom cc_105
.cc_top cc_106,.Lxtalabel17
	.ascii	"../src/f_conversions.xc"
	.byte	0
	.long	334
	.long	334
	.long	.Lxtalabel17
.cc_bottom cc_106
.cc_top cc_107,.Lxtalabel18
	.ascii	"../src/f_conversions.xc"
	.byte	0
	.long	338
	.long	339
	.long	.Lxtalabel18
.cc_bottom cc_107
.cc_top cc_108,.Lxtalabel17
	.ascii	"../src/f_conversions.xc"
	.byte	0
	.long	338
	.long	339
	.long	.Lxtalabel17
.cc_bottom cc_108
.cc_top cc_109,.Lxtalabel16
	.ascii	"../src/f_conversions.xc"
	.byte	0
	.long	338
	.long	339
	.long	.Lxtalabel16
.cc_bottom cc_109
.cc_top cc_110,.Lxtalabel18
	.ascii	"../src/f_conversions.xc"
	.byte	0
	.long	341
	.long	342
	.long	.Lxtalabel18
.cc_bottom cc_110
.cc_top cc_111,.Lxtalabel16
	.ascii	"../src/f_conversions.xc"
	.byte	0
	.long	341
	.long	342
	.long	.Lxtalabel16
.cc_bottom cc_111
.cc_top cc_112,.Lxtalabel17
	.ascii	"../src/f_conversions.xc"
	.byte	0
	.long	341
	.long	342
	.long	.Lxtalabel17
.cc_bottom cc_112
.cc_top cc_113,.Lxtalabel16
	.ascii	"../src/f_conversions.xc"
	.byte	0
	.long	344
	.long	345
	.long	.Lxtalabel16
.cc_bottom cc_113
.cc_top cc_114,.Lxtalabel17
	.ascii	"../src/f_conversions.xc"
	.byte	0
	.long	344
	.long	345
	.long	.Lxtalabel17
.cc_bottom cc_114
.cc_top cc_115,.Lxtalabel18
	.ascii	"../src/f_conversions.xc"
	.byte	0
	.long	344
	.long	345
	.long	.Lxtalabel18
.cc_bottom cc_115
.cc_top cc_116,.Lxtalabel16
	.ascii	"../src/f_conversions.xc"
	.byte	0
	.long	347
	.long	347
	.long	.Lxtalabel16
.cc_bottom cc_116
.cc_top cc_117,.Lxtalabel17
	.ascii	"../src/f_conversions.xc"
	.byte	0
	.long	347
	.long	347
	.long	.Lxtalabel17
.cc_bottom cc_117
.cc_top cc_118,.Lxtalabel18
	.ascii	"../src/f_conversions.xc"
	.byte	0
	.long	347
	.long	347
	.long	.Lxtalabel18
.cc_bottom cc_118
.cc_top cc_119,.Lxtalabel16
	.ascii	"../src/f_conversions.xc"
	.byte	0
	.long	348
	.long	349
	.long	.Lxtalabel16
.cc_bottom cc_119
.cc_top cc_120,.Lxtalabel17
	.ascii	"../src/f_conversions.xc"
	.byte	0
	.long	348
	.long	349
	.long	.Lxtalabel17
.cc_bottom cc_120
.cc_top cc_121,.Lxtalabel18
	.ascii	"../src/f_conversions.xc"
	.byte	0
	.long	348
	.long	349
	.long	.Lxtalabel18
.cc_bottom cc_121
.cc_top cc_122,.Lxtalabel18
	.ascii	"../src/f_conversions.xc"
	.byte	0
	.long	351
	.long	351
	.long	.Lxtalabel18
.cc_bottom cc_122
.cc_top cc_123,.Lxtalabel17
	.ascii	"../src/f_conversions.xc"
	.byte	0
	.long	351
	.long	351
	.long	.Lxtalabel17
.cc_bottom cc_123
.cc_top cc_124,.Lxtalabel16
	.ascii	"../src/f_conversions.xc"
	.byte	0
	.long	351
	.long	351
	.long	.Lxtalabel16
.cc_bottom cc_124
.cc_top cc_125,.Lxtalabel19
	.ascii	"../src/f_conversions.xc"
	.byte	0
	.long	352
	.long	354
	.long	.Lxtalabel19
.cc_bottom cc_125
.cc_top cc_126,.Lxtalabel19
	.ascii	"../src/f_conversions.xc"
	.byte	0
	.long	356
	.long	356
	.long	.Lxtalabel19
.cc_bottom cc_126
.cc_top cc_127,.Lxtalabel20
	.ascii	"../src/f_conversions.xc"
	.byte	0
	.long	357
	.long	357
	.long	.Lxtalabel20
.cc_bottom cc_127
.cc_top cc_128,.Lxtalabel20
	.ascii	"../src/f_conversions.xc"
	.byte	0
	.long	358
	.long	358
	.long	.Lxtalabel20
.cc_bottom cc_128
.cc_top cc_129,.Lxtalabel20
	.ascii	"../src/f_conversions.xc"
	.byte	0
	.long	359
	.long	359
	.long	.Lxtalabel20
.cc_bottom cc_129
.cc_top cc_130,.Lxtalabel21
	.ascii	"../src/f_conversions.xc"
	.byte	0
	.long	362
	.long	363
	.long	.Lxtalabel21
.cc_bottom cc_130
.cc_top cc_131,.Lxtalabel22
	.ascii	"../src/f_conversions.xc"
	.byte	0
	.long	362
	.long	363
	.long	.Lxtalabel22
.cc_bottom cc_131
.cc_top cc_132,.Lxtalabel23
	.ascii	"../src/f_conversions.xc"
	.byte	0
	.long	369
	.long	371
	.long	.Lxtalabel23
.cc_bottom cc_132
.cc_top cc_133,.Lxtalabel24
	.ascii	"../src/f_conversions.xc"
	.byte	0
	.long	374
	.long	376
	.long	.Lxtalabel24
.cc_bottom cc_133
.Lentries_end3:
	.section	.xtalooplabeltable,"",@progbits
.Lentries_start4:
	.long	.Lentries_end5-.Lentries_start4
	.long	0
	.ascii	"/Users/teig/workspace/_Aquarium_1_x/.build"
	.byte	0
.cc_top cc_134,.Lxta.loop_labels0
	.ascii	"../src/f_conversions.xc"
	.byte	0
	.long	56
	.long	57
	.long	.Lxta.loop_labels0
.cc_bottom cc_134
.cc_top cc_135,.Lxta.loop_labels1
	.ascii	"../src/f_conversions.xc"
	.byte	0
	.long	116
	.long	116
	.long	.Lxta.loop_labels1
.cc_bottom cc_135
.cc_top cc_136,.Lxta.loop_labels1
	.ascii	"../src/f_conversions.xc"
	.byte	0
	.long	118
	.long	121
	.long	.Lxta.loop_labels1
.cc_bottom cc_136
.cc_top cc_137,.Lxta.loop_labels1
	.ascii	"../src/f_conversions.xc"
	.byte	0
	.long	123
	.long	127
	.long	.Lxta.loop_labels1
.cc_bottom cc_137
.cc_top cc_138,.Lxta.loop_labels2
	.ascii	"../src/f_conversions.xc"
	.byte	0
	.long	138
	.long	138
	.long	.Lxta.loop_labels2
.cc_bottom cc_138
.cc_top cc_139,.Lxta.loop_labels2
	.ascii	"../src/f_conversions.xc"
	.byte	0
	.long	140
	.long	141
	.long	.Lxta.loop_labels2
.cc_bottom cc_139
.cc_top cc_140,.Lxta.loop_labels2
	.ascii	"../src/f_conversions.xc"
	.byte	0
	.long	143
	.long	147
	.long	.Lxta.loop_labels2
.cc_bottom cc_140
.Lentries_end5:
	.section	.trap_info,"",@progbits
.Ltrap_info_entries_start0:
	.long	.Ltrap_info_entries_end0-.Ltrap_info_entries_start0
	.long	1
	.section	.trap_info_str,"MS",@progbits
.Ltrap_info_str0:
.asciiz"../src/f_conversions.xc:56:9: error: out of bounds array or pointer access\n        temps_onetenthDegC_mean_array_ptr->temps_onetenthDegC[index_of_array] = 0;\n        ^~~~~~~~~~~~~~~~~~~~~~~~~~~~~~~~~~~~~~~~~~~~~~~~~~~~~\n"
	.section	.trap_info,"",@progbits
.cc_top cc_trapinfo_0,.Ltrap_info0
	.long	.Ltrap_info0
	.long	.Ltrap_info_str0
.cc_bottom cc_trapinfo_0
	.section	.trap_info_str,"MS",@progbits
.Ltrap_info_str1:
.asciiz"../src/f_conversions.xc:56:9: error: out of bounds array access\n        temps_onetenthDegC_mean_array_ptr->temps_onetenthDegC[index_of_array] = 0;\n        ^~~~~~~~~~~~~~~~~~~~~~~~~~~~~~~~~~~~~~~~~~~~~~~~~~~~~~~~~~~~~~~~~~~~~\n"
	.section	.trap_info,"",@progbits
.cc_top cc_trapinfo_1,.Ltrap_info1
	.long	.Ltrap_info1
	.long	.Ltrap_info_str1
.cc_bottom cc_trapinfo_1
	.section	.trap_info_str,"MS",@progbits
.Ltrap_info_str2:
.asciiz"../src/f_conversions.xc:58:5: error: out of bounds array or pointer access\n    temps_onetenthDegC_mean_array_ptr->temps_index_next_to_write = 0;\n    ^~~~~~~~~~~~~~~~~~~~~~~~~~~~~~~~~~~~~~~~~~~~~~~~~~~~~~~~~~~~\n"
	.section	.trap_info,"",@progbits
.cc_top cc_trapinfo_2,.Ltrap_info2
	.long	.Ltrap_info2
	.long	.Ltrap_info_str2
.cc_bottom cc_trapinfo_2
	.section	.trap_info_str,"MS",@progbits
.Ltrap_info_str3:
.asciiz"../src/f_conversions.xc:103:5: error: out of bounds array or pointer access\n    temps_onetenthDegC_mean_array_ptr->temps_onetenthDegC[temps_onetenthDegC_mean_array_ptr->temps_index_next_to_write] = temps_onetenthDeg;\n    ^~~~~~~~~~~~~~~~~~~~~~~~~~~~~~~~~~~~~~~~~~~~~~~~~~~~~\n"
	.section	.trap_info,"",@progbits
.cc_top cc_trapinfo_3,.Ltrap_info3
	.long	.Ltrap_info3
	.long	.Ltrap_info_str3
.cc_bottom cc_trapinfo_3
	.section	.trap_info_str,"MS",@progbits
.Ltrap_info_str4:
.asciiz"../src/f_conversions.xc:103:5: error: out of bounds array access\n    temps_onetenthDegC_mean_array_ptr->temps_onetenthDegC[temps_onetenthDegC_mean_array_ptr->temps_index_next_to_write] = temps_onetenthDeg;\n    ^~~~~~~~~~~~~~~~~~~~~~~~~~~~~~~~~~~~~~~~~~~~~~~~~~~~~~~~~~~~~~~~~~~~~~~~~~~~~~~~~~~~~~~~~~~~~~~~~~~~~~~~~~~~~~~~~~~\n"
	.section	.trap_info,"",@progbits
.cc_top cc_trapinfo_4,.Ltrap_info4
	.long	.Ltrap_info4
	.long	.Ltrap_info_str4
.cc_bottom cc_trapinfo_4
	.section	.trap_info_str,"MS",@progbits
.Ltrap_info_str5:
.asciiz"../src/f_conversions.xc:116:41: error: out of bounds array access\n            temp_onetenthDegC_t value = temps_onetenthDegC_mean_array_ptr->temps_onetenthDegC[index_of_array];\n                                        ^~~~~~~~~~~~~~~~~~~~~~~~~~~~~~~~~~~~~~~~~~~~~~~~~~~~~~~~~~~~~~~~~~~~~\n"
	.section	.trap_info,"",@progbits
.cc_top cc_trapinfo_5,.Ltrap_info5
	.long	.Ltrap_info5
	.long	.Ltrap_info_str5
.cc_bottom cc_trapinfo_5
	.section	.trap_info_str,"MS",@progbits
.Ltrap_info_str6:
.asciiz"../src/f_conversions.xc:145:26: error: out of bounds array access\n            temps_sum += temps_onetenthDegC_mean_array_ptr->temps_onetenthDegC[index_of_array];\n                         ^~~~~~~~~~~~~~~~~~~~~~~~~~~~~~~~~~~~~~~~~~~~~~~~~~~~~~~~~~~~~~~~~~~~~\n"
	.section	.trap_info,"",@progbits
.cc_top cc_trapinfo_6,.Ltrap_info6
	.long	.Ltrap_info6
	.long	.Ltrap_info_str6
.cc_bottom cc_trapinfo_6
.Ltrap_info_entries_end0: