	.text
	.file	"/Users/teig/workspace/module_i2c_master/src/i2c-mm.xc"

	.inline_definition delay_seconds
	.inline_definition delay_milliseconds
	.inline_definition delay_microseconds
	.set usage.anon.0,0
	.set usage.anon.1,0
	.set usage.anon.2,0
	.set usage.anon.3,0
	.set usage.anon.4,0
	.set usage.anon.5,0
	.set usage.anon.6,0
	.set usage.anon.7,0
	.set usage.anon.8,0
	.set usage.anon.9,0
	.set usage.anon.10,0
	.call i2c_master_read_fram_id,usage.anon.9
	.call i2c_master_read_fram_id,usage.anon.8
	.call i2c_master_read_fram_id,usage.anon.6
	.call i2c_master_read_fram_id,usage.anon.3
	.call i2c_master_read_fram_id,usage.anon.10
	.call i2c_master_16bit_write_reg,usage.anon.9
	.call i2c_master_16bit_write_reg,usage.anon.8
	.call i2c_master_16bit_write_reg,usage.anon.7
	.call i2c_master_16bit_write_reg,usage.anon.6
	.call i2c_master_write_reg,usage.anon.9
	.call i2c_master_write_reg,usage.anon.8
	.call i2c_master_write_reg,usage.anon.7
	.call i2c_master_write_reg,usage.anon.6
	.call i2c_master_16bit_read_reg,usage.anon.9
	.call i2c_master_16bit_read_reg,usage.anon.8
	.call i2c_master_16bit_read_reg,usage.anon.6
	.call i2c_master_16bit_read_reg,usage.anon.3
	.call i2c_master_16bit_read_reg,usage.anon.10
	.call i2c_master_read_reg,usage.anon.9
	.call i2c_master_read_reg,usage.anon.8
	.call i2c_master_read_reg,usage.anon.6
	.call i2c_master_read_reg,usage.anon.3
	.call i2c_master_read_reg,usage.anon.10
	.call i2c_master_rx,usage.anon.6
	.call i2c_master_rx,usage.anon.10
	.call usage.anon.10,usage.anon.9
	.call usage.anon.10,usage.anon.8
	.call usage.anon.10,usage.anon.7
	.call usage.anon.10,usage.anon.5
	.call usage.anon.9,usage.anon.5
	.call usage.anon.8,usage.anon.3
	.call usage.anon.7,usage.anon.4
	.call usage.anon.7,usage.anon.3
	.call usage.anon.6,usage.anon.4
	.call usage.anon.6,usage.anon.3
	.call usage.anon.5,usage.anon.3
	.call usage.anon.4,usage.anon.3
	.call usage.anon.2,delay_ticks_longlong
	.call usage.anon.1,delay_ticks_longlong
	.call usage.anon.0,delay_ticks_longlong
	.set i2c_master_init.locnoside, 0
	.set usage.anon.3.locnoside, 0
	.set usage.anon.4.locnoside, 0
	.set usage.anon.5.locnoside, 0
	.set usage.anon.6.locnoside, 0
	.set usage.anon.7.locnoside, 0
	.set usage.anon.8.locnoside, 0
	.set usage.anon.9.locnoside, 0
	.set usage.anon.10.locnoside, 0
	.set i2c_master_rx.locnoside, 0
	.set i2c_master_read_reg.locnoside, 0
	.set i2c_master_16bit_read_reg.locnoside, 0
	.set i2c_master_write_reg.locnoside, 0
	.set i2c_master_16bit_write_reg.locnoside, 0
	.set i2c_master_read_fram_id.locnoside, 0


	.text
	.globl	i2c_master_init
	.align	4
	.type	i2c_master_init,@function
	.cc_top i2c_master_init.function,i2c_master_init
i2c_master_init:
.Lfunc_begin0:
	.file	1 "/Users/teig/workspace/module_i2c_master/src/i2c-mm.xc"
	.loc	1 13 0
	.cfi_startproc
.Lxtalabel0:
	.loc	1 14 0 prologue_end
	ldw r1, r0[0]
	.loc	1 14 0
	setc res[r1], 1
	.loc	1 14 0
.Ltmp0:
.Lxta.endpoint_labels0:
	in r1, res[r1]
	.loc	1 15 0
	ldw r0, r0[1]
.Ltmp1:
	.loc	1 15 0
	setc res[r0], 1
	.loc	1 15 0
.Ltmp2:
.Lxta.endpoint_labels1:
	in r0, res[r0]
	retsp 0
	# RETURN_REG_HOLDER
.Ltmp3:
	.cc_bottom i2c_master_init.function
	.set	i2c_master_init.nstackwords,0
	.globl	i2c_master_init.nstackwords
	.set	i2c_master_init.maxcores,1
	.globl	i2c_master_init.maxcores
	.set	i2c_master_init.maxtimers,0
	.globl	i2c_master_init.maxtimers
	.set	i2c_master_init.maxchanends,0
	.globl	i2c_master_init.maxchanends
.Ltmp4:
	.size	i2c_master_init, .Ltmp4-i2c_master_init
.Lfunc_end0:
	.cfi_endproc

	.globl	i2c_master_rx
	.align	4
	.type	i2c_master_rx,@function
	.cc_top i2c_master_rx.function,i2c_master_rx
i2c_master_rx:
.Lfunc_begin1:
	.loc	1 134 0
	.cfi_startproc
.Lxtalabel1:
	entsp 7
.Ltmp5:
	.cfi_def_cfa_offset 28
.Ltmp6:
	.cfi_offset 15, 0
	stw r4, sp[6]
.Ltmp7:
	.cfi_offset 4, -4
	stw r5, sp[5]
.Ltmp8:
	.cfi_offset 5, -8
	stw r6, sp[4]
.Ltmp9:
	.cfi_offset 6, -12
	stw r7, sp[3]
.Ltmp10:
	.cfi_offset 7, -16
	stw r8, sp[2]
.Ltmp11:
	.cfi_offset 8, -20
	mov r4, r3
.Ltmp12:
	mov r5, r2
.Ltmp13:
	mov r6, r1
.Ltmp14:
	mov r7, r0
.Ltmp15:
	ldw r8, sp[8]
	mkmsk r1, 1
	.loc	1 135 0 prologue_end
.Ltmp16:
	mov r0, r4
.Lxta.call_labels0:
	bl startBit
	.loc	1 136 4
	stw r8, sp[1]
	mov r0, r7
.Ltmp17:
	mov r1, r6
.Ltmp18:
	mov r2, r5
.Ltmp19:
	mov r3, r4
.Lxta.call_labels1:
	bl i2c_master_do_rx
.Ltmp20:
	ldw r8, sp[2]
	ldw r7, sp[3]
	ldw r6, sp[4]
	ldw r5, sp[5]
	ldw r4, sp[6]
.Ltmp21:
	retsp 7
	# RETURN_REG_HOLDER
.Ltmp22:
	.cc_bottom i2c_master_rx.function
	.set	i2c_master_rx.nstackwords,((startBit.nstackwords $M i2c_master_do_rx.nstackwords) + 7)
	.globl	i2c_master_rx.nstackwords
	.set	i2c_master_rx.maxcores,i2c_master_do_rx.maxcores $M startBit.maxcores $M 1
	.globl	i2c_master_rx.maxcores
	.set	i2c_master_rx.maxtimers,i2c_master_do_rx.maxtimers $M startBit.maxtimers $M 0
	.globl	i2c_master_rx.maxtimers
	.set	i2c_master_rx.maxchanends,i2c_master_do_rx.maxchanends $M startBit.maxchanends $M 0
	.globl	i2c_master_rx.maxchanends
.Ltmp23:
	.size	i2c_master_rx, .Ltmp23-i2c_master_rx
.Lfunc_end1:
	.cfi_endproc

	.globl	i2c_master_read_reg
	.align	4
	.type	i2c_master_read_reg,@function
	.cc_top i2c_master_read_reg.function,i2c_master_read_reg
i2c_master_read_reg:
.Lfunc_begin2:
	.loc	1 139 0
	.cfi_startproc
.Lxtalabel2:
	entsp 7
.Ltmp24:
	.cfi_def_cfa_offset 28
.Ltmp25:
	.cfi_offset 15, 0
	stw r4, sp[6]
.Ltmp26:
	.cfi_offset 4, -4
	stw r5, sp[5]
.Ltmp27:
	.cfi_offset 5, -8
	stw r6, sp[4]
.Ltmp28:
	.cfi_offset 6, -12
	stw r7, sp[3]
.Ltmp29:
	.cfi_offset 7, -16
	stw r8, sp[2]
.Ltmp30:
	.cfi_offset 8, -20
	mov r5, r3
.Ltmp31:
	mov r6, r2
.Ltmp32:
	mov r8, r1
.Ltmp33:
	mov r7, r0
.Ltmp34:
	ldw r4, sp[8]
	mkmsk r1, 1
	.loc	1 140 0 prologue_end
.Ltmp35:
	mov r0, r4
.Lxta.call_labels2:
	bl startBit
	.loc	1 141 5
	shl r1, r7, 1
	.loc	1 141 5
	mov r0, r4
.Lxta.call_labels3:
	bl tx8
	.loc	1 141 5
	bf r0, .LBB2_1
.Ltmp36:
.Lxtalabel3:
	.loc	1 142 5
	mov r0, r4
	mov r1, r8
.Lxta.call_labels4:
	bl tx8
	bf r0, .LBB2_1
.Ltmp37:
.Lxtalabel4:
	ldw r8, sp[9]
	.loc	1 144 0
	ldw r0, r4[1]
	.loc	1 144 0
	setc res[r0], 1
	.loc	1 144 0
.Ltmp38:
.Lxta.endpoint_labels2:
	in r0, res[r0]
	.loc	1 22 0
.Ltmp39:
	get r11, id
.Ltmp40:
	.loc	1 22 0
	ldaw r0, dp[__timers]
	.loc	1 22 0
	ldw r0, r0[r11]
	.loc	1 22 0
	setc res[r0], 1
	.loc	1 22 0
.Lxta.endpoint_labels3:
	in r1, res[r0]
.Ltmp41:
	.loc	1 23 0
	ldw r2, r4[2]
	.loc	1 23 0
	add r2, r2, 3
	.loc	1 23 0
	shr r2, r2, 2
	.loc	1 23 0
	add r1, r2, r1
.Ltmp42:
	.loc	1 24 0
	setd res[r0], r1
	.loc	1 24 0
	setc res[r0], 9
	.loc	1 24 0
.Ltmp43:
.Lxta.endpoint_labels4:
	in r1, res[r0]
.Ltmp44:
	.loc	1 146 0
	ldw r1, r4[0]
.Ltmp45:
	.loc	1 146 0
	setc res[r1], 1
	.loc	1 146 0
.Ltmp46:
.Lxta.endpoint_labels5:
	in r1, res[r1]
.Ltmp47:
	.loc	1 22 0
	setc res[r0], 1
	.loc	1 22 0
.Lxta.endpoint_labels6:
	in r1, res[r0]
.Ltmp48:
	.loc	1 23 0
	add r1, r2, r1
.Ltmp49:
	.loc	1 24 0
	setd res[r0], r1
	.loc	1 24 0
	setc res[r0], 9
	.loc	1 24 0
.Ltmp50:
.Lxta.endpoint_labels7:
	in r0, res[r0]
.Ltmp51:
	ldc r1, 0
.Ltmp52:
	.loc	1 148 0
	mov r0, r4
.Ltmp53:
.Lxta.call_labels5:
	bl startBit
	.loc	1 149 5
	stw r8, sp[1]
	mov r0, r7
	mov r1, r6
	mov r2, r5
	mov r3, r4
.Lxta.call_labels6:
	bl i2c_master_do_rx
	bu .LBB2_4
.Ltmp54:
.LBB2_1:
.Lxtalabel5:
	.loc	1 89 0
	ldw r0, r4[0]
	.loc	1 89 0
	setc res[r0], 1
	.loc	1 89 0
.Ltmp55:
.Lxta.endpoint_labels8:
	in r0, res[r0]
	.loc	1 22 0
.Ltmp56:
	get r11, id
.Ltmp57:
	.loc	1 22 0
	ldaw r0, dp[__timers]
	.loc	1 22 0
	ldw r0, r0[r11]
	.loc	1 22 0
	setc res[r0], 1
	.loc	1 22 0
.Lxta.endpoint_labels9:
	in r1, res[r0]
.Ltmp58:
	.loc	1 23 0
	ldw r2, r4[2]
	.loc	1 23 0
	add r2, r2, 3
	.loc	1 23 0
	shr r2, r2, 2
	.loc	1 23 0
	add r1, r2, r1
.Ltmp59:
	.loc	1 24 0
	setd res[r0], r1
	.loc	1 24 0
	setc res[r0], 9
	.loc	1 24 0
.Ltmp60:
.Lxta.endpoint_labels10:
	in r0, res[r0]
.Ltmp61:
	.loc	1 91 0
	ldw r0, r4[1]
.Ltmp62:
	.loc	1 91 0
	setc res[r0], 1
	.loc	1 91 0
.Ltmp63:
.Lxta.endpoint_labels11:
	in r0, res[r0]
	ldc r0, 0
.Ltmp64:
.LBB2_4:
	ldw r8, sp[2]
	ldw r7, sp[3]
	ldw r6, sp[4]
	ldw r5, sp[5]
	ldw r4, sp[6]
	retsp 7
	# RETURN_REG_HOLDER
	.cc_bottom i2c_master_read_reg.function
	.set	i2c_master_read_reg.nstackwords,((tx8.nstackwords $M startBit.nstackwords $M i2c_master_do_rx.nstackwords) + 7)
	.globl	i2c_master_read_reg.nstackwords
	.set	i2c_master_read_reg.maxcores,i2c_master_do_rx.maxcores $M startBit.maxcores $M tx8.maxcores $M 1
	.globl	i2c_master_read_reg.maxcores
	.set	i2c_master_read_reg.maxtimers,i2c_master_do_rx.maxtimers $M startBit.maxtimers $M tx8.maxtimers $M 0
	.globl	i2c_master_read_reg.maxtimers
	.set	i2c_master_read_reg.maxchanends,i2c_master_do_rx.maxchanends $M startBit.maxchanends $M tx8.maxchanends $M 0
	.globl	i2c_master_read_reg.maxchanends
.Ltmp65:
	.size	i2c_master_read_reg, .Ltmp65-i2c_master_read_reg
.Lfunc_end2:
	.cfi_endproc

	.globl	i2c_master_16bit_read_reg
	.align	4
	.type	i2c_master_16bit_read_reg,@function
	.cc_top i2c_master_16bit_read_reg.function,i2c_master_16bit_read_reg
i2c_master_16bit_read_reg:
.Lfunc_begin3:
	.loc	1 152 0
	.cfi_startproc
.Lxtalabel6:
	entsp 7
.Ltmp66:
	.cfi_def_cfa_offset 28
.Ltmp67:
	.cfi_offset 15, 0
	stw r4, sp[6]
.Ltmp68:
	.cfi_offset 4, -4
	stw r5, sp[5]
.Ltmp69:
	.cfi_offset 5, -8
	stw r6, sp[4]
.Ltmp70:
	.cfi_offset 6, -12
	stw r7, sp[3]
.Ltmp71:
	.cfi_offset 7, -16
	stw r8, sp[2]
.Ltmp72:
	.cfi_offset 8, -20
	mov r5, r3
.Ltmp73:
	mov r6, r2
.Ltmp74:
	mov r8, r1
.Ltmp75:
	mov r7, r0
.Ltmp76:
	ldw r4, sp[8]
	mkmsk r1, 1
	.loc	1 153 0 prologue_end
.Ltmp77:
	mov r0, r4
.Lxta.call_labels7:
	bl startBit
	.loc	1 154 5
	shl r1, r7, 1
	.loc	1 154 5
	mov r0, r4
.Lxta.call_labels8:
	bl tx8
	.loc	1 154 5
	bf r0, .LBB3_1
.Ltmp78:
.Lxtalabel7:
	.loc	1 155 5
	shr r1, r8, 8
	.loc	1 155 5
	zext r1, 8
	.loc	1 155 5
	mov r0, r4
.Lxta.call_labels9:
	bl tx8
	bf r0, .LBB3_1
.Ltmp79:
.Lxtalabel8:
	.loc	1 156 5
	zext r8, 8
.Ltmp80:
	.loc	1 156 5
	mov r0, r4
	mov r1, r8
.Lxta.call_labels10:
	bl tx8
	bf r0, .LBB3_1
.Ltmp81:
.Lxtalabel9:
	ldw r8, sp[9]
	.loc	1 157 0
	ldw r0, r4[1]
	.loc	1 157 0
	setc res[r0], 1
	.loc	1 157 0
.Ltmp82:
.Lxta.endpoint_labels12:
	in r0, res[r0]
	.loc	1 22 0
.Ltmp83:
	get r11, id
.Ltmp84:
	.loc	1 22 0
	ldaw r0, dp[__timers]
	.loc	1 22 0
	ldw r0, r0[r11]
	.loc	1 22 0
	setc res[r0], 1
	.loc	1 22 0
.Lxta.endpoint_labels13:
	in r1, res[r0]
.Ltmp85:
	.loc	1 23 0
	ldw r2, r4[2]
	.loc	1 23 0
	add r2, r2, 3
	.loc	1 23 0
	shr r2, r2, 2
	.loc	1 23 0
	add r1, r2, r1
.Ltmp86:
	.loc	1 24 0
	setd res[r0], r1
	.loc	1 24 0
	setc res[r0], 9
	.loc	1 24 0
.Ltmp87:
.Lxta.endpoint_labels14:
	in r1, res[r0]
.Ltmp88:
	.loc	1 159 0
	ldw r1, r4[0]
.Ltmp89:
	.loc	1 159 0
	setc res[r1], 1
	.loc	1 159 0
.Ltmp90:
.Lxta.endpoint_labels15:
	in r1, res[r1]
.Ltmp91:
	.loc	1 22 0
	setc res[r0], 1
	.loc	1 22 0
.Lxta.endpoint_labels16:
	in r1, res[r0]
.Ltmp92:
	.loc	1 23 0
	add r1, r2, r1
.Ltmp93:
	.loc	1 24 0
	setd res[r0], r1
	.loc	1 24 0
	setc res[r0], 9
	.loc	1 24 0
.Ltmp94:
.Lxta.endpoint_labels17:
	in r0, res[r0]
.Ltmp95:
	ldc r1, 0
.Ltmp96:
	.loc	1 161 0
	mov r0, r4
.Ltmp97:
.Lxta.call_labels11:
	bl startBit
	.loc	1 162 5
	stw r8, sp[1]
	mov r0, r7
	mov r1, r6
	mov r2, r5
	mov r3, r4
.Lxta.call_labels12:
	bl i2c_master_do_rx
	bu .LBB3_5
.Ltmp98:
.LBB3_1:
.Lxtalabel10:
	.loc	1 89 0
	ldw r0, r4[0]
	.loc	1 89 0
	setc res[r0], 1
	.loc	1 89 0
.Ltmp99:
.Lxta.endpoint_labels18:
	in r0, res[r0]
	.loc	1 22 0
.Ltmp100:
	get r11, id
.Ltmp101:
	.loc	1 22 0
	ldaw r0, dp[__timers]
	.loc	1 22 0
	ldw r0, r0[r11]
	.loc	1 22 0
	setc res[r0], 1
	.loc	1 22 0
.Lxta.endpoint_labels19:
	in r1, res[r0]
.Ltmp102:
	.loc	1 23 0
	ldw r2, r4[2]
	.loc	1 23 0
	add r2, r2, 3
	.loc	1 23 0
	shr r2, r2, 2
	.loc	1 23 0
	add r1, r2, r1
.Ltmp103:
	.loc	1 24 0
	setd res[r0], r1
	.loc	1 24 0
	setc res[r0], 9
	.loc	1 24 0
.Ltmp104:
.Lxta.endpoint_labels20:
	in r0, res[r0]
.Ltmp105:
	.loc	1 91 0
	ldw r0, r4[1]
.Ltmp106:
	.loc	1 91 0
	setc res[r0], 1
	.loc	1 91 0
.Ltmp107:
.Lxta.endpoint_labels21:
	in r0, res[r0]
	ldc r0, 0
.Ltmp108:
.LBB3_5:
	ldw r8, sp[2]
	ldw r7, sp[3]
	ldw r6, sp[4]
	ldw r5, sp[5]
	ldw r4, sp[6]
	retsp 7
	# RETURN_REG_HOLDER
	.cc_bottom i2c_master_16bit_read_reg.function
	.set	i2c_master_16bit_read_reg.nstackwords,((tx8.nstackwords $M startBit.nstackwords $M i2c_master_do_rx.nstackwords) + 7)
	.globl	i2c_master_16bit_read_reg.nstackwords
	.set	i2c_master_16bit_read_reg.maxcores,i2c_master_do_rx.maxcores $M startBit.maxcores $M tx8.maxcores $M 1
	.globl	i2c_master_16bit_read_reg.maxcores
	.set	i2c_master_16bit_read_reg.maxtimers,i2c_master_do_rx.maxtimers $M startBit.maxtimers $M tx8.maxtimers $M 0
	.globl	i2c_master_16bit_read_reg.maxtimers
	.set	i2c_master_16bit_read_reg.maxchanends,i2c_master_do_rx.maxchanends $M startBit.maxchanends $M tx8.maxchanends $M 0
	.globl	i2c_master_16bit_read_reg.maxchanends
.Ltmp109:
	.size	i2c_master_16bit_read_reg, .Ltmp109-i2c_master_16bit_read_reg
.Lfunc_end3:
	.cfi_endproc

	.globl	i2c_master_write_reg
	.align	4
	.type	i2c_master_write_reg,@function
	.cc_top i2c_master_write_reg.function,i2c_master_write_reg
i2c_master_write_reg:
.Lfunc_begin4:
	.loc	1 167 0
	.cfi_startproc
.Lxtalabel11:
	entsp 7
.Ltmp110:
	.cfi_def_cfa_offset 28
.Ltmp111:
	.cfi_offset 15, 0
	stw r4, sp[6]
.Ltmp112:
	.cfi_offset 4, -4
	stw r5, sp[5]
.Ltmp113:
	.cfi_offset 5, -8
	stw r6, sp[4]
.Ltmp114:
	.cfi_offset 6, -12
	stw r7, sp[3]
.Ltmp115:
	.cfi_offset 7, -16
	stw r8, sp[2]
.Ltmp116:
	.cfi_offset 8, -20
	stw r9, sp[1]
.Ltmp117:
	.cfi_offset 9, -24
	mov r6, r3
.Ltmp118:
	mov r7, r2
.Ltmp119:
	mov r8, r1
.Ltmp120:
	mov r9, r0
.Ltmp121:
	ldw r4, sp[8]
	mkmsk r5, 1
	.loc	1 168 0 prologue_end
.Ltmp122:
	mov r0, r4
	mov r1, r5
.Lxta.call_labels13:
	bl startBit
	.loc	1 169 4
	shl r1, r9, 1
	.loc	1 169 4
	mov r0, r4
.Lxta.call_labels14:
	bl tx8
	.loc	1 169 4
	bf r0, .LBB4_1
.Ltmp123:
.Lxtalabel12:
	.loc	1 174 4
	mov r0, r4
	mov r1, r8
.Lxta.call_labels15:
	bl tx8
	bf r0, .LBB4_1
.Ltmp124:
.Lxtalabel13:
	ldc r8, 0
	.loc	1 177 0
.Ltmp125:
	lss r0, r8, r6
	bf r0, .LBB4_7
.Ltmp126:
	ldw r9, sp[9]
.Ltmp127:
.LBB4_5:
.Lxtalabel14:
	.loc	1 178 8
	lsu r0, r8, r9
.Ltrap_info0:
	ecallf r0
	.loc	1 178 8
	ld8u r1, r7[r8]
	.loc	1 178 8
	mov r0, r4
.Lxta.call_labels16:
	bl tx8
	bf r0, .LBB4_1
.Ltmp128:
.Lxtalabel15:
	.loc	1 177 0
	add r8, r8, 1
.Ltmp129:
	.loc	1 177 0
	lss r0, r8, r6
.Lxta.loop_labels0:
	# LOOPMARKER 0
	bt r0, .LBB4_5
.Ltmp130:
.LBB4_7:
.Lxtalabel16:
	.loc	1 180 0
	mov r0, r4
.Lxta.call_labels17:
	bl stopBit
	bu .LBB4_8
.Ltmp131:
.LBB4_1:
.Lxtalabel17:
	.loc	1 89 0
	ldw r0, r4[0]
	.loc	1 89 0
	setc res[r0], 1
	.loc	1 89 0
.Ltmp132:
.Lxta.endpoint_labels22:
	in r0, res[r0]
	.loc	1 22 0
.Ltmp133:
	get r11, id
.Ltmp134:
	.loc	1 22 0
	ldaw r0, dp[__timers]
	.loc	1 22 0
	ldw r0, r0[r11]
	.loc	1 22 0
	setc res[r0], 1
	.loc	1 22 0
.Lxta.endpoint_labels23:
	in r1, res[r0]
.Ltmp135:
	.loc	1 23 0
	ldw r2, r4[2]
	.loc	1 23 0
	add r2, r2, 3
	.loc	1 23 0
	shr r2, r2, 2
	.loc	1 23 0
	add r1, r2, r1
.Ltmp136:
	.loc	1 24 0
	setd res[r0], r1
	.loc	1 24 0
	setc res[r0], 9
	.loc	1 24 0
.Ltmp137:
.Lxta.endpoint_labels24:
	in r0, res[r0]
.Ltmp138:
	.loc	1 91 0
	ldw r0, r4[1]
.Ltmp139:
	.loc	1 91 0
	setc res[r0], 1
	.loc	1 91 0
.Ltmp140:
.Lxta.endpoint_labels25:
	in r0, res[r0]
	ldc r5, 0
.Ltmp141:
.LBB4_8:
	mov r0, r5
	ldw r9, sp[1]
	ldw r8, sp[2]
	ldw r7, sp[3]
	ldw r6, sp[4]
	ldw r5, sp[5]
	ldw r4, sp[6]
	retsp 7
	# RETURN_REG_HOLDER
	.cc_bottom i2c_master_write_reg.function
	.set	i2c_master_write_reg.nstackwords,((startBit.nstackwords $M tx8.nstackwords $M stopBit.nstackwords) + 7)
	.globl	i2c_master_write_reg.nstackwords
	.set	i2c_master_write_reg.maxcores,startBit.maxcores $M stopBit.maxcores $M tx8.maxcores $M 1
	.globl	i2c_master_write_reg.maxcores
	.set	i2c_master_write_reg.maxtimers,startBit.maxtimers $M stopBit.maxtimers $M tx8.maxtimers $M 0
	.globl	i2c_master_write_reg.maxtimers
	.set	i2c_master_write_reg.maxchanends,startBit.maxchanends $M stopBit.maxchanends $M tx8.maxchanends $M 0
	.globl	i2c_master_write_reg.maxchanends
.Ltmp142:
	.size	i2c_master_write_reg, .Ltmp142-i2c_master_write_reg
.Lfunc_end4:
	.cfi_endproc

	.globl	i2c_master_16bit_write_reg
	.align	4
	.type	i2c_master_16bit_write_reg,@function
	.cc_top i2c_master_16bit_write_reg.function,i2c_master_16bit_write_reg
i2c_master_16bit_write_reg:
.Lfunc_begin5:
	.loc	1 185 0
	.cfi_startproc
.Lxtalabel18:
	entsp 7
.Ltmp143:
	.cfi_def_cfa_offset 28
.Ltmp144:
	.cfi_offset 15, 0
	stw r4, sp[6]
.Ltmp145:
	.cfi_offset 4, -4
	stw r5, sp[5]
.Ltmp146:
	.cfi_offset 5, -8
	stw r6, sp[4]
.Ltmp147:
	.cfi_offset 6, -12
	stw r7, sp[3]
.Ltmp148:
	.cfi_offset 7, -16
	stw r8, sp[2]
.Ltmp149:
	.cfi_offset 8, -20
	stw r9, sp[1]
.Ltmp150:
	.cfi_offset 9, -24
	mov r6, r3
.Ltmp151:
	mov r7, r2
.Ltmp152:
	mov r8, r1
.Ltmp153:
	mov r9, r0
.Ltmp154:
	ldw r4, sp[8]
	mkmsk r5, 1
	.loc	1 186 0 prologue_end
.Ltmp155:
	mov r0, r4
	mov r1, r5
.Lxta.call_labels18:
	bl startBit
	.loc	1 187 4
	shl r1, r9, 1
	.loc	1 187 4
	mov r0, r4
.Lxta.call_labels19:
	bl tx8
	.loc	1 187 4
	bf r0, .LBB5_1
.Ltmp156:
.Lxtalabel19:
	.loc	1 189 4
	shr r1, r8, 8
	.loc	1 189 4
	zext r1, 8
	.loc	1 189 4
	mov r0, r4
.Lxta.call_labels20:
	bl tx8
	bf r0, .LBB5_1
.Ltmp157:
.Lxtalabel20:
	.loc	1 190 4
	zext r8, 8
.Ltmp158:
	.loc	1 190 4
	mov r0, r4
	mov r1, r8
.Lxta.call_labels21:
	bl tx8
	bf r0, .LBB5_1
.Ltmp159:
.Lxtalabel21:
	ldc r8, 0
	.loc	1 192 0
.Ltmp160:
	lss r0, r8, r6
	bf r0, .LBB5_8
.Ltmp161:
	ldw r9, sp[9]
.Ltmp162:
.LBB5_6:
.Lxtalabel22:
	.loc	1 193 8
	lsu r0, r8, r9
.Ltrap_info1:
	ecallf r0
	.loc	1 193 8
	ld8u r1, r7[r8]
	.loc	1 193 8
	mov r0, r4
.Lxta.call_labels22:
	bl tx8
	bf r0, .LBB5_1
.Ltmp163:
.Lxtalabel23:
	.loc	1 192 0
	add r8, r8, 1
.Ltmp164:
	.loc	1 192 0
	lss r0, r8, r6
.Lxta.loop_labels1:
	# LOOPMARKER 0
	bt r0, .LBB5_6
.Ltmp165:
.LBB5_8:
.Lxtalabel24:
	.loc	1 195 0
	mov r0, r4
.Lxta.call_labels23:
	bl stopBit
	bu .LBB5_9
.Ltmp166:
.LBB5_1:
.Lxtalabel25:
	.loc	1 89 0
	ldw r0, r4[0]
	.loc	1 89 0
	setc res[r0], 1
	.loc	1 89 0
.Ltmp167:
.Lxta.endpoint_labels26:
	in r0, res[r0]
	.loc	1 22 0
.Ltmp168:
	get r11, id
.Ltmp169:
	.loc	1 22 0
	ldaw r0, dp[__timers]
	.loc	1 22 0
	ldw r0, r0[r11]
	.loc	1 22 0
	setc res[r0], 1
	.loc	1 22 0
.Lxta.endpoint_labels27:
	in r1, res[r0]
.Ltmp170:
	.loc	1 23 0
	ldw r2, r4[2]
	.loc	1 23 0
	add r2, r2, 3
	.loc	1 23 0
	shr r2, r2, 2
	.loc	1 23 0
	add r1, r2, r1
.Ltmp171:
	.loc	1 24 0
	setd res[r0], r1
	.loc	1 24 0
	setc res[r0], 9
	.loc	1 24 0
.Ltmp172:
.Lxta.endpoint_labels28:
	in r0, res[r0]
.Ltmp173:
	.loc	1 91 0
	ldw r0, r4[1]
.Ltmp174:
	.loc	1 91 0
	setc res[r0], 1
	.loc	1 91 0
.Ltmp175:
.Lxta.endpoint_labels29:
	in r0, res[r0]
	ldc r5, 0
.Ltmp176:
.LBB5_9:
	mov r0, r5
	ldw r9, sp[1]
	ldw r8, sp[2]
	ldw r7, sp[3]
	ldw r6, sp[4]
	ldw r5, sp[5]
	ldw r4, sp[6]
	retsp 7
	# RETURN_REG_HOLDER
	.cc_bottom i2c_master_16bit_write_reg.function
	.set	i2c_master_16bit_write_reg.nstackwords,((startBit.nstackwords $M tx8.nstackwords $M stopBit.nstackwords) + 7)
	.globl	i2c_master_16bit_write_reg.nstackwords
	.set	i2c_master_16bit_write_reg.maxcores,startBit.maxcores $M stopBit.maxcores $M tx8.maxcores $M 1
	.globl	i2c_master_16bit_write_reg.maxcores
	.set	i2c_master_16bit_write_reg.maxtimers,startBit.maxtimers $M stopBit.maxtimers $M tx8.maxtimers $M 0
	.globl	i2c_master_16bit_write_reg.maxtimers
	.set	i2c_master_16bit_write_reg.maxchanends,startBit.maxchanends $M stopBit.maxchanends $M tx8.maxchanends $M 0
	.globl	i2c_master_16bit_write_reg.maxchanends
.Ltmp177:
	.size	i2c_master_16bit_write_reg, .Ltmp177-i2c_master_16bit_write_reg
.Lfunc_end5:
	.cfi_endproc

	.globl	i2c_master_read_fram_id
	.align	4
	.type	i2c_master_read_fram_id,@function
	.cc_top i2c_master_read_fram_id.function,i2c_master_read_fram_id
i2c_master_read_fram_id:
.Lfunc_begin6:
	.loc	1 200 0
	.cfi_startproc
.Lxtalabel26:
	entsp 6
.Ltmp178:
	.cfi_def_cfa_offset 24
.Ltmp179:
	.cfi_offset 15, 0
	stw r4, sp[5]
.Ltmp180:
	.cfi_offset 4, -4
	stw r5, sp[4]
.Ltmp181:
	.cfi_offset 5, -8
	stw r6, sp[3]
.Ltmp182:
	.cfi_offset 6, -12
	stw r7, sp[2]
.Ltmp183:
	.cfi_offset 7, -16
	mov r4, r3
.Ltmp184:
	mov r5, r2
.Ltmp185:
	mov r6, r1
.Ltmp186:
	mov r7, r0
.Ltmp187:
	mkmsk r1, 1
	.loc	1 201 0 prologue_end
.Ltmp188:
	mov r0, r4
.Lxta.call_labels24:
	bl startBit
	ldc r1, 248
	.loc	1 202 5
	mov r0, r4
.Lxta.call_labels25:
	bl tx8
	.loc	1 202 5
	bf r0, .LBB6_1
.Ltmp189:
.Lxtalabel27:
	.loc	1 203 5
	shl r1, r7, 1
	.loc	1 203 5
	mov r0, r4
.Lxta.call_labels26:
	bl tx8
	bf r0, .LBB6_1
.Ltmp190:
.Lxtalabel28:
	ldw r7, sp[7]
	.loc	1 204 0
	ldw r0, r4[1]
	.loc	1 204 0
	setc res[r0], 1
	.loc	1 204 0
.Ltmp191:
.Lxta.endpoint_labels30:
	in r0, res[r0]
	.loc	1 22 0
.Ltmp192:
	get r11, id
.Ltmp193:
	.loc	1 22 0
	ldaw r0, dp[__timers]
	.loc	1 22 0
	ldw r0, r0[r11]
	.loc	1 22 0
	setc res[r0], 1
	.loc	1 22 0
.Lxta.endpoint_labels31:
	in r1, res[r0]
.Ltmp194:
	.loc	1 23 0
	ldw r2, r4[2]
	.loc	1 23 0
	add r2, r2, 3
	.loc	1 23 0
	shr r2, r2, 2
	.loc	1 23 0
	add r1, r2, r1
.Ltmp195:
	.loc	1 24 0
	setd res[r0], r1
	.loc	1 24 0
	setc res[r0], 9
	.loc	1 24 0
.Ltmp196:
.Lxta.endpoint_labels32:
	in r1, res[r0]
.Ltmp197:
	.loc	1 206 0
	ldw r1, r4[0]
.Ltmp198:
	.loc	1 206 0
	setc res[r1], 1
	.loc	1 206 0
.Ltmp199:
.Lxta.endpoint_labels33:
	in r1, res[r1]
.Ltmp200:
	.loc	1 22 0
	setc res[r0], 1
	.loc	1 22 0
.Lxta.endpoint_labels34:
	in r1, res[r0]
.Ltmp201:
	.loc	1 23 0
	add r1, r2, r1
.Ltmp202:
	.loc	1 24 0
	setd res[r0], r1
	.loc	1 24 0
	setc res[r0], 9
	.loc	1 24 0
.Ltmp203:
.Lxta.endpoint_labels35:
	in r0, res[r0]
.Ltmp204:
	ldc r1, 0
.Ltmp205:
	.loc	1 208 0
	mov r0, r4
.Ltmp206:
.Lxta.call_labels27:
	bl startBit
	.loc	1 209 5
	stw r7, sp[1]
	ldc r0, 249
	mov r1, r6
	mov r2, r5
	mov r3, r4
.Lxta.call_labels28:
	bl i2c_master_do_rx
	bu .LBB6_4
.Ltmp207:
.LBB6_1:
.Lxtalabel29:
	.loc	1 89 0
	ldw r0, r4[0]
	.loc	1 89 0
	setc res[r0], 1
	.loc	1 89 0
.Ltmp208:
.Lxta.endpoint_labels36:
	in r0, res[r0]
	.loc	1 22 0
.Ltmp209:
	get r11, id
.Ltmp210:
	.loc	1 22 0
	ldaw r0, dp[__timers]
	.loc	1 22 0
	ldw r0, r0[r11]
	.loc	1 22 0
	setc res[r0], 1
	.loc	1 22 0
.Lxta.endpoint_labels37:
	in r1, res[r0]
.Ltmp211:
	.loc	1 23 0
	ldw r2, r4[2]
	.loc	1 23 0
	add r2, r2, 3
	.loc	1 23 0
	shr r2, r2, 2
	.loc	1 23 0
	add r1, r2, r1
.Ltmp212:
	.loc	1 24 0
	setd res[r0], r1
	.loc	1 24 0
	setc res[r0], 9
	.loc	1 24 0
.Ltmp213:
.Lxta.endpoint_labels38:
	in r0, res[r0]
.Ltmp214:
	.loc	1 91 0
	ldw r0, r4[1]
.Ltmp215:
	.loc	1 91 0
	setc res[r0], 1
	.loc	1 91 0
.Ltmp216:
.Lxta.endpoint_labels39:
	in r0, res[r0]
	ldc r0, 0
.Ltmp217:
.LBB6_4:
	ldw r7, sp[2]
	ldw r6, sp[3]
	ldw r5, sp[4]
	ldw r4, sp[5]
	retsp 6
	# RETURN_REG_HOLDER
	.cc_bottom i2c_master_read_fram_id.function
	.set	i2c_master_read_fram_id.nstackwords,((tx8.nstackwords $M startBit.nstackwords $M i2c_master_do_rx.nstackwords) + 6)
	.globl	i2c_master_read_fram_id.nstackwords
	.set	i2c_master_read_fram_id.maxcores,i2c_master_do_rx.maxcores $M startBit.maxcores $M tx8.maxcores $M 1
	.globl	i2c_master_read_fram_id.maxcores
	.set	i2c_master_read_fram_id.maxtimers,i2c_master_do_rx.maxtimers $M startBit.maxtimers $M tx8.maxtimers $M 0
	.globl	i2c_master_read_fram_id.maxtimers
	.set	i2c_master_read_fram_id.maxchanends,i2c_master_do_rx.maxchanends $M startBit.maxchanends $M tx8.maxchanends $M 0
	.globl	i2c_master_read_fram_id.maxchanends
.Ltmp218:
	.size	i2c_master_read_fram_id, .Ltmp218-i2c_master_read_fram_id
.Lfunc_end6:
	.cfi_endproc

	.align	4
	.type	highPulse,@function
	.cc_top highPulse.function,highPulse
highPulse:
.Lfunc_begin7:
	.loc	1 32 0
	.cfi_startproc
.Lxtalabel30:
	extsp 1
.Ltmp219:
	.cfi_def_cfa_offset 4
	stw r4, sp[0]
.Ltmp220:
	.cfi_offset 4, -4
	bf r1, .LBB7_2
.Ltmp221:
.Lxtalabel31:
	.loc	1 35 0 prologue_end
	ldw r2, r0[1]
	.loc	1 35 0
	setc res[r2], 1
	.loc	1 35 0
.Ltmp222:
.Lxta.endpoint_labels40:
	in r2, res[r2]
.Ltmp223:
.LBB7_2:
.Lxtalabel32:
	.loc	1 22 0
	get r11, id
	.loc	1 22 0
	ldaw r2, dp[__timers]
	.loc	1 22 0
	ldw r3, r2[r11]
	.loc	1 22 0
	setc res[r3], 1
	.loc	1 22 0
.Lxta.endpoint_labels41:
	in r2, res[r3]
.Ltmp224:
	.loc	1 23 0
	ldw r11, r0[2]
	.loc	1 23 0
	add r11, r11, 3
	.loc	1 23 0
	shr r11, r11, 2
	.loc	1 23 0
	add r2, r11, r2
.Ltmp225:
	.loc	1 24 0
	setd res[r3], r2
	.loc	1 24 0
	setc res[r3], 9
	.loc	1 24 0
.Ltmp226:
.Lxta.endpoint_labels42:
	in r2, res[r3]
.Ltmp227:
	.loc	1 38 0
	ldw r4, r0[0]
	mkmsk r2, 1
.Ltmp228:
	.loc	1 38 0
	setd res[r4], r2
	.loc	1 38 0
	setc res[r4], 17
	.loc	1 38 0
.Ltmp229:
.Lxta.endpoint_labels43:
	in r2, res[r4]
	.loc	1 22 0
.Ltmp230:
	setc res[r3], 1
	.loc	1 22 0
.Lxta.endpoint_labels44:
	in r2, res[r3]
.Ltmp231:
	.loc	1 23 0
	add r2, r11, r2
.Ltmp232:
	.loc	1 24 0
	setd res[r3], r2
	.loc	1 24 0
	setc res[r3], 9
	.loc	1 24 0
.Ltmp233:
.Lxta.endpoint_labels45:
	in r2, res[r3]
.Ltmp234:
.Ltmp235:
	bf r1, .LBB7_4
.Ltmp236:
.Lxtalabel33:
	.loc	1 41 0
	ldw r0, r0[1]
.Ltmp237:
	.loc	1 41 0
	setc res[r0], 1
	.loc	1 41 0
.Lxta.endpoint_labels46:
	in r2, res[r0]
.Ltmp238:
.LBB7_4:
.Lxtalabel34:
	.loc	1 22 0
	setc res[r3], 1
	.loc	1 22 0
.Lxta.endpoint_labels47:
	in r0, res[r3]
.Ltmp239:
	.loc	1 23 0
	add r0, r11, r0
.Ltmp240:
	.loc	1 24 0
	setd res[r3], r0
	.loc	1 24 0
	setc res[r3], 9
	.loc	1 24 0
.Ltmp241:
.Lxta.endpoint_labels48:
	in r0, res[r3]
.Ltmp242:
	ldc r0, 0
.Ltmp243:
	.loc	1 44 17
.Lxta.endpoint_labels49:
	out res[r4], r0
	.loc	1 22 0
.Ltmp244:
	setc res[r3], 1
	.loc	1 22 0
.Lxta.endpoint_labels50:
	in r0, res[r3]
.Ltmp245:
	.loc	1 23 0
	add r0, r11, r0
.Ltmp246:
	.loc	1 24 0
	setd res[r3], r0
	.loc	1 24 0
	setc res[r3], 9
	.loc	1 24 0
.Ltmp247:
.Lxta.endpoint_labels51:
	in r0, res[r3]
.Ltmp248:
	mov r0, r2
.Ltmp249:
	ldw r4, sp[0]
	ldaw sp, sp[1]
	retsp 0
	# RETURN_REG_HOLDER
.Ltmp250:
	.cc_bottom highPulse.function
	.set	highPulse.nstackwords,1
	.set	highPulse.maxcores,1
	.set	highPulse.maxtimers,0
	.set	highPulse.maxchanends,0
.Ltmp251:
	.size	highPulse, .Ltmp251-highPulse
.Lfunc_end7:
	.cfi_endproc

	.align	4
	.type	startBit,@function
	.cc_top startBit.function,startBit
startBit:
.Lfunc_begin8:
	.loc	1 49 0
	.cfi_startproc
.Lxtalabel35:
	extsp 3
.Ltmp252:
	.cfi_def_cfa_offset 12
	stw r4, sp[2]
.Ltmp253:
	.cfi_offset 4, -4
	stw r5, sp[1]
.Ltmp254:
	.cfi_offset 5, -8
	stw r6, sp[0]
.Ltmp255:
	.cfi_offset 6, -12
	.loc	1 22 0 prologue_end
.Ltmp256:
	get r11, id
	.loc	1 22 0
	ldaw r2, dp[__timers]
	.loc	1 22 0
	ldw r2, r2[r11]
.Ltmp257:
	.loc	1 50 5
	bf r1, .LBB8_11
.Ltmp258:
.Lxtalabel36:
	.loc	1 56 0
	setc res[r2], 1
	.loc	1 56 0
.Lxta.endpoint_labels52:
	in r6, res[r2]
.Ltmp259:
	.loc	1 58 13
	ldw r3, r0[1]
	.loc	1 58 13
	ldw r1, r0[0]
	mkmsk r4, 1
	mov r5, r4
	bu .LBB8_2
.Ltmp260:
.LBB8_7:
.Lxtalabel37:
	.loc	1 60 0
	setc res[r2], 1
	.loc	1 60 0
.Lxta.endpoint_labels53:
	in r6, res[r2]
.Ltmp261:
.LBB8_2:
.Lxtalabel38:
	.loc	1 58 13
	clre
	.loc	1 58 13
	setd res[r3], r4
	.loc	1 58 13
	setc res[r3], 25
	ldap r11, .Ltmp262
	.loc	1 58 13
	setv res[r3], r11
	.loc	1 58 13
	eeu res[r3]
	.loc	1 58 13
	setd res[r1], r5
	.loc	1 58 13
	setc res[r1], 25
	ldap r11, .Ltmp263
	.loc	1 58 13
	setv res[r1], r11
	.loc	1 58 13
	eeu res[r1]
	bf r5, .LBB8_5
.Ltmp264:
.Lxtalabel39:
	bf r4, .LBB8_5
.Ltmp265:
	.loc	1 58 13
	ldw r11, r0[2]
	.loc	1 58 13
	add r11, r11, r6
	.loc	1 58 13
	setd res[r2], r11
	.loc	1 58 13
	setc res[r2], 9
	ldap r11, .Ltmp266
	.loc	1 58 13
	setv res[r2], r11
	.loc	1 58 13
	eeu res[r2]
.Ltmp267:
.LBB8_5:
	.loc	1 67 0

	.xtabranch .LBB8_6, .LBB8_8, .LBB8_9
	waiteu
.Ltmp268:
.Ltmp263:
.LBB8_8:
.Lxtalabel40:
	.loc	1 62 0
.Lxta.endpoint_labels54:
	in r5, res[r1]
	bu .LBB8_7
.Ltmp269:
.Ltmp262:
.LBB8_6:
.Lxtalabel41:
	.loc	1 59 0
.Lxta.endpoint_labels55:
	in r4, res[r3]
	bu .LBB8_7
.Ltmp270:
.Ltmp266:
.LBB8_9:
.Lxtalabel42:
	.loc	1 65 0
.Lxta.endpoint_labels56:
	in r11, res[r2]
.Ltmp271:
	.loc	1 23 0
	ldw r11, r0[2]
	bu .LBB8_10
.Ltmp272:
.LBB8_11:
.Lxtalabel43:
	.loc	1 22 0
	setc res[r2], 1
	.loc	1 22 0
.Lxta.endpoint_labels57:
	in r1, res[r2]
.Ltmp273:
	.loc	1 23 0
	ldw r11, r0[2]
	.loc	1 23 0
	add r3, r11, 3
	.loc	1 23 0
	shr r3, r3, 2
	.loc	1 23 0
	add r1, r3, r1
.Ltmp274:
	.loc	1 24 0
	setd res[r2], r1
	.loc	1 24 0
	setc res[r2], 9
	.loc	1 24 0
.Ltmp275:
.Lxta.endpoint_labels58:
	in r1, res[r2]
.Ltmp276:
	.loc	1 73 18
	ldw r3, r0[1]
	.loc	1 75 18
	ldw r1, r0[0]
.Ltmp277:
.LBB8_10:
.Lxtalabel44:
	ldc r0, 0
	.loc	1 73 18
.Lxta.endpoint_labels59:
	out res[r3], r0
	.loc	1 22 0
.Ltmp278:
	setc res[r2], 1
	.loc	1 22 0
.Lxta.endpoint_labels60:
	in r3, res[r2]
.Ltmp279:
	.loc	1 23 0
	add r11, r11, 3
	.loc	1 23 0
	shr r11, r11, 2
	.loc	1 23 0
	add r3, r11, r3
.Ltmp280:
	.loc	1 24 0
	setd res[r2], r3
	.loc	1 24 0
	setc res[r2], 9
	.loc	1 24 0
.Ltmp281:
.Lxta.endpoint_labels61:
	in r3, res[r2]
.Ltmp282:
	.loc	1 22 0
	setc res[r2], 1
	.loc	1 22 0
.Lxta.endpoint_labels62:
	in r3, res[r2]
.Ltmp283:
	.loc	1 23 0
	add r3, r11, r3
.Ltmp284:
	.loc	1 24 0
	setd res[r2], r3
	.loc	1 24 0
	setc res[r2], 9
	.loc	1 24 0
.Ltmp285:
.Lxta.endpoint_labels63:
	in r3, res[r2]
.Ltmp286:
	.loc	1 75 18
.Lxta.endpoint_labels64:
	out res[r1], r0
	.loc	1 22 0
.Ltmp287:
	setc res[r2], 1
	.loc	1 22 0
.Lxta.endpoint_labels65:
	in r0, res[r2]
.Ltmp288:
	.loc	1 23 0
	add r0, r11, r0
.Ltmp289:
	.loc	1 24 0
	setd res[r2], r0
	.loc	1 24 0
	setc res[r2], 9
	.loc	1 24 0
.Ltmp290:
.Lxta.endpoint_labels66:
	in r0, res[r2]
.Ltmp291:
	ldw r6, sp[0]
	ldw r5, sp[1]
	ldw r4, sp[2]
	ldaw sp, sp[3]
	retsp 0
	# RETURN_REG_HOLDER
.Ltmp292:
	.cc_bottom startBit.function
	.set	startBit.nstackwords,3
	.set	startBit.maxcores,1
	.set	startBit.maxtimers,0
	.set	startBit.maxchanends,0
.Ltmp293:
	.size	startBit, .Ltmp293-startBit
.Lfunc_end8:
	.cfi_endproc

	.align	4
	.type	stopBit,@function
	.cc_top stopBit.function,stopBit
stopBit:
.Lfunc_begin9:
	.loc	1 79 0
	.cfi_startproc
.Lxtalabel45:
	.loc	1 80 17 prologue_end
	ldw r1, r0[1]
	ldc r2, 0
	.loc	1 80 17
.Lxta.endpoint_labels67:
	out res[r1], r2
	.loc	1 22 0
.Ltmp294:
	get r11, id
.Ltmp295:
	.loc	1 22 0
	ldaw r2, dp[__timers]
	.loc	1 22 0
	ldw r2, r2[r11]
	.loc	1 22 0
	setc res[r2], 1
	.loc	1 22 0
.Lxta.endpoint_labels68:
	in r11, res[r2]
.Ltmp296:
	.loc	1 23 0
	ldw r3, r0[2]
	.loc	1 23 0
	add r3, r3, 3
	.loc	1 23 0
	shr r3, r3, 2
	.loc	1 23 0
	add r11, r3, r11
.Ltmp297:
	.loc	1 24 0
	setd res[r2], r11
	.loc	1 24 0
	setc res[r2], 9
	.loc	1 24 0
.Ltmp298:
.Lxta.endpoint_labels69:
	in r11, res[r2]
.Ltmp299:
	.loc	1 82 0
	ldw r0, r0[0]
.Ltmp300:
	mkmsk r11, 1
.Ltmp301:
	.loc	1 82 0
	setd res[r0], r11
	.loc	1 82 0
	setc res[r0], 17
	.loc	1 82 0
.Ltmp302:
.Lxta.endpoint_labels70:
	in r0, res[r0]
.Ltmp303:
	.loc	1 22 0
	setc res[r2], 1
	.loc	1 22 0
.Lxta.endpoint_labels71:
	in r0, res[r2]
.Ltmp304:
	.loc	1 23 0
	add r0, r3, r0
.Ltmp305:
	.loc	1 24 0
	setd res[r2], r0
	.loc	1 24 0
	setc res[r2], 9
	.loc	1 24 0
.Ltmp306:
.Lxta.endpoint_labels72:
	in r0, res[r2]
.Ltmp307:
	.loc	1 22 0
	setc res[r2], 1
	.loc	1 22 0
.Lxta.endpoint_labels73:
	in r0, res[r2]
.Ltmp308:
	.loc	1 23 0
	add r0, r3, r0
.Ltmp309:
	.loc	1 24 0
	setd res[r2], r0
	.loc	1 24 0
	setc res[r2], 9
	.loc	1 24 0
.Ltmp310:
.Lxta.endpoint_labels74:
	in r0, res[r2]
.Ltmp311:
	.loc	1 84 0
	setc res[r1], 1
	.loc	1 84 0
.Ltmp312:
.Lxta.endpoint_labels75:
	in r0, res[r1]
.Ltmp313:
	.loc	1 22 0
	setc res[r2], 1
	.loc	1 22 0
.Lxta.endpoint_labels76:
	in r0, res[r2]
.Ltmp314:
	.loc	1 23 0
	add r0, r3, r0
.Ltmp315:
	.loc	1 24 0
	setd res[r2], r0
	.loc	1 24 0
	setc res[r2], 9
	.loc	1 24 0
.Ltmp316:
.Lxta.endpoint_labels77:
	in r0, res[r2]
.Ltmp317:
	retsp 0
	# RETURN_REG_HOLDER
.Ltmp318:
	.cc_bottom stopBit.function
	.set	stopBit.nstackwords,0
	.set	stopBit.maxcores,1
	.set	stopBit.maxtimers,0
	.set	stopBit.maxchanends,0
.Ltmp319:
	.size	stopBit, .Ltmp319-stopBit
.Lfunc_end9:
	.cfi_endproc

	.section	.cp.rodata.cst4,"aMc",@progbits,4
	.cc_top .LCPI10_0.data,.LCPI10_0
	.align	4
	.type	.LCPI10_0,@object
	.size	.LCPI10_0, 4
.LCPI10_0:
	.long	4294967288
	.cc_bottom .LCPI10_0.data
	.text
	.align	4
	.type	tx8,@function
	.cc_top tx8.function,tx8
tx8:
.Lfunc_begin10:
	.loc	1 95 0
	.cfi_startproc
.Lxtalabel46:
	entsp 6
.Ltmp320:
	.cfi_def_cfa_offset 24
.Ltmp321:
	.cfi_offset 15, 0
	stw r4, sp[5]
.Ltmp322:
	.cfi_offset 4, -4
	stw r5, sp[4]
.Ltmp323:
	.cfi_offset 5, -8
	stw r6, sp[3]
.Ltmp324:
	.cfi_offset 6, -12
	stw r7, sp[2]
.Ltmp325:
	.cfi_offset 7, -16
	stw r8, sp[1]
.Ltmp326:
	.cfi_offset 8, -20
	mov r5, r0
.Ltmp327:
	.loc	1 96 0 prologue_end
	bitrev r0, r1
	.loc	1 96 0
	shr r7, r0, 24
.Ltmp328:
	ldw r8, cp[.LCPI10_0]
	ldc r4, 0
	mkmsk r6, 1
.Ltmp329:
.LBB10_1:
.Lxtalabel47:
	.loc	1 98 9
	mov r0, r7
	zext r0, 1
	.loc	1 98 9
	bf r0, .LBB10_6
.Ltmp330:
.Lxtalabel48:
	.loc	1 99 13
	mov r0, r5
	mov r1, r6
.Lxta.call_labels29:
	bl highPulse
	bt r0, .LBB10_3
	bu .LBB10_5
.Ltmp331:
.LBB10_6:
.Lxtalabel49:
	.loc	1 103 25
	ldw r0, r5[1]
	.loc	1 103 25
.Lxta.endpoint_labels78:
	out res[r0], r4
	.loc	1 104 0
	mov r0, r5
	mov r1, r4
.Lxta.call_labels30:
	bl highPulse
.Ltmp332:
.LBB10_3:
.Lxtalabel50:
	.loc	1 106 0
	shr r7, r7, 1
.Ltmp333:
	.loc	1 97 0
	add r8, r8, 1
.Lxta.loop_labels2:
	# LOOPMARKER 0
	bt r8, .LBB10_1
.Ltmp334:
.Lxtalabel51:
	mkmsk r1, 1
	.loc	1 108 5
	mov r0, r5
.Lxta.call_labels31:
	bl highPulse
	.loc	1 108 5
	eq r4, r0, 0
.Ltmp335:
.LBB10_5:
	mov r0, r4
	ldw r8, sp[1]
	ldw r7, sp[2]
	ldw r6, sp[3]
	ldw r5, sp[4]
	ldw r4, sp[5]
	retsp 6
	# RETURN_REG_HOLDER
	.cc_bottom tx8.function
	.set	tx8.nstackwords,(highPulse.nstackwords + 6)
	.set	tx8.maxcores,highPulse.maxcores $M 1
	.set	tx8.maxtimers,highPulse.maxtimers $M 0
	.set	tx8.maxchanends,highPulse.maxchanends $M 0
.Ltmp336:
	.size	tx8, .Ltmp336-tx8
.Lfunc_end10:
	.cfi_endproc

	.section	.cp.rodata.cst4,"aMc",@progbits,4
	.cc_top .LCPI11_0.data,.LCPI11_0
	.align	4
	.type	.LCPI11_0,@object
	.size	.LCPI11_0, 4
.LCPI11_0:
	.long	4294967288
	.cc_bottom .LCPI11_0.data
	.text
	.align	4
	.type	i2c_master_do_rx,@function
	.cc_top i2c_master_do_rx.function,i2c_master_do_rx
i2c_master_do_rx:
.Lfunc_begin11:
	.loc	1 112 0
	.cfi_startproc
.Lxtalabel52:
	entsp 10
.Ltmp337:
	.cfi_def_cfa_offset 40
.Ltmp338:
	.cfi_offset 15, 0
	stw r4, sp[9]
.Ltmp339:
	.cfi_offset 4, -4
	stw r5, sp[8]
.Ltmp340:
	.cfi_offset 5, -8
	stw r6, sp[7]
.Ltmp341:
	.cfi_offset 6, -12
	stw r7, sp[6]
.Ltmp342:
	.cfi_offset 7, -16
	stw r8, sp[5]
.Ltmp343:
	.cfi_offset 8, -20
	stw r9, sp[4]
.Ltmp344:
	.cfi_offset 9, -24
	stw r10, sp[3]
.Ltmp345:
	.cfi_offset 10, -28
	mov r4, r3
.Ltmp346:
	mov r7, r2
.Ltmp347:
	stw r1, sp[2]
.Ltmp348:
	.loc	1 116 4 prologue_end
	shl r0, r0, 1
.Ltmp349:
	mkmsk r5, 1
	.loc	1 116 4
	or r1, r0, r5
	.loc	1 116 4
	mov r0, r4
.Lxta.call_labels32:
	bl tx8
	.loc	1 116 4
	bf r0, .LBB11_1
.Ltmp350:
.Lxtalabel53:
	.loc	1 117 0
	lss r0, r7, r5
	bt r0, .LBB11_9
.Ltmp351:
	.loc	1 122 8
	sub r0, r7, 1
	stw r0, sp[1]
	ldc r0, 0
	mkmsk r9, 1
	mov r10, r0
	mov r8, r0
	mov r6, r0
.Ltmp352:
.LBB11_4:
.Lxtalabel54:
	mov r5, r7
.Ltmp353:
	ldw r7, cp[.LCPI11_0]
.Ltmp354:
.LBB11_5:
.Lxtalabel55:
	.loc	1 119 0
	mov r0, r4
	mov r1, r9
.Lxta.call_labels33:
	bl highPulse
.Ltmp355:
	.loc	1 120 0
	shl r1, r10, 1
	.loc	1 120 0
	or r10, r1, r0
.Ltmp356:
	.loc	1 118 0
	add r7, r7, 1
.xtaloop 8
	# LOOPMARKER 1
.Lxta.loop_labels3:
	# LOOPMARKER 0
	.loc	1 118 0
	bt r7, .LBB11_5
.Ltmp357:
.Lxtalabel56:
	.loc	1 122 8
	ldw r0, sp[1]
	eq r0, r8, r0
	mov r7, r5
.Ltmp358:
	.loc	1 122 8
	bf r0, .LBB11_7
.Ltmp359:
.Lxtalabel57:
	.loc	1 126 0
	mov r0, r4
	mov r1, r9
	bu .LBB11_8
.Ltmp360:
.LBB11_7:
.Lxtalabel58:
	.loc	1 123 24
	ldw r0, r4[1]
	mov r1, r6
	.loc	1 123 24
.Lxta.endpoint_labels79:
	out res[r0], r1
	.loc	1 124 0
	mov r0, r4
.Ltmp361:
.LBB11_8:
.Lxtalabel59:
.Lxta.call_labels34:
	bl highPulse
.Ltmp362:
	ldw r0, sp[11]
	.loc	1 128 0
	lsu r0, r8, r0
.Ltrap_info2:
	ecallf r0
.Ltmp363:
	.loc	1 128 0
	ldw r0, sp[2]
	st8 r10, r0[r8]
	.loc	1 117 0
	add r8, r8, 1
.Ltmp364:
	.loc	1 117 0
	lss r0, r8, r7
.Lxta.loop_labels4:
	# LOOPMARKER 2
	bt r0, .LBB11_4
.Ltmp365:
.LBB11_9:
.Lxtalabel60:
	.loc	1 130 0
	mov r0, r4
.Lxta.call_labels35:
	bl stopBit
	mkmsk r0, 1
	bu .LBB11_10
.Ltmp366:
.LBB11_1:
.Lxtalabel61:
	.loc	1 89 0
	ldw r0, r4[0]
	.loc	1 89 0
	setc res[r0], 1
	.loc	1 89 0
.Ltmp367:
.Lxta.endpoint_labels80:
	in r0, res[r0]
	.loc	1 22 0
.Ltmp368:
	get r11, id
.Ltmp369:
	.loc	1 22 0
	ldaw r0, dp[__timers]
	.loc	1 22 0
	ldw r0, r0[r11]
	.loc	1 22 0
	setc res[r0], 1
	.loc	1 22 0
.Lxta.endpoint_labels81:
	in r1, res[r0]
.Ltmp370:
	.loc	1 23 0
	ldw r2, r4[2]
	.loc	1 23 0
	add r2, r2, 3
	.loc	1 23 0
	shr r2, r2, 2
	.loc	1 23 0
	add r1, r2, r1
.Ltmp371:
	.loc	1 24 0
	setd res[r0], r1
	.loc	1 24 0
	setc res[r0], 9
	.loc	1 24 0
.Ltmp372:
.Lxta.endpoint_labels82:
	in r0, res[r0]
.Ltmp373:
	.loc	1 91 0
	ldw r0, r4[1]
.Ltmp374:
	.loc	1 91 0
	setc res[r0], 1
	.loc	1 91 0
.Ltmp375:
.Lxta.endpoint_labels83:
	in r0, res[r0]
	ldc r0, 0
.Ltmp376:
.LBB11_10:
	ldw r10, sp[3]
	ldw r9, sp[4]
	ldw r8, sp[5]
	ldw r7, sp[6]
	ldw r6, sp[7]
	ldw r5, sp[8]
	ldw r4, sp[9]
	retsp 10
	# RETURN_REG_HOLDER
	.cc_bottom i2c_master_do_rx.function
	.set	i2c_master_do_rx.nstackwords,((tx8.nstackwords $M highPulse.nstackwords $M stopBit.nstackwords) + 10)
	.set	i2c_master_do_rx.maxcores,highPulse.maxcores $M stopBit.maxcores $M tx8.maxcores $M 1
	.set	i2c_master_do_rx.maxtimers,highPulse.maxtimers $M stopBit.maxtimers $M tx8.maxtimers $M 0
	.set	i2c_master_do_rx.maxchanends,highPulse.maxchanends $M stopBit.maxchanends $M tx8.maxchanends $M 0
.Ltmp377:
	.size	i2c_master_do_rx, .Ltmp377-i2c_master_do_rx
.Lfunc_end11:
	.cfi_endproc

.Ldebug_end0:
	.file	2 "/Applications/XMOS_xTIMEcomposer_Community_14.2.4/target/include/timer.h"
	.section	.xtacalltable,"",@progbits
.Lentries_start0:
	.long	.Lentries_end1-.Lentries_start0
	.long	0
	.ascii	"/Users/teig/workspace/_Aquarium_1_x/.build"
	.byte	0
.cc_top cc_0,.Lxta.call_labels29
	.ascii	"/Users/teig/workspace/module_i2c_master/src/i2c-mm.xc"
	.byte	0
	.long	99
	.long	.Lxta.call_labels29
.cc_bottom cc_0
.cc_top cc_1,.Lxta.call_labels30
	.ascii	"/Users/teig/workspace/module_i2c_master/src/i2c-mm.xc"
	.byte	0
	.long	104
	.long	.Lxta.call_labels30
.cc_bottom cc_1
.cc_top cc_2,.Lxta.call_labels31
	.ascii	"/Users/teig/workspace/module_i2c_master/src/i2c-mm.xc"
	.byte	0
	.long	108
	.long	.Lxta.call_labels31
.cc_bottom cc_2
.cc_top cc_3,.Lxta.call_labels32
	.ascii	"/Users/teig/workspace/module_i2c_master/src/i2c-mm.xc"
	.byte	0
	.long	116
	.long	.Lxta.call_labels32
.cc_bottom cc_3
.cc_top cc_4,.Lxta.call_labels33
	.ascii	"/Users/teig/workspace/module_i2c_master/src/i2c-mm.xc"
	.byte	0
	.long	119
	.long	.Lxta.call_labels33
.cc_bottom cc_4
.cc_top cc_5,.Lxta.call_labels34
	.ascii	"/Users/teig/workspace/module_i2c_master/src/i2c-mm.xc"
	.byte	0
	.long	124
	.long	.Lxta.call_labels34
.cc_bottom cc_5
.cc_top cc_6,.Lxta.call_labels35
	.ascii	"/Users/teig/workspace/module_i2c_master/src/i2c-mm.xc"
	.byte	0
	.long	130
	.long	.Lxta.call_labels35
.cc_bottom cc_6
.cc_top cc_7,.Lxta.call_labels0
	.ascii	"/Users/teig/workspace/module_i2c_master/src/i2c-mm.xc"
	.byte	0
	.long	135
	.long	.Lxta.call_labels0
.cc_bottom cc_7
.cc_top cc_8,.Lxta.call_labels1
	.ascii	"/Users/teig/workspace/module_i2c_master/src/i2c-mm.xc"
	.byte	0
	.long	136
	.long	.Lxta.call_labels1
.cc_bottom cc_8
.cc_top cc_9,.Lxta.call_labels2
	.ascii	"/Users/teig/workspace/module_i2c_master/src/i2c-mm.xc"
	.byte	0
	.long	140
	.long	.Lxta.call_labels2
.cc_bottom cc_9
.cc_top cc_10,.Lxta.call_labels3
	.ascii	"/Users/teig/workspace/module_i2c_master/src/i2c-mm.xc"
	.byte	0
	.long	141
	.long	.Lxta.call_labels3
.cc_bottom cc_10
.cc_top cc_11,.Lxta.call_labels4
	.ascii	"/Users/teig/workspace/module_i2c_master/src/i2c-mm.xc"
	.byte	0
	.long	142
	.long	.Lxta.call_labels4
.cc_bottom cc_11
.cc_top cc_12,.Lxta.call_labels5
	.ascii	"/Users/teig/workspace/module_i2c_master/src/i2c-mm.xc"
	.byte	0
	.long	148
	.long	.Lxta.call_labels5
.cc_bottom cc_12
.cc_top cc_13,.Lxta.call_labels6
	.ascii	"/Users/teig/workspace/module_i2c_master/src/i2c-mm.xc"
	.byte	0
	.long	149
	.long	.Lxta.call_labels6
.cc_bottom cc_13
.cc_top cc_14,.Lxta.call_labels7
	.ascii	"/Users/teig/workspace/module_i2c_master/src/i2c-mm.xc"
	.byte	0
	.long	153
	.long	.Lxta.call_labels7
.cc_bottom cc_14
.cc_top cc_15,.Lxta.call_labels8
	.ascii	"/Users/teig/workspace/module_i2c_master/src/i2c-mm.xc"
	.byte	0
	.long	154
	.long	.Lxta.call_labels8
.cc_bottom cc_15
.cc_top cc_16,.Lxta.call_labels9
	.ascii	"/Users/teig/workspace/module_i2c_master/src/i2c-mm.xc"
	.byte	0
	.long	155
	.long	.Lxta.call_labels9
.cc_bottom cc_16
.cc_top cc_17,.Lxta.call_labels10
	.ascii	"/Users/teig/workspace/module_i2c_master/src/i2c-mm.xc"
	.byte	0
	.long	156
	.long	.Lxta.call_labels10
.cc_bottom cc_17
.cc_top cc_18,.Lxta.call_labels11
	.ascii	"/Users/teig/workspace/module_i2c_master/src/i2c-mm.xc"
	.byte	0
	.long	161
	.long	.Lxta.call_labels11
.cc_bottom cc_18
.cc_top cc_19,.Lxta.call_labels12
	.ascii	"/Users/teig/workspace/module_i2c_master/src/i2c-mm.xc"
	.byte	0
	.long	162
	.long	.Lxta.call_labels12
.cc_bottom cc_19
.cc_top cc_20,.Lxta.call_labels13
	.ascii	"/Users/teig/workspace/module_i2c_master/src/i2c-mm.xc"
	.byte	0
	.long	168
	.long	.Lxta.call_labels13
.cc_bottom cc_20
.cc_top cc_21,.Lxta.call_labels14
	.ascii	"/Users/teig/workspace/module_i2c_master/src/i2c-mm.xc"
	.byte	0
	.long	169
	.long	.Lxta.call_labels14
.cc_bottom cc_21
.cc_top cc_22,.Lxta.call_labels15
	.ascii	"/Users/teig/workspace/module_i2c_master/src/i2c-mm.xc"
	.byte	0
	.long	174
	.long	.Lxta.call_labels15
.cc_bottom cc_22
.cc_top cc_23,.Lxta.call_labels16
	.ascii	"/Users/teig/workspace/module_i2c_master/src/i2c-mm.xc"
	.byte	0
	.long	178
	.long	.Lxta.call_labels16
.cc_bottom cc_23
.cc_top cc_24,.Lxta.call_labels17
	.ascii	"/Users/teig/workspace/module_i2c_master/src/i2c-mm.xc"
	.byte	0
	.long	180
	.long	.Lxta.call_labels17
.cc_bottom cc_24
.cc_top cc_25,.Lxta.call_labels18
	.ascii	"/Users/teig/workspace/module_i2c_master/src/i2c-mm.xc"
	.byte	0
	.long	186
	.long	.Lxta.call_labels18
.cc_bottom cc_25
.cc_top cc_26,.Lxta.call_labels19
	.ascii	"/Users/teig/workspace/module_i2c_master/src/i2c-mm.xc"
	.byte	0
	.long	187
	.long	.Lxta.call_labels19
.cc_bottom cc_26
.cc_top cc_27,.Lxta.call_labels20
	.ascii	"/Users/teig/workspace/module_i2c_master/src/i2c-mm.xc"
	.byte	0
	.long	189
	.long	.Lxta.call_labels20
.cc_bottom cc_27
.cc_top cc_28,.Lxta.call_labels21
	.ascii	"/Users/teig/workspace/module_i2c_master/src/i2c-mm.xc"
	.byte	0
	.long	190
	.long	.Lxta.call_labels21
.cc_bottom cc_28
.cc_top cc_29,.Lxta.call_labels22
	.ascii	"/Users/teig/workspace/module_i2c_master/src/i2c-mm.xc"
	.byte	0
	.long	193
	.long	.Lxta.call_labels22
.cc_bottom cc_29
.cc_top cc_30,.Lxta.call_labels23
	.ascii	"/Users/teig/workspace/module_i2c_master/src/i2c-mm.xc"
	.byte	0
	.long	195
	.long	.Lxta.call_labels23
.cc_bottom cc_30
.cc_top cc_31,.Lxta.call_labels24
	.ascii	"/Users/teig/workspace/module_i2c_master/src/i2c-mm.xc"
	.byte	0
	.long	201
	.long	.Lxta.call_labels24
.cc_bottom cc_31
.cc_top cc_32,.Lxta.call_labels25
	.ascii	"/Users/teig/workspace/module_i2c_master/src/i2c-mm.xc"
	.byte	0
	.long	202
	.long	.Lxta.call_labels25
.cc_bottom cc_32
.cc_top cc_33,.Lxta.call_labels26
	.ascii	"/Users/teig/workspace/module_i2c_master/src/i2c-mm.xc"
	.byte	0
	.long	203
	.long	.Lxta.call_labels26
.cc_bottom cc_33
.cc_top cc_34,.Lxta.call_labels27
	.ascii	"/Users/teig/workspace/module_i2c_master/src/i2c-mm.xc"
	.byte	0
	.long	208
	.long	.Lxta.call_labels27
.cc_bottom cc_34
.cc_top cc_35,.Lxta.call_labels28
	.ascii	"/Users/teig/workspace/module_i2c_master/src/i2c-mm.xc"
	.byte	0
	.long	209
	.long	.Lxta.call_labels28
.cc_bottom cc_35
.Lentries_end1:
	.section	.xtaendpointtable,"",@progbits
.Lentries_start2:
	.long	.Lentries_end3-.Lentries_start2
	.long	0
	.ascii	"/Users/teig/workspace/_Aquarium_1_x/.build"
	.byte	0
.cc_top cc_36,.Lxta.endpoint_labels0
	.ascii	"/Users/teig/workspace/module_i2c_master/src/i2c-mm.xc"
	.byte	0
	.long	14
	.long	.Lxta.endpoint_labels0
.cc_bottom cc_36
.cc_top cc_37,.Lxta.endpoint_labels1
	.ascii	"/Users/teig/workspace/module_i2c_master/src/i2c-mm.xc"
	.byte	0
	.long	15
	.long	.Lxta.endpoint_labels1
.cc_bottom cc_37
.cc_top cc_38,.Lxta.endpoint_labels81
	.ascii	"/Users/teig/workspace/module_i2c_master/src/i2c-mm.xc"
	.byte	0
	.long	22
	.long	.Lxta.endpoint_labels81
.cc_bottom cc_38
.cc_top cc_39,.Lxta.endpoint_labels3
	.ascii	"/Users/teig/workspace/module_i2c_master/src/i2c-mm.xc"
	.byte	0
	.long	22
	.long	.Lxta.endpoint_labels3
.cc_bottom cc_39
.cc_top cc_40,.Lxta.endpoint_labels76
	.ascii	"/Users/teig/workspace/module_i2c_master/src/i2c-mm.xc"
	.byte	0
	.long	22
	.long	.Lxta.endpoint_labels76
.cc_bottom cc_40
.cc_top cc_41,.Lxta.endpoint_labels73
	.ascii	"/Users/teig/workspace/module_i2c_master/src/i2c-mm.xc"
	.byte	0
	.long	22
	.long	.Lxta.endpoint_labels73
.cc_bottom cc_41
.cc_top cc_42,.Lxta.endpoint_labels6
	.ascii	"/Users/teig/workspace/module_i2c_master/src/i2c-mm.xc"
	.byte	0
	.long	22
	.long	.Lxta.endpoint_labels6
.cc_bottom cc_42
.cc_top cc_43,.Lxta.endpoint_labels71
	.ascii	"/Users/teig/workspace/module_i2c_master/src/i2c-mm.xc"
	.byte	0
	.long	22
	.long	.Lxta.endpoint_labels71
.cc_bottom cc_43
.cc_top cc_44,.Lxta.endpoint_labels68
	.ascii	"/Users/teig/workspace/module_i2c_master/src/i2c-mm.xc"
	.byte	0
	.long	22
	.long	.Lxta.endpoint_labels68
.cc_bottom cc_44
.cc_top cc_45,.Lxta.endpoint_labels9
	.ascii	"/Users/teig/workspace/module_i2c_master/src/i2c-mm.xc"
	.byte	0
	.long	22
	.long	.Lxta.endpoint_labels9
.cc_bottom cc_45
.cc_top cc_46,.Lxta.endpoint_labels65
	.ascii	"/Users/teig/workspace/module_i2c_master/src/i2c-mm.xc"
	.byte	0
	.long	22
	.long	.Lxta.endpoint_labels65
.cc_bottom cc_46
.cc_top cc_47,.Lxta.endpoint_labels62
	.ascii	"/Users/teig/workspace/module_i2c_master/src/i2c-mm.xc"
	.byte	0
	.long	22
	.long	.Lxta.endpoint_labels62
.cc_bottom cc_47
.cc_top cc_48,.Lxta.endpoint_labels60
	.ascii	"/Users/teig/workspace/module_i2c_master/src/i2c-mm.xc"
	.byte	0
	.long	22
	.long	.Lxta.endpoint_labels60
.cc_bottom cc_48
.cc_top cc_49,.Lxta.endpoint_labels13
	.ascii	"/Users/teig/workspace/module_i2c_master/src/i2c-mm.xc"
	.byte	0
	.long	22
	.long	.Lxta.endpoint_labels13
.cc_bottom cc_49
.cc_top cc_50,.Lxta.endpoint_labels57
	.ascii	"/Users/teig/workspace/module_i2c_master/src/i2c-mm.xc"
	.byte	0
	.long	22
	.long	.Lxta.endpoint_labels57
.cc_bottom cc_50
.cc_top cc_51,.Lxta.endpoint_labels50
	.ascii	"/Users/teig/workspace/module_i2c_master/src/i2c-mm.xc"
	.byte	0
	.long	22
	.long	.Lxta.endpoint_labels50
.cc_bottom cc_51
.cc_top cc_52,.Lxta.endpoint_labels16
	.ascii	"/Users/teig/workspace/module_i2c_master/src/i2c-mm.xc"
	.byte	0
	.long	22
	.long	.Lxta.endpoint_labels16
.cc_bottom cc_52
.cc_top cc_53,.Lxta.endpoint_labels47
	.ascii	"/Users/teig/workspace/module_i2c_master/src/i2c-mm.xc"
	.byte	0
	.long	22
	.long	.Lxta.endpoint_labels47
.cc_bottom cc_53
.cc_top cc_54,.Lxta.endpoint_labels44
	.ascii	"/Users/teig/workspace/module_i2c_master/src/i2c-mm.xc"
	.byte	0
	.long	22
	.long	.Lxta.endpoint_labels44
.cc_bottom cc_54
.cc_top cc_55,.Lxta.endpoint_labels19
	.ascii	"/Users/teig/workspace/module_i2c_master/src/i2c-mm.xc"
	.byte	0
	.long	22
	.long	.Lxta.endpoint_labels19
.cc_bottom cc_55
.cc_top cc_56,.Lxta.endpoint_labels41
	.ascii	"/Users/teig/workspace/module_i2c_master/src/i2c-mm.xc"
	.byte	0
	.long	22
	.long	.Lxta.endpoint_labels41
.cc_bottom cc_56
.cc_top cc_57,.Lxta.endpoint_labels37
	.ascii	"/Users/teig/workspace/module_i2c_master/src/i2c-mm.xc"
	.byte	0
	.long	22
	.long	.Lxta.endpoint_labels37
.cc_bottom cc_57
.cc_top cc_58,.Lxta.endpoint_labels34
	.ascii	"/Users/teig/workspace/module_i2c_master/src/i2c-mm.xc"
	.byte	0
	.long	22
	.long	.Lxta.endpoint_labels34
.cc_bottom cc_58
.cc_top cc_59,.Lxta.endpoint_labels23
	.ascii	"/Users/teig/workspace/module_i2c_master/src/i2c-mm.xc"
	.byte	0
	.long	22
	.long	.Lxta.endpoint_labels23
.cc_bottom cc_59
.cc_top cc_60,.Lxta.endpoint_labels31
	.ascii	"/Users/teig/workspace/module_i2c_master/src/i2c-mm.xc"
	.byte	0
	.long	22
	.long	.Lxta.endpoint_labels31
.cc_bottom cc_60
.cc_top cc_61,.Lxta.endpoint_labels27
	.ascii	"/Users/teig/workspace/module_i2c_master/src/i2c-mm.xc"
	.byte	0
	.long	22
	.long	.Lxta.endpoint_labels27
.cc_bottom cc_61
.cc_top cc_62,.Lxta.endpoint_labels42
	.ascii	"/Users/teig/workspace/module_i2c_master/src/i2c-mm.xc"
	.byte	0
	.long	24
	.long	.Lxta.endpoint_labels42
.cc_bottom cc_62
.cc_top cc_63,.Lxta.endpoint_labels48
	.ascii	"/Users/teig/workspace/module_i2c_master/src/i2c-mm.xc"
	.byte	0
	.long	24
	.long	.Lxta.endpoint_labels48
.cc_bottom cc_63
.cc_top cc_64,.Lxta.endpoint_labels28
	.ascii	"/Users/teig/workspace/module_i2c_master/src/i2c-mm.xc"
	.byte	0
	.long	24
	.long	.Lxta.endpoint_labels28
.cc_bottom cc_64
.cc_top cc_65,.Lxta.endpoint_labels82
	.ascii	"/Users/teig/workspace/module_i2c_master/src/i2c-mm.xc"
	.byte	0
	.long	24
	.long	.Lxta.endpoint_labels82
.cc_bottom cc_65
.cc_top cc_66,.Lxta.endpoint_labels66
	.ascii	"/Users/teig/workspace/module_i2c_master/src/i2c-mm.xc"
	.byte	0
	.long	24
	.long	.Lxta.endpoint_labels66
.cc_bottom cc_66
.cc_top cc_67,.Lxta.endpoint_labels24
	.ascii	"/Users/teig/workspace/module_i2c_master/src/i2c-mm.xc"
	.byte	0
	.long	24
	.long	.Lxta.endpoint_labels24
.cc_bottom cc_67
.cc_top cc_68,.Lxta.endpoint_labels32
	.ascii	"/Users/teig/workspace/module_i2c_master/src/i2c-mm.xc"
	.byte	0
	.long	24
	.long	.Lxta.endpoint_labels32
.cc_bottom cc_68
.cc_top cc_69,.Lxta.endpoint_labels77
	.ascii	"/Users/teig/workspace/module_i2c_master/src/i2c-mm.xc"
	.byte	0
	.long	24
	.long	.Lxta.endpoint_labels77
.cc_bottom cc_69
.cc_top cc_70,.Lxta.endpoint_labels10
	.ascii	"/Users/teig/workspace/module_i2c_master/src/i2c-mm.xc"
	.byte	0
	.long	24
	.long	.Lxta.endpoint_labels10
.cc_bottom cc_70
.cc_top cc_71,.Lxta.endpoint_labels35
	.ascii	"/Users/teig/workspace/module_i2c_master/src/i2c-mm.xc"
	.byte	0
	.long	24
	.long	.Lxta.endpoint_labels35
.cc_bottom cc_71
.cc_top cc_72,.Lxta.endpoint_labels63
	.ascii	"/Users/teig/workspace/module_i2c_master/src/i2c-mm.xc"
	.byte	0
	.long	24
	.long	.Lxta.endpoint_labels63
.cc_bottom cc_72
.cc_top cc_73,.Lxta.endpoint_labels4
	.ascii	"/Users/teig/workspace/module_i2c_master/src/i2c-mm.xc"
	.byte	0
	.long	24
	.long	.Lxta.endpoint_labels4
.cc_bottom cc_73
.cc_top cc_74,.Lxta.endpoint_labels38
	.ascii	"/Users/teig/workspace/module_i2c_master/src/i2c-mm.xc"
	.byte	0
	.long	24
	.long	.Lxta.endpoint_labels38
.cc_bottom cc_74
.cc_top cc_75,.Lxta.endpoint_labels61
	.ascii	"/Users/teig/workspace/module_i2c_master/src/i2c-mm.xc"
	.byte	0
	.long	24
	.long	.Lxta.endpoint_labels61
.cc_bottom cc_75
.cc_top cc_76,.Lxta.endpoint_labels7
	.ascii	"/Users/teig/workspace/module_i2c_master/src/i2c-mm.xc"
	.byte	0
	.long	24
	.long	.Lxta.endpoint_labels7
.cc_bottom cc_76
.cc_top cc_77,.Lxta.endpoint_labels20
	.ascii	"/Users/teig/workspace/module_i2c_master/src/i2c-mm.xc"
	.byte	0
	.long	24
	.long	.Lxta.endpoint_labels20
.cc_bottom cc_77
.cc_top cc_78,.Lxta.endpoint_labels58
	.ascii	"/Users/teig/workspace/module_i2c_master/src/i2c-mm.xc"
	.byte	0
	.long	24
	.long	.Lxta.endpoint_labels58
.cc_bottom cc_78
.cc_top cc_79,.Lxta.endpoint_labels14
	.ascii	"/Users/teig/workspace/module_i2c_master/src/i2c-mm.xc"
	.byte	0
	.long	24
	.long	.Lxta.endpoint_labels14
.cc_bottom cc_79
.cc_top cc_80,.Lxta.endpoint_labels72
	.ascii	"/Users/teig/workspace/module_i2c_master/src/i2c-mm.xc"
	.byte	0
	.long	24
	.long	.Lxta.endpoint_labels72
.cc_bottom cc_80
.cc_top cc_81,.Lxta.endpoint_labels45
	.ascii	"/Users/teig/workspace/module_i2c_master/src/i2c-mm.xc"
	.byte	0
	.long	24
	.long	.Lxta.endpoint_labels45
.cc_bottom cc_81
.cc_top cc_82,.Lxta.endpoint_labels51
	.ascii	"/Users/teig/workspace/module_i2c_master/src/i2c-mm.xc"
	.byte	0
	.long	24
	.long	.Lxta.endpoint_labels51
.cc_bottom cc_82
.cc_top cc_83,.Lxta.endpoint_labels17
	.ascii	"/Users/teig/workspace/module_i2c_master/src/i2c-mm.xc"
	.byte	0
	.long	24
	.long	.Lxta.endpoint_labels17
.cc_bottom cc_83
.cc_top cc_84,.Lxta.endpoint_labels69
	.ascii	"/Users/teig/workspace/module_i2c_master/src/i2c-mm.xc"
	.byte	0
	.long	24
	.long	.Lxta.endpoint_labels69
.cc_bottom cc_84
.cc_top cc_85,.Lxta.endpoint_labels74
	.ascii	"/Users/teig/workspace/module_i2c_master/src/i2c-mm.xc"
	.byte	0
	.long	24
	.long	.Lxta.endpoint_labels74
.cc_bottom cc_85
.cc_top cc_86,.Lxta.endpoint_labels40
	.ascii	"/Users/teig/workspace/module_i2c_master/src/i2c-mm.xc"
	.byte	0
	.long	35
	.long	.Lxta.endpoint_labels40
.cc_bottom cc_86
.cc_top cc_87,.Lxta.endpoint_labels43
	.ascii	"/Users/teig/workspace/module_i2c_master/src/i2c-mm.xc"
	.byte	0
	.long	38
	.long	.Lxta.endpoint_labels43
.cc_bottom cc_87
.cc_top cc_88,.Lxta.endpoint_labels46
	.ascii	"/Users/teig/workspace/module_i2c_master/src/i2c-mm.xc"
	.byte	0
	.long	41
	.long	.Lxta.endpoint_labels46
.cc_bottom cc_88
.cc_top cc_89,.Lxta.endpoint_labels49
	.ascii	"/Users/teig/workspace/module_i2c_master/src/i2c-mm.xc"
	.byte	0
	.long	44
	.long	.Lxta.endpoint_labels49
.cc_bottom cc_89
.cc_top cc_90,.Lxta.endpoint_labels52
	.ascii	"/Users/teig/workspace/module_i2c_master/src/i2c-mm.xc"
	.byte	0
	.long	56
	.long	.Lxta.endpoint_labels52
.cc_bottom cc_90
.cc_top cc_91,.Lxta.endpoint_labels55
	.ascii	"/Users/teig/workspace/module_i2c_master/src/i2c-mm.xc"
	.byte	0
	.long	58
	.long	.Lxta.endpoint_labels55
.cc_bottom cc_91
.cc_top cc_92,.Lxta.endpoint_labels56
	.ascii	"/Users/teig/workspace/module_i2c_master/src/i2c-mm.xc"
	.byte	0
	.long	58
	.long	.Lxta.endpoint_labels56
.cc_bottom cc_92
.cc_top cc_93,.Lxta.endpoint_labels54
	.ascii	"/Users/teig/workspace/module_i2c_master/src/i2c-mm.xc"
	.byte	0
	.long	58
	.long	.Lxta.endpoint_labels54
.cc_bottom cc_93
.cc_top cc_94,.Lxta.endpoint_labels53
	.ascii	"/Users/teig/workspace/module_i2c_master/src/i2c-mm.xc"
	.byte	0
	.long	60
	.long	.Lxta.endpoint_labels53
.cc_bottom cc_94
.cc_top cc_95,.Lxta.endpoint_labels59
	.ascii	"/Users/teig/workspace/module_i2c_master/src/i2c-mm.xc"
	.byte	0
	.long	73
	.long	.Lxta.endpoint_labels59
.cc_bottom cc_95
.cc_top cc_96,.Lxta.endpoint_labels64
	.ascii	"/Users/teig/workspace/module_i2c_master/src/i2c-mm.xc"
	.byte	0
	.long	75
	.long	.Lxta.endpoint_labels64
.cc_bottom cc_96
.cc_top cc_97,.Lxta.endpoint_labels67
	.ascii	"/Users/teig/workspace/module_i2c_master/src/i2c-mm.xc"
	.byte	0
	.long	80
	.long	.Lxta.endpoint_labels67
.cc_bottom cc_97
.cc_top cc_98,.Lxta.endpoint_labels70
	.ascii	"/Users/teig/workspace/module_i2c_master/src/i2c-mm.xc"
	.byte	0
	.long	82
	.long	.Lxta.endpoint_labels70
.cc_bottom cc_98
.cc_top cc_99,.Lxta.endpoint_labels75
	.ascii	"/Users/teig/workspace/module_i2c_master/src/i2c-mm.xc"
	.byte	0
	.long	84
	.long	.Lxta.endpoint_labels75
.cc_bottom cc_99
.cc_top cc_100,.Lxta.endpoint_labels18
	.ascii	"/Users/teig/workspace/module_i2c_master/src/i2c-mm.xc"
	.byte	0
	.long	89
	.long	.Lxta.endpoint_labels18
.cc_bottom cc_100
.cc_top cc_101,.Lxta.endpoint_labels22
	.ascii	"/Users/teig/workspace/module_i2c_master/src/i2c-mm.xc"
	.byte	0
	.long	89
	.long	.Lxta.endpoint_labels22
.cc_bottom cc_101
.cc_top cc_102,.Lxta.endpoint_labels80
	.ascii	"/Users/teig/workspace/module_i2c_master/src/i2c-mm.xc"
	.byte	0
	.long	89
	.long	.Lxta.endpoint_labels80
.cc_bottom cc_102
.cc_top cc_103,.Lxta.endpoint_labels26
	.ascii	"/Users/teig/workspace/module_i2c_master/src/i2c-mm.xc"
	.byte	0
	.long	89
	.long	.Lxta.endpoint_labels26
.cc_bottom cc_103
.cc_top cc_104,.Lxta.endpoint_labels8
	.ascii	"/Users/teig/workspace/module_i2c_master/src/i2c-mm.xc"
	.byte	0
	.long	89
	.long	.Lxta.endpoint_labels8
.cc_bottom cc_104
.cc_top cc_105,.Lxta.endpoint_labels36
	.ascii	"/Users/teig/workspace/module_i2c_master/src/i2c-mm.xc"
	.byte	0
	.long	89
	.long	.Lxta.endpoint_labels36
.cc_bottom cc_105
.cc_top cc_106,.Lxta.endpoint_labels11
	.ascii	"/Users/teig/workspace/module_i2c_master/src/i2c-mm.xc"
	.byte	0
	.long	91
	.long	.Lxta.endpoint_labels11
.cc_bottom cc_106
.cc_top cc_107,.Lxta.endpoint_labels83
	.ascii	"/Users/teig/workspace/module_i2c_master/src/i2c-mm.xc"
	.byte	0
	.long	91
	.long	.Lxta.endpoint_labels83
.cc_bottom cc_107
.cc_top cc_108,.Lxta.endpoint_labels25
	.ascii	"/Users/teig/workspace/module_i2c_master/src/i2c-mm.xc"
	.byte	0
	.long	91
	.long	.Lxta.endpoint_labels25
.cc_bottom cc_108
.cc_top cc_109,.Lxta.endpoint_labels21
	.ascii	"/Users/teig/workspace/module_i2c_master/src/i2c-mm.xc"
	.byte	0
	.long	91
	.long	.Lxta.endpoint_labels21
.cc_bottom cc_109
.cc_top cc_110,.Lxta.endpoint_labels29
	.ascii	"/Users/teig/workspace/module_i2c_master/src/i2c-mm.xc"
	.byte	0
	.long	91
	.long	.Lxta.endpoint_labels29
.cc_bottom cc_110
.cc_top cc_111,.Lxta.endpoint_labels39
	.ascii	"/Users/teig/workspace/module_i2c_master/src/i2c-mm.xc"
	.byte	0
	.long	91
	.long	.Lxta.endpoint_labels39
.cc_bottom cc_111
.cc_top cc_112,.Lxta.endpoint_labels78
	.ascii	"/Users/teig/workspace/module_i2c_master/src/i2c-mm.xc"
	.byte	0
	.long	103
	.long	.Lxta.endpoint_labels78
.cc_bottom cc_112
.cc_top cc_113,.Lxta.endpoint_labels79
	.ascii	"/Users/teig/workspace/module_i2c_master/src/i2c-mm.xc"
	.byte	0
	.long	123
	.long	.Lxta.endpoint_labels79
.cc_bottom cc_113
.cc_top cc_114,.Lxta.endpoint_labels2
	.ascii	"/Users/teig/workspace/module_i2c_master/src/i2c-mm.xc"
	.byte	0
	.long	144
	.long	.Lxta.endpoint_labels2
.cc_bottom cc_114
.cc_top cc_115,.Lxta.endpoint_labels5
	.ascii	"/Users/teig/workspace/module_i2c_master/src/i2c-mm.xc"
	.byte	0
	.long	146
	.long	.Lxta.endpoint_labels5
.cc_bottom cc_115
.cc_top cc_116,.Lxta.endpoint_labels12
	.ascii	"/Users/teig/workspace/module_i2c_master/src/i2c-mm.xc"
	.byte	0
	.long	157
	.long	.Lxta.endpoint_labels12
.cc_bottom cc_116
.cc_top cc_117,.Lxta.endpoint_labels15
	.ascii	"/Users/teig/workspace/module_i2c_master/src/i2c-mm.xc"
	.byte	0
	.long	159
	.long	.Lxta.endpoint_labels15
.cc_bottom cc_117
.cc_top cc_118,.Lxta.endpoint_labels30
	.ascii	"/Users/teig/workspace/module_i2c_master/src/i2c-mm.xc"
	.byte	0
	.long	204
	.long	.Lxta.endpoint_labels30
.cc_bottom cc_118
.cc_top cc_119,.Lxta.endpoint_labels33
	.ascii	"/Users/teig/workspace/module_i2c_master/src/i2c-mm.xc"
	.byte	0
	.long	206
	.long	.Lxta.endpoint_labels33
.cc_bottom cc_119
.Lentries_end3:
	.section	.xtalabeltable,"",@progbits
.Lentries_start4:
	.long	.Lentries_end5-.Lentries_start4
	.long	0
	.ascii	"/Users/teig/workspace/_Aquarium_1_x/.build"
	.byte	0
.cc_top cc_120,.Lxtalabel0
	.ascii	"/Users/teig/workspace/module_i2c_master/src/i2c-mm.xc"
	.byte	0
	.long	14
	.long	16
	.long	.Lxtalabel0
.cc_bottom cc_120
.cc_top cc_121,.Lxtalabel61
	.ascii	"/Users/teig/workspace/module_i2c_master/src/i2c-mm.xc"
	.byte	0
	.long	19
	.long	20
	.long	.Lxtalabel61
.cc_bottom cc_121
.cc_top cc_122,.Lxtalabel45
	.ascii	"/Users/teig/workspace/module_i2c_master/src/i2c-mm.xc"
	.byte	0
	.long	19
	.long	20
	.long	.Lxtalabel45
.cc_bottom cc_122
.cc_top cc_123,.Lxtalabel45
	.ascii	"/Users/teig/workspace/module_i2c_master/src/i2c-mm.xc"
	.byte	0
	.long	19
	.long	20
	.long	.Lxtalabel45
.cc_bottom cc_123
.cc_top cc_124,.Lxtalabel4
	.ascii	"/Users/teig/workspace/module_i2c_master/src/i2c-mm.xc"
	.byte	0
	.long	19
	.long	20
	.long	.Lxtalabel4
.cc_bottom cc_124
.cc_top cc_125,.Lxtalabel45
	.ascii	"/Users/teig/workspace/module_i2c_master/src/i2c-mm.xc"
	.byte	0
	.long	19
	.long	20
	.long	.Lxtalabel45
.cc_bottom cc_125
.cc_top cc_126,.Lxtalabel4
	.ascii	"/Users/teig/workspace/module_i2c_master/src/i2c-mm.xc"
	.byte	0
	.long	19
	.long	20
	.long	.Lxtalabel4
.cc_bottom cc_126
.cc_top cc_127,.Lxtalabel45
	.ascii	"/Users/teig/workspace/module_i2c_master/src/i2c-mm.xc"
	.byte	0
	.long	19
	.long	20
	.long	.Lxtalabel45
.cc_bottom cc_127
.cc_top cc_128,.Lxtalabel44
	.ascii	"/Users/teig/workspace/module_i2c_master/src/i2c-mm.xc"
	.byte	0
	.long	19
	.long	20
	.long	.Lxtalabel44
.cc_bottom cc_128
.cc_top cc_129,.Lxtalabel5
	.ascii	"/Users/teig/workspace/module_i2c_master/src/i2c-mm.xc"
	.byte	0
	.long	19
	.long	20
	.long	.Lxtalabel5
.cc_bottom cc_129
.cc_top cc_130,.Lxtalabel44
	.ascii	"/Users/teig/workspace/module_i2c_master/src/i2c-mm.xc"
	.byte	0
	.long	19
	.long	20
	.long	.Lxtalabel44
.cc_bottom cc_130
.cc_top cc_131,.Lxtalabel44
	.ascii	"/Users/teig/workspace/module_i2c_master/src/i2c-mm.xc"
	.byte	0
	.long	19
	.long	20
	.long	.Lxtalabel44
.cc_bottom cc_131
.cc_top cc_132,.Lxtalabel43
	.ascii	"/Users/teig/workspace/module_i2c_master/src/i2c-mm.xc"
	.byte	0
	.long	19
	.long	20
	.long	.Lxtalabel43
.cc_bottom cc_132
.cc_top cc_133,.Lxtalabel34
	.ascii	"/Users/teig/workspace/module_i2c_master/src/i2c-mm.xc"
	.byte	0
	.long	19
	.long	20
	.long	.Lxtalabel34
.cc_bottom cc_133
.cc_top cc_134,.Lxtalabel34
	.ascii	"/Users/teig/workspace/module_i2c_master/src/i2c-mm.xc"
	.byte	0
	.long	19
	.long	20
	.long	.Lxtalabel34
.cc_bottom cc_134
.cc_top cc_135,.Lxtalabel9
	.ascii	"/Users/teig/workspace/module_i2c_master/src/i2c-mm.xc"
	.byte	0
	.long	19
	.long	20
	.long	.Lxtalabel9
.cc_bottom cc_135
.cc_top cc_136,.Lxtalabel32
	.ascii	"/Users/teig/workspace/module_i2c_master/src/i2c-mm.xc"
	.byte	0
	.long	19
	.long	20
	.long	.Lxtalabel32
.cc_bottom cc_136
.cc_top cc_137,.Lxtalabel9
	.ascii	"/Users/teig/workspace/module_i2c_master/src/i2c-mm.xc"
	.byte	0
	.long	19
	.long	20
	.long	.Lxtalabel9
.cc_bottom cc_137
.cc_top cc_138,.Lxtalabel32
	.ascii	"/Users/teig/workspace/module_i2c_master/src/i2c-mm.xc"
	.byte	0
	.long	19
	.long	20
	.long	.Lxtalabel32
.cc_bottom cc_138
.cc_top cc_139,.Lxtalabel29
	.ascii	"/Users/teig/workspace/module_i2c_master/src/i2c-mm.xc"
	.byte	0
	.long	19
	.long	20
	.long	.Lxtalabel29
.cc_bottom cc_139
.cc_top cc_140,.Lxtalabel10
	.ascii	"/Users/teig/workspace/module_i2c_master/src/i2c-mm.xc"
	.byte	0
	.long	19
	.long	20
	.long	.Lxtalabel10
.cc_bottom cc_140
.cc_top cc_141,.Lxtalabel28
	.ascii	"/Users/teig/workspace/module_i2c_master/src/i2c-mm.xc"
	.byte	0
	.long	19
	.long	20
	.long	.Lxtalabel28
.cc_bottom cc_141
.cc_top cc_142,.Lxtalabel28
	.ascii	"/Users/teig/workspace/module_i2c_master/src/i2c-mm.xc"
	.byte	0
	.long	19
	.long	20
	.long	.Lxtalabel28
.cc_bottom cc_142
.cc_top cc_143,.Lxtalabel25
	.ascii	"/Users/teig/workspace/module_i2c_master/src/i2c-mm.xc"
	.byte	0
	.long	19
	.long	20
	.long	.Lxtalabel25
.cc_bottom cc_143
.cc_top cc_144,.Lxtalabel17
	.ascii	"/Users/teig/workspace/module_i2c_master/src/i2c-mm.xc"
	.byte	0
	.long	19
	.long	20
	.long	.Lxtalabel17
.cc_bottom cc_144
.cc_top cc_145,.Lxtalabel32
	.ascii	"/Users/teig/workspace/module_i2c_master/src/i2c-mm.xc"
	.byte	0
	.long	22
	.long	25
	.long	.Lxtalabel32
.cc_bottom cc_145
.cc_top cc_146,.Lxtalabel10
	.ascii	"/Users/teig/workspace/module_i2c_master/src/i2c-mm.xc"
	.byte	0
	.long	22
	.long	25
	.long	.Lxtalabel10
.cc_bottom cc_146
.cc_top cc_147,.Lxtalabel61
	.ascii	"/Users/teig/workspace/module_i2c_master/src/i2c-mm.xc"
	.byte	0
	.long	22
	.long	25
	.long	.Lxtalabel61
.cc_bottom cc_147
.cc_top cc_148,.Lxtalabel9
	.ascii	"/Users/teig/workspace/module_i2c_master/src/i2c-mm.xc"
	.byte	0
	.long	22
	.long	25
	.long	.Lxtalabel9
.cc_bottom cc_148
.cc_top cc_149,.Lxtalabel45
	.ascii	"/Users/teig/workspace/module_i2c_master/src/i2c-mm.xc"
	.byte	0
	.long	22
	.long	25
	.long	.Lxtalabel45
.cc_bottom cc_149
.cc_top cc_150,.Lxtalabel17
	.ascii	"/Users/teig/workspace/module_i2c_master/src/i2c-mm.xc"
	.byte	0
	.long	22
	.long	25
	.long	.Lxtalabel17
.cc_bottom cc_150
.cc_top cc_151,.Lxtalabel45
	.ascii	"/Users/teig/workspace/module_i2c_master/src/i2c-mm.xc"
	.byte	0
	.long	22
	.long	25
	.long	.Lxtalabel45
.cc_bottom cc_151
.cc_top cc_152,.Lxtalabel32
	.ascii	"/Users/teig/workspace/module_i2c_master/src/i2c-mm.xc"
	.byte	0
	.long	22
	.long	25
	.long	.Lxtalabel32
.cc_bottom cc_152
.cc_top cc_153,.Lxtalabel45
	.ascii	"/Users/teig/workspace/module_i2c_master/src/i2c-mm.xc"
	.byte	0
	.long	22
	.long	25
	.long	.Lxtalabel45
.cc_bottom cc_153
.cc_top cc_154,.Lxtalabel4
	.ascii	"/Users/teig/workspace/module_i2c_master/src/i2c-mm.xc"
	.byte	0
	.long	22
	.long	25
	.long	.Lxtalabel4
.cc_bottom cc_154
.cc_top cc_155,.Lxtalabel45
	.ascii	"/Users/teig/workspace/module_i2c_master/src/i2c-mm.xc"
	.byte	0
	.long	22
	.long	25
	.long	.Lxtalabel45
.cc_bottom cc_155
.cc_top cc_156,.Lxtalabel4
	.ascii	"/Users/teig/workspace/module_i2c_master/src/i2c-mm.xc"
	.byte	0
	.long	22
	.long	25
	.long	.Lxtalabel4
.cc_bottom cc_156
.cc_top cc_157,.Lxtalabel9
	.ascii	"/Users/teig/workspace/module_i2c_master/src/i2c-mm.xc"
	.byte	0
	.long	22
	.long	25
	.long	.Lxtalabel9
.cc_bottom cc_157
.cc_top cc_158,.Lxtalabel29
	.ascii	"/Users/teig/workspace/module_i2c_master/src/i2c-mm.xc"
	.byte	0
	.long	22
	.long	25
	.long	.Lxtalabel29
.cc_bottom cc_158
.cc_top cc_159,.Lxtalabel44
	.ascii	"/Users/teig/workspace/module_i2c_master/src/i2c-mm.xc"
	.byte	0
	.long	22
	.long	25
	.long	.Lxtalabel44
.cc_bottom cc_159
.cc_top cc_160,.Lxtalabel25
	.ascii	"/Users/teig/workspace/module_i2c_master/src/i2c-mm.xc"
	.byte	0
	.long	22
	.long	25
	.long	.Lxtalabel25
.cc_bottom cc_160
.cc_top cc_161,.Lxtalabel44
	.ascii	"/Users/teig/workspace/module_i2c_master/src/i2c-mm.xc"
	.byte	0
	.long	22
	.long	25
	.long	.Lxtalabel44
.cc_bottom cc_161
.cc_top cc_162,.Lxtalabel5
	.ascii	"/Users/teig/workspace/module_i2c_master/src/i2c-mm.xc"
	.byte	0
	.long	22
	.long	25
	.long	.Lxtalabel5
.cc_bottom cc_162
.cc_top cc_163,.Lxtalabel44
	.ascii	"/Users/teig/workspace/module_i2c_master/src/i2c-mm.xc"
	.byte	0
	.long	22
	.long	25
	.long	.Lxtalabel44
.cc_bottom cc_163
.cc_top cc_164,.Lxtalabel34
	.ascii	"/Users/teig/workspace/module_i2c_master/src/i2c-mm.xc"
	.byte	0
	.long	22
	.long	25
	.long	.Lxtalabel34
.cc_bottom cc_164
.cc_top cc_165,.Lxtalabel28
	.ascii	"/Users/teig/workspace/module_i2c_master/src/i2c-mm.xc"
	.byte	0
	.long	22
	.long	25
	.long	.Lxtalabel28
.cc_bottom cc_165
.cc_top cc_166,.Lxtalabel34
	.ascii	"/Users/teig/workspace/module_i2c_master/src/i2c-mm.xc"
	.byte	0
	.long	22
	.long	25
	.long	.Lxtalabel34
.cc_bottom cc_166
.cc_top cc_167,.Lxtalabel28
	.ascii	"/Users/teig/workspace/module_i2c_master/src/i2c-mm.xc"
	.byte	0
	.long	22
	.long	25
	.long	.Lxtalabel28
.cc_bottom cc_167
.cc_top cc_168,.Lxtalabel43
	.ascii	"/Users/teig/workspace/module_i2c_master/src/i2c-mm.xc"
	.byte	0
	.long	22
	.long	25
	.long	.Lxtalabel43
.cc_bottom cc_168
.cc_top cc_169,.Lxtalabel44
	.ascii	"/Users/teig/workspace/module_i2c_master/src/i2c-mm.xc"
	.byte	0
	.long	28
	.long	30
	.long	.Lxtalabel44
.cc_bottom cc_169
.cc_top cc_170,.Lxtalabel45
	.ascii	"/Users/teig/workspace/module_i2c_master/src/i2c-mm.xc"
	.byte	0
	.long	28
	.long	30
	.long	.Lxtalabel45
.cc_bottom cc_170
.cc_top cc_171,.Lxtalabel30
	.ascii	"/Users/teig/workspace/module_i2c_master/src/i2c-mm.xc"
	.byte	0
	.long	33
	.long	34
	.long	.Lxtalabel30
.cc_bottom cc_171
.cc_top cc_172,.Lxtalabel31
	.ascii	"/Users/teig/workspace/module_i2c_master/src/i2c-mm.xc"
	.byte	0
	.long	35
	.long	36
	.long	.Lxtalabel31
.cc_bottom cc_172
.cc_top cc_173,.Lxtalabel32
	.ascii	"/Users/teig/workspace/module_i2c_master/src/i2c-mm.xc"
	.byte	0
	.long	37
	.long	40
	.long	.Lxtalabel32
.cc_bottom cc_173
.cc_top cc_174,.Lxtalabel33
	.ascii	"/Users/teig/workspace/module_i2c_master/src/i2c-mm.xc"
	.byte	0
	.long	41
	.long	42
	.long	.Lxtalabel33
.cc_bottom cc_174
.cc_top cc_175,.Lxtalabel34
	.ascii	"/Users/teig/workspace/module_i2c_master/src/i2c-mm.xc"
	.byte	0
	.long	43
	.long	47
	.long	.Lxtalabel34
.cc_bottom cc_175
.cc_top cc_176,.Lxtalabel35
	.ascii	"/Users/teig/workspace/module_i2c_master/src/i2c-mm.xc"
	.byte	0
	.long	50
	.long	50
	.long	.Lxtalabel35
.cc_bottom cc_176
.cc_top cc_177,.Lxtalabel36
	.ascii	"/Users/teig/workspace/module_i2c_master/src/i2c-mm.xc"
	.byte	0
	.long	51
	.long	57
	.long	.Lxtalabel36
.cc_bottom cc_177
.cc_top cc_178,.Lxtalabel37
	.ascii	"/Users/teig/workspace/module_i2c_master/src/i2c-mm.xc"
	.byte	0
	.long	58
	.long	59
	.long	.Lxtalabel37
.cc_bottom cc_178
.cc_top cc_179,.Lxtalabel39
	.ascii	"/Users/teig/workspace/module_i2c_master/src/i2c-mm.xc"
	.byte	0
	.long	58
	.long	59
	.long	.Lxtalabel39
.cc_bottom cc_179
.cc_top cc_180,.Lxtalabel38
	.ascii	"/Users/teig/workspace/module_i2c_master/src/i2c-mm.xc"
	.byte	0
	.long	58
	.long	59
	.long	.Lxtalabel38
.cc_bottom cc_180
.cc_top cc_181,.Lxtalabel41
	.ascii	"/Users/teig/workspace/module_i2c_master/src/i2c-mm.xc"
	.byte	0
	.long	60
	.long	62
	.long	.Lxtalabel41
.cc_bottom cc_181
.cc_top cc_182,.Lxtalabel40
	.ascii	"/Users/teig/workspace/module_i2c_master/src/i2c-mm.xc"
	.byte	0
	.long	63
	.long	65
	.long	.Lxtalabel40
.cc_bottom cc_182
.cc_top cc_183,.Lxtalabel42
	.ascii	"/Users/teig/workspace/module_i2c_master/src/i2c-mm.xc"
	.byte	0
	.long	66
	.long	68
	.long	.Lxtalabel42
.cc_bottom cc_183
.cc_top cc_184,.Lxtalabel43
	.ascii	"/Users/teig/workspace/module_i2c_master/src/i2c-mm.xc"
	.byte	0
	.long	71
	.long	72
	.long	.Lxtalabel43
.cc_bottom cc_184
.cc_top cc_185,.Lxtalabel44
	.ascii	"/Users/teig/workspace/module_i2c_master/src/i2c-mm.xc"
	.byte	0
	.long	73
	.long	77
	.long	.Lxtalabel44
.cc_bottom cc_185
.cc_top cc_186,.Lxtalabel45
	.ascii	"/Users/teig/workspace/module_i2c_master/src/i2c-mm.xc"
	.byte	0
	.long	80
	.long	86
	.long	.Lxtalabel45
.cc_bottom cc_186
.cc_top cc_187,.Lxtalabel61
	.ascii	"/Users/teig/workspace/module_i2c_master/src/i2c-mm.xc"
	.byte	0
	.long	89
	.long	93
	.long	.Lxtalabel61
.cc_bottom cc_187
.cc_top cc_188,.Lxtalabel5
	.ascii	"/Users/teig/workspace/module_i2c_master/src/i2c-mm.xc"
	.byte	0
	.long	89
	.long	93
	.long	.Lxtalabel5
.cc_bottom cc_188
.cc_top cc_189,.Lxtalabel10
	.ascii	"/Users/teig/workspace/module_i2c_master/src/i2c-mm.xc"
	.byte	0
	.long	89
	.long	93
	.long	.Lxtalabel10
.cc_bottom cc_189
.cc_top cc_190,.Lxtalabel17
	.ascii	"/Users/teig/workspace/module_i2c_master/src/i2c-mm.xc"
	.byte	0
	.long	89
	.long	93
	.long	.Lxtalabel17
.cc_bottom cc_190
.cc_top cc_191,.Lxtalabel29
	.ascii	"/Users/teig/workspace/module_i2c_master/src/i2c-mm.xc"
	.byte	0
	.long	89
	.long	93
	.long	.Lxtalabel29
.cc_bottom cc_191
.cc_top cc_192,.Lxtalabel25
	.ascii	"/Users/teig/workspace/module_i2c_master/src/i2c-mm.xc"
	.byte	0
	.long	89
	.long	93
	.long	.Lxtalabel25
.cc_bottom cc_192
.cc_top cc_193,.Lxtalabel46
	.ascii	"/Users/teig/workspace/module_i2c_master/src/i2c-mm.xc"
	.byte	0
	.long	96
	.long	97
	.long	.Lxtalabel46
.cc_bottom cc_193
.cc_top cc_194,.Lxtalabel47
	.ascii	"/Users/teig/workspace/module_i2c_master/src/i2c-mm.xc"
	.byte	0
	.long	98
	.long	98
	.long	.Lxtalabel47
.cc_bottom cc_194
.cc_top cc_195,.Lxtalabel48
	.ascii	"/Users/teig/workspace/module_i2c_master/src/i2c-mm.xc"
	.byte	0
	.long	99
	.long	99
	.long	.Lxtalabel48
.cc_bottom cc_195
.cc_top cc_196,.Lxtalabel48
	.ascii	"/Users/teig/workspace/module_i2c_master/src/i2c-mm.xc"
	.byte	0
	.long	100
	.long	101
	.long	.Lxtalabel48
.cc_bottom cc_196
.cc_top cc_197,.Lxtalabel48
	.ascii	"/Users/teig/workspace/module_i2c_master/src/i2c-mm.xc"
	.byte	0
	.long	102
	.long	102
	.long	.Lxtalabel48
.cc_bottom cc_197
.cc_top cc_198,.Lxtalabel49
	.ascii	"/Users/teig/workspace/module_i2c_master/src/i2c-mm.xc"
	.byte	0
	.long	103
	.long	105
	.long	.Lxtalabel49
.cc_bottom cc_198
.cc_top cc_199,.Lxtalabel50
	.ascii	"/Users/teig/workspace/module_i2c_master/src/i2c-mm.xc"
	.byte	0
	.long	106
	.long	107
	.long	.Lxtalabel50
.cc_bottom cc_199
.cc_top cc_200,.Lxtalabel51
	.ascii	"/Users/teig/workspace/module_i2c_master/src/i2c-mm.xc"
	.byte	0
	.long	108
	.long	109
	.long	.Lxtalabel51
.cc_bottom cc_200
.cc_top cc_201,.Lxtalabel52
	.ascii	"/Users/teig/workspace/module_i2c_master/src/i2c-mm.xc"
	.byte	0
	.long	113
	.long	114
	.long	.Lxtalabel52
.cc_bottom cc_201
.cc_top cc_202,.Lxtalabel52
	.ascii	"/Users/teig/workspace/module_i2c_master/src/i2c-mm.xc"
	.byte	0
	.long	116
	.long	116
	.long	.Lxtalabel52
.cc_bottom cc_202
.cc_top cc_203,.Lxtalabel53
	.ascii	"/Users/teig/workspace/module_i2c_master/src/i2c-mm.xc"
	.byte	0
	.long	117
	.long	117
	.long	.Lxtalabel53
.cc_bottom cc_203
.cc_top cc_204,.Lxtalabel54
	.ascii	"/Users/teig/workspace/module_i2c_master/src/i2c-mm.xc"
	.byte	0
	.long	118
	.long	118
	.long	.Lxtalabel54
.cc_bottom cc_204
.cc_top cc_205,.Lxtalabel55
	.ascii	"/Users/teig/workspace/module_i2c_master/src/i2c-mm.xc"
	.byte	0
	.long	119
	.long	121
	.long	.Lxtalabel55
.cc_bottom cc_205
.cc_top cc_206,.Lxtalabel56
	.ascii	"/Users/teig/workspace/module_i2c_master/src/i2c-mm.xc"
	.byte	0
	.long	122
	.long	122
	.long	.Lxtalabel56
.cc_bottom cc_206
.cc_top cc_207,.Lxtalabel58
	.ascii	"/Users/teig/workspace/module_i2c_master/src/i2c-mm.xc"
	.byte	0
	.long	123
	.long	125
	.long	.Lxtalabel58
.cc_bottom cc_207
.cc_top cc_208,.Lxtalabel57
	.ascii	"/Users/teig/workspace/module_i2c_master/src/i2c-mm.xc"
	.byte	0
	.long	126
	.long	127
	.long	.Lxtalabel57
.cc_bottom cc_208
.cc_top cc_209,.Lxtalabel59
	.ascii	"/Users/teig/workspace/module_i2c_master/src/i2c-mm.xc"
	.byte	0
	.long	128
	.long	129
	.long	.Lxtalabel59
.cc_bottom cc_209
.cc_top cc_210,.Lxtalabel60
	.ascii	"/Users/teig/workspace/module_i2c_master/src/i2c-mm.xc"
	.byte	0
	.long	130
	.long	132
	.long	.Lxtalabel60
.cc_bottom cc_210
.cc_top cc_211,.Lxtalabel1
	.ascii	"/Users/teig/workspace/module_i2c_master/src/i2c-mm.xc"
	.byte	0
	.long	135
	.long	137
	.long	.Lxtalabel1
.cc_bottom cc_211
.cc_top cc_212,.Lxtalabel2
	.ascii	"/Users/teig/workspace/module_i2c_master/src/i2c-mm.xc"
	.byte	0
	.long	140
	.long	141
	.long	.Lxtalabel2
.cc_bottom cc_212
.cc_top cc_213,.Lxtalabel3
	.ascii	"/Users/teig/workspace/module_i2c_master/src/i2c-mm.xc"
	.byte	0
	.long	142
	.long	142
	.long	.Lxtalabel3
.cc_bottom cc_213
.cc_top cc_214,.Lxtalabel4
	.ascii	"/Users/teig/workspace/module_i2c_master/src/i2c-mm.xc"
	.byte	0
	.long	144
	.long	150
	.long	.Lxtalabel4
.cc_bottom cc_214
.cc_top cc_215,.Lxtalabel6
	.ascii	"/Users/teig/workspace/module_i2c_master/src/i2c-mm.xc"
	.byte	0
	.long	153
	.long	154
	.long	.Lxtalabel6
.cc_bottom cc_215
.cc_top cc_216,.Lxtalabel7
	.ascii	"/Users/teig/workspace/module_i2c_master/src/i2c-mm.xc"
	.byte	0
	.long	155
	.long	155
	.long	.Lxtalabel7
.cc_bottom cc_216
.cc_top cc_217,.Lxtalabel8
	.ascii	"/Users/teig/workspace/module_i2c_master/src/i2c-mm.xc"
	.byte	0
	.long	156
	.long	156
	.long	.Lxtalabel8
.cc_bottom cc_217
.cc_top cc_218,.Lxtalabel9
	.ascii	"/Users/teig/workspace/module_i2c_master/src/i2c-mm.xc"
	.byte	0
	.long	157
	.long	163
	.long	.Lxtalabel9
.cc_bottom cc_218
.cc_top cc_219,.Lxtalabel11
	.ascii	"/Users/teig/workspace/module_i2c_master/src/i2c-mm.xc"
	.byte	0
	.long	168
	.long	169
	.long	.Lxtalabel11
.cc_bottom cc_219
.cc_top cc_220,.Lxtalabel12
	.ascii	"/Users/teig/workspace/module_i2c_master/src/i2c-mm.xc"
	.byte	0
	.long	174
	.long	174
	.long	.Lxtalabel12
.cc_bottom cc_220
.cc_top cc_221,.Lxtalabel13
	.ascii	"/Users/teig/workspace/module_i2c_master/src/i2c-mm.xc"
	.byte	0
	.long	177
	.long	177
	.long	.Lxtalabel13
.cc_bottom cc_221
.cc_top cc_222,.Lxtalabel14
	.ascii	"/Users/teig/workspace/module_i2c_master/src/i2c-mm.xc"
	.byte	0
	.long	178
	.long	178
	.long	.Lxtalabel14
.cc_bottom cc_222
.cc_top cc_223,.Lxtalabel15
	.ascii	"/Users/teig/workspace/module_i2c_master/src/i2c-mm.xc"
	.byte	0
	.long	179
	.long	179
	.long	.Lxtalabel15
.cc_bottom cc_223
.cc_top cc_224,.Lxtalabel16
	.ascii	"/Users/teig/workspace/module_i2c_master/src/i2c-mm.xc"
	.byte	0
	.long	180
	.long	182
	.long	.Lxtalabel16
.cc_bottom cc_224
.cc_top cc_225,.Lxtalabel18
	.ascii	"/Users/teig/workspace/module_i2c_master/src/i2c-mm.xc"
	.byte	0
	.long	186
	.long	187
	.long	.Lxtalabel18
.cc_bottom cc_225
.cc_top cc_226,.Lxtalabel19
	.ascii	"/Users/teig/workspace/module_i2c_master/src/i2c-mm.xc"
	.byte	0
	.long	189
	.long	189
	.long	.Lxtalabel19
.cc_bottom cc_226
.cc_top cc_227,.Lxtalabel20
	.ascii	"/Users/teig/workspace/module_i2c_master/src/i2c-mm.xc"
	.byte	0
	.long	190
	.long	190
	.long	.Lxtalabel20
.cc_bottom cc_227
.cc_top cc_228,.Lxtalabel21
	.ascii	"/Users/teig/workspace/module_i2c_master/src/i2c-mm.xc"
	.byte	0
	.long	192
	.long	192
	.long	.Lxtalabel21
.cc_bottom cc_228
.cc_top cc_229,.Lxtalabel22
	.ascii	"/Users/teig/workspace/module_i2c_master/src/i2c-mm.xc"
	.byte	0
	.long	193
	.long	193
	.long	.Lxtalabel22
.cc_bottom cc_229
.cc_top cc_230,.Lxtalabel23
	.ascii	"/Users/teig/workspace/module_i2c_master/src/i2c-mm.xc"
	.byte	0
	.long	194
	.long	194
	.long	.Lxtalabel23
.cc_bottom cc_230
.cc_top cc_231,.Lxtalabel24
	.ascii	"/Users/teig/workspace/module_i2c_master/src/i2c-mm.xc"
	.byte	0
	.long	195
	.long	197
	.long	.Lxtalabel24
.cc_bottom cc_231
.cc_top cc_232,.Lxtalabel26
	.ascii	"/Users/teig/workspace/module_i2c_master/src/i2c-mm.xc"
	.byte	0
	.long	201
	.long	202
	.long	.Lxtalabel26
.cc_bottom cc_232
.cc_top cc_233,.Lxtalabel27
	.ascii	"/Users/teig/workspace/module_i2c_master/src/i2c-mm.xc"
	.byte	0
	.long	203
	.long	203
	.long	.Lxtalabel27
.cc_bottom cc_233
.cc_top cc_234,.Lxtalabel28
	.ascii	"/Users/teig/workspace/module_i2c_master/src/i2c-mm.xc"
	.byte	0
	.long	204
	.long	210
	.long	.Lxtalabel28
.cc_bottom cc_234
.Lentries_end5:
	.section	.xtalooplabeltable,"",@progbits
.Lentries_start6:
	.long	.Lentries_end7-.Lentries_start6
	.long	0
	.ascii	"/Users/teig/workspace/_Aquarium_1_x/.build"
	.byte	0
.cc_top cc_235,.Lxta.loop_labels2
	.ascii	"/Users/teig/workspace/module_i2c_master/src/i2c-mm.xc"
	.byte	0
	.long	98
	.long	107
	.long	.Lxta.loop_labels2
.cc_bottom cc_235
.cc_top cc_236,.Lxta.loop_labels4
	.ascii	"/Users/teig/workspace/module_i2c_master/src/i2c-mm.xc"
	.byte	0
	.long	118
	.long	118
	.long	.Lxta.loop_labels4
.cc_bottom cc_236
.cc_top cc_237,.Lxta.loop_labels3
	.ascii	"/Users/teig/workspace/module_i2c_master/src/i2c-mm.xc"
	.byte	0
	.long	119
	.long	121
	.long	.Lxta.loop_labels3
.cc_bottom cc_237
.cc_top cc_238,.Lxta.loop_labels4
	.ascii	"/Users/teig/workspace/module_i2c_master/src/i2c-mm.xc"
	.byte	0
	.long	122
	.long	129
	.long	.Lxta.loop_labels4
.cc_bottom cc_238
.cc_top cc_239,.Lxta.loop_labels0
	.ascii	"/Users/teig/workspace/module_i2c_master/src/i2c-mm.xc"
	.byte	0
	.long	178
	.long	179
	.long	.Lxta.loop_labels0
.cc_bottom cc_239
.cc_top cc_240,.Lxta.loop_labels1
	.ascii	"/Users/teig/workspace/module_i2c_master/src/i2c-mm.xc"
	.byte	0
	.long	193
	.long	194
	.long	.Lxta.loop_labels1
.cc_bottom cc_240
.Lentries_end7:
	.section	.trap_info,"",@progbits
.Ltrap_info_entries_start0:
	.long	.Ltrap_info_entries_end0-.Ltrap_info_entries_start0
	.long	1
	.section	.trap_info_str,"MS",@progbits
.Ltrap_info_str0:
.asciiz"/Users/teig/workspace/module_i2c_master/src/i2c-mm.xc:178:22: error: out of bounds array access\n       if (!tx8(i2c, s_data[j])) return floatWires(i2c);\n                     ^~~~~~~~~\n"
	.section	.trap_info,"",@progbits
.cc_top cc_trapinfo_0,.Ltrap_info0
	.long	.Ltrap_info0
	.long	.Ltrap_info_str0
.cc_bottom cc_trapinfo_0
	.section	.trap_info_str,"MS",@progbits
.Ltrap_info_str1:
.asciiz"/Users/teig/workspace/module_i2c_master/src/i2c-mm.xc:193:22: error: out of bounds array access\n       if (!tx8(i2c, s_data[j])) return floatWires(i2c);\n                     ^~~~~~~~~\n"
	.section	.trap_info,"",@progbits
.cc_top cc_trapinfo_1,.Ltrap_info1
	.long	.Ltrap_info1
	.long	.Ltrap_info_str1
.cc_bottom cc_trapinfo_1
	.section	.trap_info_str,"MS",@progbits
.Ltrap_info_str2:
.asciiz"/Users/teig/workspace/module_i2c_master/src/i2c-mm.xc:128:8: error: out of bounds array access\n       data[j] = rdData;\n       ^~~~~~~\n"
	.section	.trap_info,"",@progbits
.cc_top cc_trapinfo_2,.Ltrap_info2
	.long	.Ltrap_info2
	.long	.Ltrap_info_str2
.cc_bottom cc_trapinfo_2
.Ltrap_info_entries_end0: