	.text
	.file	"/Users/teig/workspace/lib_startkit_support/src/startkit_gpio.xc"

	.inline_definition delay_seconds
	.inline_definition delay_milliseconds
	.inline_definition delay_microseconds
	.set startkit_led_driver.select.0.enable.savedstate,21
	.globl startkit_led_driver.select.0.enable.savedstate
	.set startkit_led_driver.select.0.enable.cases.maxtimers,0 $M startkit_led_driver.select.0.case.0.maxtimers
	.globl startkit_led_driver.select.0.enable.cases.maxtimers
	.set startkit_led_driver.select.0.enable.cases.maxcores,0 $M startkit_led_driver.select.0.case.0.maxcores
	.globl startkit_led_driver.select.0.enable.cases.maxcores
	.set startkit_led_driver.select.0.enable.cases.maxchanends,0 $M startkit_led_driver.select.0.case.0.maxchanends
	.globl startkit_led_driver.select.0.enable.cases.maxchanends
	.set startkit_led_driver.select.0.enable.cases,0
	.globl startkit_led_driver.select.0.enable.cases
	.set startkit_led_driver.select.0.enable.cases.nstackwords, 0 $M (startkit_led_driver.select.0.case.0.nstackwords)
	.globl startkit_led_driver.select.0.enable.cases.nstackwords
	.set startkit_led_driver.dynalloc_maxchanends, 0
	.globl startkit_led_driver.dynalloc_maxchanends
	.set startkit_led_driver.dynalloc_maxcores, 0
	.globl startkit_led_driver.dynalloc_maxcores
	.set startkit_led_driver.dynalloc_maxtimers, 0
	.globl startkit_led_driver.dynalloc_maxtimers
	.set startkit_led_driver.init.0.savedstate,21
	.globl startkit_led_driver.init.0.savedstate
	.set startkit_led_driver.select.yield.enable.savedstate,21
	.globl startkit_led_driver.select.yield.enable.savedstate
	.set startkit_led_driver.select.yield.enable.cases.maxtimers,0 $M startkit_led_driver.select.yield.case.0.maxtimers
	.globl startkit_led_driver.select.yield.enable.cases.maxtimers
	.set startkit_led_driver.select.yield.enable.cases.maxcores,0 $M startkit_led_driver.select.yield.case.0.maxcores
	.globl startkit_led_driver.select.yield.enable.cases.maxcores
	.set startkit_led_driver.select.yield.enable.cases.maxchanends,0 $M startkit_led_driver.select.yield.case.0.maxchanends
	.globl startkit_led_driver.select.yield.enable.cases.maxchanends
	.set startkit_led_driver.select.yield.enable.cases,0
	.globl startkit_led_driver.select.yield.enable.cases
	.set startkit_led_driver.select.yield.enable.cases.nstackwords, 0 $M (startkit_led_driver.select.yield.case.0.nstackwords)
	.globl startkit_led_driver.select.yield.enable.cases.nstackwords
	.set startkit_led_driver.select.enable.savedstate,21
	.globl startkit_led_driver.select.enable.savedstate
	.set startkit_led_driver.select.enable.cases.maxtimers,0 $M startkit_led_driver.select.case.0.maxtimers
	.globl startkit_led_driver.select.enable.cases.maxtimers
	.set startkit_led_driver.select.enable.cases.maxcores,0 $M startkit_led_driver.select.case.0.maxcores
	.globl startkit_led_driver.select.enable.cases.maxcores
	.set startkit_led_driver.select.enable.cases.maxchanends,0 $M startkit_led_driver.select.case.0.maxchanends
	.globl startkit_led_driver.select.enable.cases.maxchanends
	.set startkit_led_driver.select.enable.cases,0
	.globl startkit_led_driver.select.enable.cases
	.set startkit_led_driver.select.enable.cases.nstackwords, 0 $M (startkit_led_driver.select.case.0.nstackwords)
	.globl startkit_led_driver.select.enable.cases.nstackwords
	.set startkit_gpio_driver_aux.select.0.enable.savedstate,29
	.globl startkit_gpio_driver_aux.select.0.enable.savedstate
	.set startkit_gpio_driver_aux.select.0.enable.cases.maxtimers,0 $M startkit_gpio_driver_aux.select.0.case.0.maxtimers
	.globl startkit_gpio_driver_aux.select.0.enable.cases.maxtimers
	.set startkit_gpio_driver_aux.select.0.enable.cases.maxcores,0 $M startkit_gpio_driver_aux.select.0.case.0.maxcores
	.globl startkit_gpio_driver_aux.select.0.enable.cases.maxcores
	.set startkit_gpio_driver_aux.select.0.enable.cases.maxchanends,0 $M startkit_gpio_driver_aux.select.0.case.0.maxchanends
	.globl startkit_gpio_driver_aux.select.0.enable.cases.maxchanends
	.set startkit_gpio_driver_aux.select.0.enable.cases,0
	.globl startkit_gpio_driver_aux.select.0.enable.cases
	.set startkit_gpio_driver_aux.select.0.enable.cases.nstackwords, 0 $M (startkit_gpio_driver_aux.select.0.case.0.nstackwords)
	.globl startkit_gpio_driver_aux.select.0.enable.cases.nstackwords
	.set startkit_gpio_driver_aux.select.1.enable.savedstate,29
	.globl startkit_gpio_driver_aux.select.1.enable.savedstate
	.set startkit_gpio_driver_aux.select.1.enable.cases.maxtimers,0 $M startkit_gpio_driver_aux.select.1.case.0.maxtimers
	.globl startkit_gpio_driver_aux.select.1.enable.cases.maxtimers
	.set startkit_gpio_driver_aux.select.1.enable.cases.maxcores,0 $M startkit_gpio_driver_aux.select.1.case.0.maxcores
	.globl startkit_gpio_driver_aux.select.1.enable.cases.maxcores
	.set startkit_gpio_driver_aux.select.1.enable.cases.maxchanends,0 $M startkit_gpio_driver_aux.select.1.case.0.maxchanends
	.globl startkit_gpio_driver_aux.select.1.enable.cases.maxchanends
	.set startkit_gpio_driver_aux.select.1.enable.cases,0
	.globl startkit_gpio_driver_aux.select.1.enable.cases
	.set startkit_gpio_driver_aux.select.1.enable.cases.nstackwords, 0 $M (startkit_gpio_driver_aux.select.1.case.0.nstackwords)
	.globl startkit_gpio_driver_aux.select.1.enable.cases.nstackwords
	.set startkit_gpio_driver_aux.select.2.enable.savedstate,29
	.globl startkit_gpio_driver_aux.select.2.enable.savedstate
	.set startkit_gpio_driver_aux.select.2.enable.cases.maxtimers,0 $M startkit_gpio_driver_aux.select.2.case.0.maxtimers
	.globl startkit_gpio_driver_aux.select.2.enable.cases.maxtimers
	.set startkit_gpio_driver_aux.select.2.enable.cases.maxcores,0 $M startkit_gpio_driver_aux.select.2.case.0.maxcores
	.globl startkit_gpio_driver_aux.select.2.enable.cases.maxcores
	.set startkit_gpio_driver_aux.select.2.enable.cases.maxchanends,0 $M startkit_gpio_driver_aux.select.2.case.0.maxchanends
	.globl startkit_gpio_driver_aux.select.2.enable.cases.maxchanends
	.set startkit_gpio_driver_aux.select.2.enable.cases,0
	.globl startkit_gpio_driver_aux.select.2.enable.cases
	.set startkit_gpio_driver_aux.select.2.enable.cases.nstackwords, 0 $M (startkit_gpio_driver_aux.select.2.case.0.nstackwords)
	.globl startkit_gpio_driver_aux.select.2.enable.cases.nstackwords
	.set startkit_gpio_driver_aux.select.3.enable.savedstate,29
	.globl startkit_gpio_driver_aux.select.3.enable.savedstate
	.set startkit_gpio_driver_aux.select.3.enable.cases.maxtimers,0 $M startkit_gpio_driver_aux.select.3.case.0.maxtimers
	.globl startkit_gpio_driver_aux.select.3.enable.cases.maxtimers
	.set startkit_gpio_driver_aux.select.3.enable.cases.maxcores,0 $M startkit_gpio_driver_aux.select.3.case.0.maxcores
	.globl startkit_gpio_driver_aux.select.3.enable.cases.maxcores
	.set startkit_gpio_driver_aux.select.3.enable.cases.maxchanends,0 $M startkit_gpio_driver_aux.select.3.case.0.maxchanends
	.globl startkit_gpio_driver_aux.select.3.enable.cases.maxchanends
	.set startkit_gpio_driver_aux.select.3.enable.cases,0
	.globl startkit_gpio_driver_aux.select.3.enable.cases
	.set startkit_gpio_driver_aux.select.3.enable.cases.nstackwords, 0 $M (startkit_gpio_driver_aux.select.3.case.0.nstackwords)
	.globl startkit_gpio_driver_aux.select.3.enable.cases.nstackwords
	.set startkit_gpio_driver_aux.dynalloc_maxchanends, 0
	.globl startkit_gpio_driver_aux.dynalloc_maxchanends
	.set startkit_gpio_driver_aux.dynalloc_maxcores, 0
	.globl startkit_gpio_driver_aux.dynalloc_maxcores
	.set startkit_gpio_driver_aux.dynalloc_maxtimers, 0
	.globl startkit_gpio_driver_aux.dynalloc_maxtimers
	.set startkit_gpio_driver_aux.init.0.savedstate,29
	.globl startkit_gpio_driver_aux.init.0.savedstate
	.set startkit_gpio_driver_aux.select.yield.enable.savedstate,29
	.globl startkit_gpio_driver_aux.select.yield.enable.savedstate
	.set startkit_gpio_driver_aux.select.yield.enable.cases.maxtimers,0 $M startkit_gpio_driver_aux.select.yield.case.4.maxtimers $M startkit_gpio_driver_aux.select.yield.case.3.maxtimers $M startkit_gpio_driver_aux.select.yield.case.2.maxtimers $M startkit_gpio_driver_aux.select.yield.case.1.maxtimers $M startkit_gpio_driver_aux.select.yield.case.0.maxtimers
	.globl startkit_gpio_driver_aux.select.yield.enable.cases.maxtimers
	.set startkit_gpio_driver_aux.select.yield.enable.cases.maxcores,0 $M startkit_gpio_driver_aux.select.yield.case.4.maxcores $M startkit_gpio_driver_aux.select.yield.case.3.maxcores $M startkit_gpio_driver_aux.select.yield.case.2.maxcores $M startkit_gpio_driver_aux.select.yield.case.1.maxcores $M startkit_gpio_driver_aux.select.yield.case.0.maxcores
	.globl startkit_gpio_driver_aux.select.yield.enable.cases.maxcores
	.set startkit_gpio_driver_aux.select.yield.enable.cases.maxchanends,0 $M startkit_gpio_driver_aux.select.yield.case.4.maxchanends $M startkit_gpio_driver_aux.select.yield.case.3.maxchanends $M startkit_gpio_driver_aux.select.yield.case.2.maxchanends $M startkit_gpio_driver_aux.select.yield.case.1.maxchanends $M startkit_gpio_driver_aux.select.yield.case.0.maxchanends
	.globl startkit_gpio_driver_aux.select.yield.enable.cases.maxchanends
	.set startkit_gpio_driver_aux.select.yield.enable.cases,0
	.globl startkit_gpio_driver_aux.select.yield.enable.cases
	.set startkit_gpio_driver_aux.select.yield.enable.cases.nstackwords, 0 $M (startkit_gpio_driver_aux.select.yield.case.1.nstackwords) $M (startkit_gpio_driver_aux.select.yield.case.2.nstackwords) $M (startkit_gpio_driver_aux.select.yield.case.3.nstackwords) $M (startkit_gpio_driver_aux.select.yield.case.4.nstackwords) $M (startkit_gpio_driver_aux.select.yield.case.0.nstackwords)
	.globl startkit_gpio_driver_aux.select.yield.enable.cases.nstackwords
	.set startkit_gpio_driver_aux.select.enable.savedstate,29
	.globl startkit_gpio_driver_aux.select.enable.savedstate
	.set startkit_gpio_driver_aux.select.enable.cases.maxtimers,0 $M startkit_gpio_driver_aux.select.case.4.maxtimers $M startkit_gpio_driver_aux.select.case.3.maxtimers $M startkit_gpio_driver_aux.select.case.2.maxtimers $M startkit_gpio_driver_aux.select.case.1.maxtimers $M startkit_gpio_driver_aux.select.case.0.maxtimers
	.globl startkit_gpio_driver_aux.select.enable.cases.maxtimers
	.set startkit_gpio_driver_aux.select.enable.cases.maxcores,0 $M startkit_gpio_driver_aux.select.case.4.maxcores $M startkit_gpio_driver_aux.select.case.3.maxcores $M startkit_gpio_driver_aux.select.case.2.maxcores $M startkit_gpio_driver_aux.select.case.1.maxcores $M startkit_gpio_driver_aux.select.case.0.maxcores
	.globl startkit_gpio_driver_aux.select.enable.cases.maxcores
	.set startkit_gpio_driver_aux.select.enable.cases.maxchanends,0 $M startkit_gpio_driver_aux.select.case.4.maxchanends $M startkit_gpio_driver_aux.select.case.3.maxchanends $M startkit_gpio_driver_aux.select.case.2.maxchanends $M startkit_gpio_driver_aux.select.case.1.maxchanends $M startkit_gpio_driver_aux.select.case.0.maxchanends
	.globl startkit_gpio_driver_aux.select.enable.cases.maxchanends
	.set startkit_gpio_driver_aux.select.enable.cases,0
	.globl startkit_gpio_driver_aux.select.enable.cases
	.set startkit_gpio_driver_aux.select.enable.cases.nstackwords, 0 $M (startkit_gpio_driver_aux.select.case.2.nstackwords) $M (startkit_gpio_driver_aux.select.case.1.nstackwords) $M (startkit_gpio_driver_aux.select.case.3.nstackwords) $M (startkit_gpio_driver_aux.select.case.4.nstackwords) $M (startkit_gpio_driver_aux.select.case.0.nstackwords)
	.globl startkit_gpio_driver_aux.select.enable.cases.nstackwords
	.weak _i.slider_query_if.filter.maxchanends.group
	.add_to_set _i.slider_query_if.filter.maxchanends.group, _i.slider_query_if.slider._c0.filter.maxchanends, _i.slider_query_if.slider._c0.filter
	.max_reduce _i.slider_query_if.filter.max.maxchanends, _i.slider_query_if.filter.maxchanends.group, 0
	.weak _i.slider_query_if.filter.maxcores.group
	.add_to_set _i.slider_query_if.filter.maxcores.group, _i.slider_query_if.slider._c0.filter.maxcores, _i.slider_query_if.slider._c0.filter
	.max_reduce _i.slider_query_if.filter.max.maxcores, _i.slider_query_if.filter.maxcores.group, 0
	.weak _i.slider_query_if.filter.maxtimers.group
	.add_to_set _i.slider_query_if.filter.maxtimers.group, _i.slider_query_if.slider._c0.filter.maxtimers, _i.slider_query_if.slider._c0.filter
	.max_reduce _i.slider_query_if.filter.max.maxtimers, _i.slider_query_if.filter.maxtimers.group, 0
	.weak _i.slider_query_if.filter.nstackwords.group
	.globl _i.slider_query_if.filter.nstackwords.group
	.weak _i.slider_query_if.filter.fns.group
	.globl _i.slider_query_if.filter.fns.group
	.add_to_set _i.slider_query_if.filter.nstackwords.group, _i.slider_query_if.slider._c0.filter.nstackwords, _i.slider_query_if.slider._c0.filter
	.add_to_set _i.slider_query_if.filter.fns.group, _i.slider_query_if.slider._c0.filter, _i.slider_query_if.slider._c0.filter
	.max_reduce _i.slider_query_if.filter.max.nstackwords, _i.slider_query_if.filter.nstackwords.group, 0
	.max_reduce _i.slider_query_if.filter.fns, _i.slider_query_if.filter.fns.group, 0
	.weak _i.slider_query_if.get_coord.maxchanends.group
	.add_to_set _i.slider_query_if.get_coord.maxchanends.group, _i.slider_query_if.slider._c0.get_coord.maxchanends, _i.slider_query_if.slider._c0.get_coord
	.max_reduce _i.slider_query_if.get_coord.max.maxchanends, _i.slider_query_if.get_coord.maxchanends.group, 0
	.weak _i.slider_query_if.get_coord.maxcores.group
	.add_to_set _i.slider_query_if.get_coord.maxcores.group, _i.slider_query_if.slider._c0.get_coord.maxcores, _i.slider_query_if.slider._c0.get_coord
	.max_reduce _i.slider_query_if.get_coord.max.maxcores, _i.slider_query_if.get_coord.maxcores.group, 0
	.weak _i.slider_query_if.get_coord.maxtimers.group
	.add_to_set _i.slider_query_if.get_coord.maxtimers.group, _i.slider_query_if.slider._c0.get_coord.maxtimers, _i.slider_query_if.slider._c0.get_coord
	.max_reduce _i.slider_query_if.get_coord.max.maxtimers, _i.slider_query_if.get_coord.maxtimers.group, 0
	.weak _i.slider_query_if.get_coord.nstackwords.group
	.globl _i.slider_query_if.get_coord.nstackwords.group
	.weak _i.slider_query_if.get_coord.fns.group
	.globl _i.slider_query_if.get_coord.fns.group
	.add_to_set _i.slider_query_if.get_coord.nstackwords.group, _i.slider_query_if.slider._c0.get_coord.nstackwords, _i.slider_query_if.slider._c0.get_coord
	.add_to_set _i.slider_query_if.get_coord.fns.group, _i.slider_query_if.slider._c0.get_coord, _i.slider_query_if.slider._c0.get_coord
	.max_reduce _i.slider_query_if.get_coord.max.nstackwords, _i.slider_query_if.get_coord.nstackwords.group, 0
	.max_reduce _i.slider_query_if.get_coord.fns, _i.slider_query_if.get_coord.fns.group, 0
	.weak _i.slider_query_if.__interface_init.maxchanends.group
	.add_to_set _i.slider_query_if.__interface_init.maxchanends.group, (slider.init.0.maxchanends + __interface_init_task_extra.maxchanends), slider.init.0
	.max_reduce _i.slider_query_if.__interface_init.max.maxchanends, _i.slider_query_if.__interface_init.maxchanends.group, 0
	.weak _i.slider_query_if.__interface_init.maxcores.group
	.add_to_set _i.slider_query_if.__interface_init.maxcores.group, (slider.init.0.maxcores + __interface_init_task_extra.maxcores), slider.init.0
	.max_reduce _i.slider_query_if.__interface_init.max.maxcores, _i.slider_query_if.__interface_init.maxcores.group, 0
	.weak _i.slider_query_if.__interface_init.maxtimers.group
	.add_to_set _i.slider_query_if.__interface_init.maxtimers.group, (slider.init.0.maxtimers + __interface_init_task_extra.maxtimers), slider.init.0
	.max_reduce _i.slider_query_if.__interface_init.max.maxtimers, _i.slider_query_if.__interface_init.maxtimers.group, 0
	.weak _i.slider_query_if.__interface_init.nstackwords.group
	.globl _i.slider_query_if.__interface_init.nstackwords.group
	.weak _i.slider_query_if.__interface_init.fns.group
	.globl _i.slider_query_if.__interface_init.fns.group
	.add_to_set _i.slider_query_if.__interface_init.nstackwords.group, (slider.init.0.nstackwords + __interface_init_task_extra.nstackwords), slider.init.0
	.add_to_set _i.slider_query_if.__interface_init.fns.group, slider.init.0, slider.init.0
	.max_reduce _i.slider_query_if.__interface_init.max.nstackwords, _i.slider_query_if.__interface_init.nstackwords.group, 0
	.max_reduce _i.slider_query_if.__interface_init.fns, _i.slider_query_if.__interface_init.fns.group, 0
	.weak _i.slider_query_if._client_call_y.maxchanends.group
	.add_to_set _i.slider_query_if._client_call_y.maxchanends.group, (__interface_client_call_y_other.maxchanends + __interface_client_call_y_extra.maxchanends), __interface_client_call_y_other
	.max_reduce _i.slider_query_if._client_call_y.max.maxchanends, _i.slider_query_if._client_call_y.maxchanends.group, 0
	.weak _i.slider_query_if._client_call_y.maxcores.group
	.add_to_set _i.slider_query_if._client_call_y.maxcores.group, (__interface_client_call_y_other.maxcores + __interface_client_call_y_extra.maxcores), __interface_client_call_y_other
	.max_reduce _i.slider_query_if._client_call_y.max.maxcores, _i.slider_query_if._client_call_y.maxcores.group, 0
	.weak _i.slider_query_if._client_call_y.maxtimers.group
	.add_to_set _i.slider_query_if._client_call_y.maxtimers.group, (__interface_client_call_y_other.maxtimers + __interface_client_call_y_extra.maxtimers), __interface_client_call_y_other
	.max_reduce _i.slider_query_if._client_call_y.max.maxtimers, _i.slider_query_if._client_call_y.maxtimers.group, 0
	.weak _i.slider_query_if._client_call_y.nstackwords.group
	.globl _i.slider_query_if._client_call_y.nstackwords.group
	.weak _i.slider_query_if._client_call_y.fns.group
	.globl _i.slider_query_if._client_call_y.fns.group
	.add_to_set _i.slider_query_if._client_call_y.nstackwords.group, (__interface_client_call_y_other.nstackwords + __interface_client_call_y_extra.nstackwords), __interface_client_call_y_other
	.add_to_set _i.slider_query_if._client_call_y.fns.group, __interface_client_call_y_other, __interface_client_call_y_other
	.max_reduce _i.slider_query_if._client_call_y.max.nstackwords, _i.slider_query_if._client_call_y.nstackwords.group, 0
	.max_reduce _i.slider_query_if._client_call_y.fns, _i.slider_query_if._client_call_y.fns.group, 0
	.weak _i.slider_query_if.filter.maxchanends.group
	.add_to_set _i.slider_query_if.filter.maxchanends.group, _i.slider_query_if.slider._c0.filter.maxchanends, _i.slider_query_if.slider._c0.filter
	.weak _i.slider_query_if.filter.maxcores.group
	.add_to_set _i.slider_query_if.filter.maxcores.group, _i.slider_query_if.slider._c0.filter.maxcores, _i.slider_query_if.slider._c0.filter
	.weak _i.slider_query_if.filter.maxtimers.group
	.add_to_set _i.slider_query_if.filter.maxtimers.group, _i.slider_query_if.slider._c0.filter.maxtimers, _i.slider_query_if.slider._c0.filter
	.weak _i.slider_query_if.filter.nstackwords.group
	.globl _i.slider_query_if.filter.nstackwords.group
	.weak _i.slider_query_if.filter.fns.group
	.globl _i.slider_query_if.filter.fns.group
	.add_to_set _i.slider_query_if.filter.nstackwords.group, _i.slider_query_if.slider._c0.filter.nstackwords, _i.slider_query_if.slider._c0.filter
	.add_to_set _i.slider_query_if.filter.fns.group, _i.slider_query_if.slider._c0.filter, _i.slider_query_if.slider._c0.filter
	.weak _i.slider_query_if.get_coord.maxchanends.group
	.add_to_set _i.slider_query_if.get_coord.maxchanends.group, _i.slider_query_if.slider._c0.get_coord.maxchanends, _i.slider_query_if.slider._c0.get_coord
	.weak _i.slider_query_if.get_coord.maxcores.group
	.add_to_set _i.slider_query_if.get_coord.maxcores.group, _i.slider_query_if.slider._c0.get_coord.maxcores, _i.slider_query_if.slider._c0.get_coord
	.weak _i.slider_query_if.get_coord.maxtimers.group
	.add_to_set _i.slider_query_if.get_coord.maxtimers.group, _i.slider_query_if.slider._c0.get_coord.maxtimers, _i.slider_query_if.slider._c0.get_coord
	.weak _i.slider_query_if.get_coord.nstackwords.group
	.globl _i.slider_query_if.get_coord.nstackwords.group
	.weak _i.slider_query_if.get_coord.fns.group
	.globl _i.slider_query_if.get_coord.fns.group
	.add_to_set _i.slider_query_if.get_coord.nstackwords.group, _i.slider_query_if.slider._c0.get_coord.nstackwords, _i.slider_query_if.slider._c0.get_coord
	.add_to_set _i.slider_query_if.get_coord.fns.group, _i.slider_query_if.slider._c0.get_coord, _i.slider_query_if.slider._c0.get_coord
	.weak _i.slider_query_if.__interface_init.maxchanends.group
	.add_to_set _i.slider_query_if.__interface_init.maxchanends.group, (slider.init.0.maxchanends + __interface_init_task_extra.maxchanends), slider.init.0
	.weak _i.slider_query_if.__interface_init.maxcores.group
	.add_to_set _i.slider_query_if.__interface_init.maxcores.group, (slider.init.0.maxcores + __interface_init_task_extra.maxcores), slider.init.0
	.weak _i.slider_query_if.__interface_init.maxtimers.group
	.add_to_set _i.slider_query_if.__interface_init.maxtimers.group, (slider.init.0.maxtimers + __interface_init_task_extra.maxtimers), slider.init.0
	.weak _i.slider_query_if.__interface_init.nstackwords.group
	.globl _i.slider_query_if.__interface_init.nstackwords.group
	.weak _i.slider_query_if.__interface_init.fns.group
	.globl _i.slider_query_if.__interface_init.fns.group
	.add_to_set _i.slider_query_if.__interface_init.nstackwords.group, (slider.init.0.nstackwords + __interface_init_task_extra.nstackwords), slider.init.0
	.add_to_set _i.slider_query_if.__interface_init.fns.group, slider.init.0, slider.init.0
	.weak _i.absolute_slider_if.get_coord.maxchanends.group
	.add_to_set _i.absolute_slider_if.get_coord.maxchanends.group, _i.absolute_slider_if.absolute_slider._c0.get_coord.maxchanends, _i.absolute_slider_if.absolute_slider._c0.get_coord
	.max_reduce _i.absolute_slider_if.get_coord.max.maxchanends, _i.absolute_slider_if.get_coord.maxchanends.group, 0
	.weak _i.absolute_slider_if.get_coord.maxcores.group
	.add_to_set _i.absolute_slider_if.get_coord.maxcores.group, _i.absolute_slider_if.absolute_slider._c0.get_coord.maxcores, _i.absolute_slider_if.absolute_slider._c0.get_coord
	.max_reduce _i.absolute_slider_if.get_coord.max.maxcores, _i.absolute_slider_if.get_coord.maxcores.group, 0
	.weak _i.absolute_slider_if.get_coord.maxtimers.group
	.add_to_set _i.absolute_slider_if.get_coord.maxtimers.group, _i.absolute_slider_if.absolute_slider._c0.get_coord.maxtimers, _i.absolute_slider_if.absolute_slider._c0.get_coord
	.max_reduce _i.absolute_slider_if.get_coord.max.maxtimers, _i.absolute_slider_if.get_coord.maxtimers.group, 0
	.weak _i.absolute_slider_if.get_coord.nstackwords.group
	.globl _i.absolute_slider_if.get_coord.nstackwords.group
	.weak _i.absolute_slider_if.get_coord.fns.group
	.globl _i.absolute_slider_if.get_coord.fns.group
	.add_to_set _i.absolute_slider_if.get_coord.nstackwords.group, _i.absolute_slider_if.absolute_slider._c0.get_coord.nstackwords, _i.absolute_slider_if.absolute_slider._c0.get_coord
	.add_to_set _i.absolute_slider_if.get_coord.fns.group, _i.absolute_slider_if.absolute_slider._c0.get_coord, _i.absolute_slider_if.absolute_slider._c0.get_coord
	.max_reduce _i.absolute_slider_if.get_coord.max.nstackwords, _i.absolute_slider_if.get_coord.nstackwords.group, 0
	.max_reduce _i.absolute_slider_if.get_coord.fns, _i.absolute_slider_if.get_coord.fns.group, 0
	.weak _i.absolute_slider_if.__interface_init.maxchanends.group
	.add_to_set _i.absolute_slider_if.__interface_init.maxchanends.group, (absolute_slider.init.0.maxchanends + __interface_init_task_extra.maxchanends), absolute_slider.init.0
	.max_reduce _i.absolute_slider_if.__interface_init.max.maxchanends, _i.absolute_slider_if.__interface_init.maxchanends.group, 0
	.weak _i.absolute_slider_if.__interface_init.maxcores.group
	.add_to_set _i.absolute_slider_if.__interface_init.maxcores.group, (absolute_slider.init.0.maxcores + __interface_init_task_extra.maxcores), absolute_slider.init.0
	.max_reduce _i.absolute_slider_if.__interface_init.max.maxcores, _i.absolute_slider_if.__interface_init.maxcores.group, 0
	.weak _i.absolute_slider_if.__interface_init.maxtimers.group
	.add_to_set _i.absolute_slider_if.__interface_init.maxtimers.group, (absolute_slider.init.0.maxtimers + __interface_init_task_extra.maxtimers), absolute_slider.init.0
	.max_reduce _i.absolute_slider_if.__interface_init.max.maxtimers, _i.absolute_slider_if.__interface_init.maxtimers.group, 0
	.weak _i.absolute_slider_if.__interface_init.nstackwords.group
	.globl _i.absolute_slider_if.__interface_init.nstackwords.group
	.weak _i.absolute_slider_if.__interface_init.fns.group
	.globl _i.absolute_slider_if.__interface_init.fns.group
	.add_to_set _i.absolute_slider_if.__interface_init.nstackwords.group, (absolute_slider.init.0.nstackwords + __interface_init_task_extra.nstackwords), absolute_slider.init.0
	.add_to_set _i.absolute_slider_if.__interface_init.fns.group, absolute_slider.init.0, absolute_slider.init.0
	.max_reduce _i.absolute_slider_if.__interface_init.max.nstackwords, _i.absolute_slider_if.__interface_init.nstackwords.group, 0
	.max_reduce _i.absolute_slider_if.__interface_init.fns, _i.absolute_slider_if.__interface_init.fns.group, 0
	.weak _i.absolute_slider_if._client_call_y.maxchanends.group
	.add_to_set _i.absolute_slider_if._client_call_y.maxchanends.group, (__interface_client_call_y_other.maxchanends + __interface_client_call_y_extra.maxchanends), __interface_client_call_y_other
	.max_reduce _i.absolute_slider_if._client_call_y.max.maxchanends, _i.absolute_slider_if._client_call_y.maxchanends.group, 0
	.weak _i.absolute_slider_if._client_call_y.maxcores.group
	.add_to_set _i.absolute_slider_if._client_call_y.maxcores.group, (__interface_client_call_y_other.maxcores + __interface_client_call_y_extra.maxcores), __interface_client_call_y_other
	.max_reduce _i.absolute_slider_if._client_call_y.max.maxcores, _i.absolute_slider_if._client_call_y.maxcores.group, 0
	.weak _i.absolute_slider_if._client_call_y.maxtimers.group
	.add_to_set _i.absolute_slider_if._client_call_y.maxtimers.group, (__interface_client_call_y_other.maxtimers + __interface_client_call_y_extra.maxtimers), __interface_client_call_y_other
	.max_reduce _i.absolute_slider_if._client_call_y.max.maxtimers, _i.absolute_slider_if._client_call_y.maxtimers.group, 0
	.weak _i.absolute_slider_if._client_call_y.nstackwords.group
	.globl _i.absolute_slider_if._client_call_y.nstackwords.group
	.weak _i.absolute_slider_if._client_call_y.fns.group
	.globl _i.absolute_slider_if._client_call_y.fns.group
	.add_to_set _i.absolute_slider_if._client_call_y.nstackwords.group, (__interface_client_call_y_other.nstackwords + __interface_client_call_y_extra.nstackwords), __interface_client_call_y_other
	.add_to_set _i.absolute_slider_if._client_call_y.fns.group, __interface_client_call_y_other, __interface_client_call_y_other
	.max_reduce _i.absolute_slider_if._client_call_y.max.nstackwords, _i.absolute_slider_if._client_call_y.nstackwords.group, 0
	.max_reduce _i.absolute_slider_if._client_call_y.fns, _i.absolute_slider_if._client_call_y.fns.group, 0
	.weak _i.absolute_slider_if.get_coord.maxchanends.group
	.add_to_set _i.absolute_slider_if.get_coord.maxchanends.group, _i.absolute_slider_if.absolute_slider._c0.get_coord.maxchanends, _i.absolute_slider_if.absolute_slider._c0.get_coord
	.weak _i.absolute_slider_if.get_coord.maxcores.group
	.add_to_set _i.absolute_slider_if.get_coord.maxcores.group, _i.absolute_slider_if.absolute_slider._c0.get_coord.maxcores, _i.absolute_slider_if.absolute_slider._c0.get_coord
	.weak _i.absolute_slider_if.get_coord.maxtimers.group
	.add_to_set _i.absolute_slider_if.get_coord.maxtimers.group, _i.absolute_slider_if.absolute_slider._c0.get_coord.maxtimers, _i.absolute_slider_if.absolute_slider._c0.get_coord
	.weak _i.absolute_slider_if.get_coord.nstackwords.group
	.globl _i.absolute_slider_if.get_coord.nstackwords.group
	.weak _i.absolute_slider_if.get_coord.fns.group
	.globl _i.absolute_slider_if.get_coord.fns.group
	.add_to_set _i.absolute_slider_if.get_coord.nstackwords.group, _i.absolute_slider_if.absolute_slider._c0.get_coord.nstackwords, _i.absolute_slider_if.absolute_slider._c0.get_coord
	.add_to_set _i.absolute_slider_if.get_coord.fns.group, _i.absolute_slider_if.absolute_slider._c0.get_coord, _i.absolute_slider_if.absolute_slider._c0.get_coord
	.weak _i.absolute_slider_if.__interface_init.maxchanends.group
	.add_to_set _i.absolute_slider_if.__interface_init.maxchanends.group, (absolute_slider.init.0.maxchanends + __interface_init_task_extra.maxchanends), absolute_slider.init.0
	.weak _i.absolute_slider_if.__interface_init.maxcores.group
	.add_to_set _i.absolute_slider_if.__interface_init.maxcores.group, (absolute_slider.init.0.maxcores + __interface_init_task_extra.maxcores), absolute_slider.init.0
	.weak _i.absolute_slider_if.__interface_init.maxtimers.group
	.add_to_set _i.absolute_slider_if.__interface_init.maxtimers.group, (absolute_slider.init.0.maxtimers + __interface_init_task_extra.maxtimers), absolute_slider.init.0
	.weak _i.absolute_slider_if.__interface_init.nstackwords.group
	.globl _i.absolute_slider_if.__interface_init.nstackwords.group
	.weak _i.absolute_slider_if.__interface_init.fns.group
	.globl _i.absolute_slider_if.__interface_init.fns.group
	.add_to_set _i.absolute_slider_if.__interface_init.nstackwords.group, (absolute_slider.init.0.nstackwords + __interface_init_task_extra.nstackwords), absolute_slider.init.0
	.add_to_set _i.absolute_slider_if.__interface_init.fns.group, absolute_slider.init.0, absolute_slider.init.0
	.weak absolute_slider.3.maxargsize.group
	.globl absolute_slider.3.maxargsize.group
	.add_to_set absolute_slider.3.maxargsize.group, 4
	.weak absolute_slider.4.maxargsize.group
	.globl absolute_slider.4.maxargsize.group
	.add_to_set absolute_slider.4.maxargsize.group, 80
	.weak absolute_slider.3.maxargsize.group
	.globl absolute_slider.3.maxargsize.group
	.add_to_set absolute_slider.3.maxargsize.group, 4
	.weak absolute_slider.4.maxargsize.group
	.globl absolute_slider.4.maxargsize.group
	.add_to_set absolute_slider.4.maxargsize.group, 80
	.set startkit_gpio_driver.select.0.enable.savedstate,44+ startkit_gpio_driver_aux.select.enable.savedstate+ slider.select.enable.savedstate+ slider.select.enable.savedstate+ absolute_slider.select.enable.savedstate+ absolute_slider.select.enable.savedstate
	.globl startkit_gpio_driver.select.0.enable.savedstate
	.set startkit_gpio_driver.select.0.enable.cases.maxtimers,0 $M absolute_slider.select.enable.cases.maxtimers $M absolute_slider.select.enable.cases.maxtimers $M slider.select.enable.cases.maxtimers $M slider.select.enable.cases.maxtimers $M startkit_gpio_driver_aux.select.enable.cases.maxtimers
	.globl startkit_gpio_driver.select.0.enable.cases.maxtimers
	.set startkit_gpio_driver.select.0.enable.cases.maxcores,0 $M absolute_slider.select.enable.cases.maxcores $M absolute_slider.select.enable.cases.maxcores $M slider.select.enable.cases.maxcores $M slider.select.enable.cases.maxcores $M startkit_gpio_driver_aux.select.enable.cases.maxcores
	.globl startkit_gpio_driver.select.0.enable.cases.maxcores
	.set startkit_gpio_driver.select.0.enable.cases.maxchanends,0 $M absolute_slider.select.enable.cases.maxchanends $M absolute_slider.select.enable.cases.maxchanends $M slider.select.enable.cases.maxchanends $M slider.select.enable.cases.maxchanends $M startkit_gpio_driver_aux.select.enable.cases.maxchanends
	.globl startkit_gpio_driver.select.0.enable.cases.maxchanends
	.set startkit_gpio_driver.select.0.enable.cases,0
	.globl startkit_gpio_driver.select.0.enable.cases
	.set startkit_gpio_driver.select.0.enable.cases.nstackwords, 0 $M (absolute_slider.select.enable.cases.nstackwords) $M (slider.select.enable.cases.nstackwords) $M (startkit_gpio_driver_aux.select.enable.cases.nstackwords)
	.globl startkit_gpio_driver.select.0.enable.cases.nstackwords
	.set startkit_gpio_driver.select.1.enable.savedstate,44+ startkit_gpio_driver_aux.select.enable.savedstate+ slider.select.enable.savedstate+ slider.select.enable.savedstate+ absolute_slider.select.enable.savedstate+ absolute_slider.select.enable.savedstate
	.globl startkit_gpio_driver.select.1.enable.savedstate
	.set startkit_gpio_driver.select.1.enable.cases.maxtimers,0 $M absolute_slider.select.enable.cases.maxtimers $M absolute_slider.select.enable.cases.maxtimers $M slider.select.enable.cases.maxtimers $M slider.select.enable.cases.maxtimers $M startkit_gpio_driver_aux.select.enable.cases.maxtimers
	.globl startkit_gpio_driver.select.1.enable.cases.maxtimers
	.set startkit_gpio_driver.select.1.enable.cases.maxcores,0 $M absolute_slider.select.enable.cases.maxcores $M absolute_slider.select.enable.cases.maxcores $M slider.select.enable.cases.maxcores $M slider.select.enable.cases.maxcores $M startkit_gpio_driver_aux.select.enable.cases.maxcores
	.globl startkit_gpio_driver.select.1.enable.cases.maxcores
	.set startkit_gpio_driver.select.1.enable.cases.maxchanends,0 $M absolute_slider.select.enable.cases.maxchanends $M absolute_slider.select.enable.cases.maxchanends $M slider.select.enable.cases.maxchanends $M slider.select.enable.cases.maxchanends $M startkit_gpio_driver_aux.select.enable.cases.maxchanends
	.globl startkit_gpio_driver.select.1.enable.cases.maxchanends
	.set startkit_gpio_driver.select.1.enable.cases,0
	.globl startkit_gpio_driver.select.1.enable.cases
	.set startkit_gpio_driver.select.1.enable.cases.nstackwords, 0 $M (absolute_slider.select.enable.cases.nstackwords) $M (slider.select.enable.cases.nstackwords) $M (startkit_gpio_driver_aux.select.enable.cases.nstackwords)
	.globl startkit_gpio_driver.select.1.enable.cases.nstackwords
	.set startkit_gpio_driver.select.2.enable.savedstate,44+ startkit_gpio_driver_aux.select.enable.savedstate+ slider.select.enable.savedstate+ slider.select.enable.savedstate+ absolute_slider.select.enable.savedstate+ absolute_slider.select.enable.savedstate
	.globl startkit_gpio_driver.select.2.enable.savedstate
	.set startkit_gpio_driver.select.2.enable.cases.maxtimers,0 $M absolute_slider.select.enable.cases.maxtimers $M absolute_slider.select.enable.cases.maxtimers $M slider.select.enable.cases.maxtimers $M slider.select.enable.cases.maxtimers $M startkit_gpio_driver_aux.select.enable.cases.maxtimers
	.globl startkit_gpio_driver.select.2.enable.cases.maxtimers
	.set startkit_gpio_driver.select.2.enable.cases.maxcores,0 $M absolute_slider.select.enable.cases.maxcores $M absolute_slider.select.enable.cases.maxcores $M slider.select.enable.cases.maxcores $M slider.select.enable.cases.maxcores $M startkit_gpio_driver_aux.select.enable.cases.maxcores
	.globl startkit_gpio_driver.select.2.enable.cases.maxcores
	.set startkit_gpio_driver.select.2.enable.cases.maxchanends,0 $M absolute_slider.select.enable.cases.maxchanends $M absolute_slider.select.enable.cases.maxchanends $M slider.select.enable.cases.maxchanends $M slider.select.enable.cases.maxchanends $M startkit_gpio_driver_aux.select.enable.cases.maxchanends
	.globl startkit_gpio_driver.select.2.enable.cases.maxchanends
	.set startkit_gpio_driver.select.2.enable.cases,0
	.globl startkit_gpio_driver.select.2.enable.cases
	.set startkit_gpio_driver.select.2.enable.cases.nstackwords, 0 $M (absolute_slider.select.enable.cases.nstackwords) $M (slider.select.enable.cases.nstackwords) $M (startkit_gpio_driver_aux.select.enable.cases.nstackwords)
	.globl startkit_gpio_driver.select.2.enable.cases.nstackwords
	.set startkit_gpio_driver.select.3.enable.savedstate,44+ startkit_gpio_driver_aux.select.enable.savedstate+ slider.select.enable.savedstate+ slider.select.enable.savedstate+ absolute_slider.select.enable.savedstate+ absolute_slider.select.enable.savedstate
	.globl startkit_gpio_driver.select.3.enable.savedstate
	.set startkit_gpio_driver.select.3.enable.cases.maxtimers,0 $M absolute_slider.select.enable.cases.maxtimers $M absolute_slider.select.enable.cases.maxtimers $M slider.select.enable.cases.maxtimers $M slider.select.enable.cases.maxtimers $M startkit_gpio_driver_aux.select.enable.cases.maxtimers
	.globl startkit_gpio_driver.select.3.enable.cases.maxtimers
	.set startkit_gpio_driver.select.3.enable.cases.maxcores,0 $M absolute_slider.select.enable.cases.maxcores $M absolute_slider.select.enable.cases.maxcores $M slider.select.enable.cases.maxcores $M slider.select.enable.cases.maxcores $M startkit_gpio_driver_aux.select.enable.cases.maxcores
	.globl startkit_gpio_driver.select.3.enable.cases.maxcores
	.set startkit_gpio_driver.select.3.enable.cases.maxchanends,0 $M absolute_slider.select.enable.cases.maxchanends $M absolute_slider.select.enable.cases.maxchanends $M slider.select.enable.cases.maxchanends $M slider.select.enable.cases.maxchanends $M startkit_gpio_driver_aux.select.enable.cases.maxchanends
	.globl startkit_gpio_driver.select.3.enable.cases.maxchanends
	.set startkit_gpio_driver.select.3.enable.cases,0
	.globl startkit_gpio_driver.select.3.enable.cases
	.set startkit_gpio_driver.select.3.enable.cases.nstackwords, 0 $M (absolute_slider.select.enable.cases.nstackwords) $M (slider.select.enable.cases.nstackwords) $M (startkit_gpio_driver_aux.select.enable.cases.nstackwords)
	.globl startkit_gpio_driver.select.3.enable.cases.nstackwords
	.set startkit_gpio_driver.dynalloc_maxchanends, 0 + absolute_slider.dynalloc_maxchanends + absolute_slider.dynalloc_maxchanends + slider.dynalloc_maxchanends + slider.dynalloc_maxchanends + startkit_gpio_driver_aux.dynalloc_maxchanends
	.globl startkit_gpio_driver.dynalloc_maxchanends
	.set startkit_gpio_driver.dynalloc_maxcores, 0 + absolute_slider.dynalloc_maxcores + absolute_slider.dynalloc_maxcores + slider.dynalloc_maxcores + slider.dynalloc_maxcores + startkit_gpio_driver_aux.dynalloc_maxcores
	.globl startkit_gpio_driver.dynalloc_maxcores
	.set startkit_gpio_driver.dynalloc_maxtimers, 0 + absolute_slider.dynalloc_maxtimers + absolute_slider.dynalloc_maxtimers + slider.dynalloc_maxtimers + slider.dynalloc_maxtimers + startkit_gpio_driver_aux.dynalloc_maxtimers
	.globl startkit_gpio_driver.dynalloc_maxtimers
	.set startkit_gpio_driver.init.0.savedstate,44 + 0 + startkit_gpio_driver_aux.init.0.savedstate + 1 + slider.init.0.savedstate + 1 + slider.init.0.savedstate + 1 + absolute_slider.init.0.savedstate + 1 + absolute_slider.init.0.savedstate + 1
	.globl startkit_gpio_driver.init.0.savedstate
	.weak _i.slider_query_if.filter.maxchanends.group
	.add_to_set _i.slider_query_if.filter.maxchanends.group, _i.slider_query_if.slider._c0.filter.maxchanends, _i.slider_query_if.slider._c0.filter
	.weak _i.slider_query_if.filter.maxcores.group
	.add_to_set _i.slider_query_if.filter.maxcores.group, _i.slider_query_if.slider._c0.filter.maxcores, _i.slider_query_if.slider._c0.filter
	.weak _i.slider_query_if.filter.maxtimers.group
	.add_to_set _i.slider_query_if.filter.maxtimers.group, _i.slider_query_if.slider._c0.filter.maxtimers, _i.slider_query_if.slider._c0.filter
	.weak _i.slider_query_if.filter.nstackwords.group
	.globl _i.slider_query_if.filter.nstackwords.group
	.weak _i.slider_query_if.filter.fns.group
	.globl _i.slider_query_if.filter.fns.group
	.add_to_set _i.slider_query_if.filter.nstackwords.group, _i.slider_query_if.slider._c0.filter.nstackwords, _i.slider_query_if.slider._c0.filter
	.add_to_set _i.slider_query_if.filter.fns.group, _i.slider_query_if.slider._c0.filter, _i.slider_query_if.slider._c0.filter
	.weak _i.slider_query_if.get_coord.maxchanends.group
	.add_to_set _i.slider_query_if.get_coord.maxchanends.group, _i.slider_query_if.slider._c0.get_coord.maxchanends, _i.slider_query_if.slider._c0.get_coord
	.weak _i.slider_query_if.get_coord.maxcores.group
	.add_to_set _i.slider_query_if.get_coord.maxcores.group, _i.slider_query_if.slider._c0.get_coord.maxcores, _i.slider_query_if.slider._c0.get_coord
	.weak _i.slider_query_if.get_coord.maxtimers.group
	.add_to_set _i.slider_query_if.get_coord.maxtimers.group, _i.slider_query_if.slider._c0.get_coord.maxtimers, _i.slider_query_if.slider._c0.get_coord
	.weak _i.slider_query_if.get_coord.nstackwords.group
	.globl _i.slider_query_if.get_coord.nstackwords.group
	.weak _i.slider_query_if.get_coord.fns.group
	.globl _i.slider_query_if.get_coord.fns.group
	.add_to_set _i.slider_query_if.get_coord.nstackwords.group, _i.slider_query_if.slider._c0.get_coord.nstackwords, _i.slider_query_if.slider._c0.get_coord
	.add_to_set _i.slider_query_if.get_coord.fns.group, _i.slider_query_if.slider._c0.get_coord, _i.slider_query_if.slider._c0.get_coord
	.weak _i.slider_query_if.__interface_init.maxchanends.group
	.add_to_set _i.slider_query_if.__interface_init.maxchanends.group, (slider.init.0.maxchanends + __interface_init_task_extra.maxchanends), slider.init.0
	.weak _i.slider_query_if.__interface_init.maxcores.group
	.add_to_set _i.slider_query_if.__interface_init.maxcores.group, (slider.init.0.maxcores + __interface_init_task_extra.maxcores), slider.init.0
	.weak _i.slider_query_if.__interface_init.maxtimers.group
	.add_to_set _i.slider_query_if.__interface_init.maxtimers.group, (slider.init.0.maxtimers + __interface_init_task_extra.maxtimers), slider.init.0
	.weak _i.slider_query_if.__interface_init.nstackwords.group
	.globl _i.slider_query_if.__interface_init.nstackwords.group
	.weak _i.slider_query_if.__interface_init.fns.group
	.globl _i.slider_query_if.__interface_init.fns.group
	.add_to_set _i.slider_query_if.__interface_init.nstackwords.group, (slider.init.0.nstackwords + __interface_init_task_extra.nstackwords), slider.init.0
	.add_to_set _i.slider_query_if.__interface_init.fns.group, slider.init.0, slider.init.0
	.weak _i.slider_query_if.filter.maxchanends.group
	.add_to_set _i.slider_query_if.filter.maxchanends.group, _i.slider_query_if.slider._c0.filter.maxchanends, _i.slider_query_if.slider._c0.filter
	.weak _i.slider_query_if.filter.maxcores.group
	.add_to_set _i.slider_query_if.filter.maxcores.group, _i.slider_query_if.slider._c0.filter.maxcores, _i.slider_query_if.slider._c0.filter
	.weak _i.slider_query_if.filter.maxtimers.group
	.add_to_set _i.slider_query_if.filter.maxtimers.group, _i.slider_query_if.slider._c0.filter.maxtimers, _i.slider_query_if.slider._c0.filter
	.weak _i.slider_query_if.filter.nstackwords.group
	.globl _i.slider_query_if.filter.nstackwords.group
	.weak _i.slider_query_if.filter.fns.group
	.globl _i.slider_query_if.filter.fns.group
	.add_to_set _i.slider_query_if.filter.nstackwords.group, _i.slider_query_if.slider._c0.filter.nstackwords, _i.slider_query_if.slider._c0.filter
	.add_to_set _i.slider_query_if.filter.fns.group, _i.slider_query_if.slider._c0.filter, _i.slider_query_if.slider._c0.filter
	.weak _i.slider_query_if.get_coord.maxchanends.group
	.add_to_set _i.slider_query_if.get_coord.maxchanends.group, _i.slider_query_if.slider._c0.get_coord.maxchanends, _i.slider_query_if.slider._c0.get_coord
	.weak _i.slider_query_if.get_coord.maxcores.group
	.add_to_set _i.slider_query_if.get_coord.maxcores.group, _i.slider_query_if.slider._c0.get_coord.maxcores, _i.slider_query_if.slider._c0.get_coord
	.weak _i.slider_query_if.get_coord.maxtimers.group
	.add_to_set _i.slider_query_if.get_coord.maxtimers.group, _i.slider_query_if.slider._c0.get_coord.maxtimers, _i.slider_query_if.slider._c0.get_coord
	.weak _i.slider_query_if.get_coord.nstackwords.group
	.globl _i.slider_query_if.get_coord.nstackwords.group
	.weak _i.slider_query_if.get_coord.fns.group
	.globl _i.slider_query_if.get_coord.fns.group
	.add_to_set _i.slider_query_if.get_coord.nstackwords.group, _i.slider_query_if.slider._c0.get_coord.nstackwords, _i.slider_query_if.slider._c0.get_coord
	.add_to_set _i.slider_query_if.get_coord.fns.group, _i.slider_query_if.slider._c0.get_coord, _i.slider_query_if.slider._c0.get_coord
	.weak _i.slider_query_if.__interface_init.maxchanends.group
	.add_to_set _i.slider_query_if.__interface_init.maxchanends.group, (slider.init.0.maxchanends + __interface_init_task_extra.maxchanends), slider.init.0
	.weak _i.slider_query_if.__interface_init.maxcores.group
	.add_to_set _i.slider_query_if.__interface_init.maxcores.group, (slider.init.0.maxcores + __interface_init_task_extra.maxcores), slider.init.0
	.weak _i.slider_query_if.__interface_init.maxtimers.group
	.add_to_set _i.slider_query_if.__interface_init.maxtimers.group, (slider.init.0.maxtimers + __interface_init_task_extra.maxtimers), slider.init.0
	.weak _i.slider_query_if.__interface_init.nstackwords.group
	.globl _i.slider_query_if.__interface_init.nstackwords.group
	.weak _i.slider_query_if.__interface_init.fns.group
	.globl _i.slider_query_if.__interface_init.fns.group
	.add_to_set _i.slider_query_if.__interface_init.nstackwords.group, (slider.init.0.nstackwords + __interface_init_task_extra.nstackwords), slider.init.0
	.add_to_set _i.slider_query_if.__interface_init.fns.group, slider.init.0, slider.init.0
	.weak _i.absolute_slider_if.get_coord.maxchanends.group
	.add_to_set _i.absolute_slider_if.get_coord.maxchanends.group, _i.absolute_slider_if.absolute_slider._c0.get_coord.maxchanends, _i.absolute_slider_if.absolute_slider._c0.get_coord
	.weak _i.absolute_slider_if.get_coord.maxcores.group
	.add_to_set _i.absolute_slider_if.get_coord.maxcores.group, _i.absolute_slider_if.absolute_slider._c0.get_coord.maxcores, _i.absolute_slider_if.absolute_slider._c0.get_coord
	.weak _i.absolute_slider_if.get_coord.maxtimers.group
	.add_to_set _i.absolute_slider_if.get_coord.maxtimers.group, _i.absolute_slider_if.absolute_slider._c0.get_coord.maxtimers, _i.absolute_slider_if.absolute_slider._c0.get_coord
	.weak _i.absolute_slider_if.get_coord.nstackwords.group
	.globl _i.absolute_slider_if.get_coord.nstackwords.group
	.weak _i.absolute_slider_if.get_coord.fns.group
	.globl _i.absolute_slider_if.get_coord.fns.group
	.add_to_set _i.absolute_slider_if.get_coord.nstackwords.group, _i.absolute_slider_if.absolute_slider._c0.get_coord.nstackwords, _i.absolute_slider_if.absolute_slider._c0.get_coord
	.add_to_set _i.absolute_slider_if.get_coord.fns.group, _i.absolute_slider_if.absolute_slider._c0.get_coord, _i.absolute_slider_if.absolute_slider._c0.get_coord
	.weak _i.absolute_slider_if.__interface_init.maxchanends.group
	.add_to_set _i.absolute_slider_if.__interface_init.maxchanends.group, (absolute_slider.init.0.maxchanends + __interface_init_task_extra.maxchanends), absolute_slider.init.0
	.weak _i.absolute_slider_if.__interface_init.maxcores.group
	.add_to_set _i.absolute_slider_if.__interface_init.maxcores.group, (absolute_slider.init.0.maxcores + __interface_init_task_extra.maxcores), absolute_slider.init.0
	.weak _i.absolute_slider_if.__interface_init.maxtimers.group
	.add_to_set _i.absolute_slider_if.__interface_init.maxtimers.group, (absolute_slider.init.0.maxtimers + __interface_init_task_extra.maxtimers), absolute_slider.init.0
	.weak _i.absolute_slider_if.__interface_init.nstackwords.group
	.globl _i.absolute_slider_if.__interface_init.nstackwords.group
	.weak _i.absolute_slider_if.__interface_init.fns.group
	.globl _i.absolute_slider_if.__interface_init.fns.group
	.add_to_set _i.absolute_slider_if.__interface_init.nstackwords.group, (absolute_slider.init.0.nstackwords + __interface_init_task_extra.nstackwords), absolute_slider.init.0
	.add_to_set _i.absolute_slider_if.__interface_init.fns.group, absolute_slider.init.0, absolute_slider.init.0
	.weak _i.absolute_slider_if.get_coord.maxchanends.group
	.add_to_set _i.absolute_slider_if.get_coord.maxchanends.group, _i.absolute_slider_if.absolute_slider._c0.get_coord.maxchanends, _i.absolute_slider_if.absolute_slider._c0.get_coord
	.weak _i.absolute_slider_if.get_coord.maxcores.group
	.add_to_set _i.absolute_slider_if.get_coord.maxcores.group, _i.absolute_slider_if.absolute_slider._c0.get_coord.maxcores, _i.absolute_slider_if.absolute_slider._c0.get_coord
	.weak _i.absolute_slider_if.get_coord.maxtimers.group
	.add_to_set _i.absolute_slider_if.get_coord.maxtimers.group, _i.absolute_slider_if.absolute_slider._c0.get_coord.maxtimers, _i.absolute_slider_if.absolute_slider._c0.get_coord
	.weak _i.absolute_slider_if.get_coord.nstackwords.group
	.globl _i.absolute_slider_if.get_coord.nstackwords.group
	.weak _i.absolute_slider_if.get_coord.fns.group
	.globl _i.absolute_slider_if.get_coord.fns.group
	.add_to_set _i.absolute_slider_if.get_coord.nstackwords.group, _i.absolute_slider_if.absolute_slider._c0.get_coord.nstackwords, _i.absolute_slider_if.absolute_slider._c0.get_coord
	.add_to_set _i.absolute_slider_if.get_coord.fns.group, _i.absolute_slider_if.absolute_slider._c0.get_coord, _i.absolute_slider_if.absolute_slider._c0.get_coord
	.weak _i.absolute_slider_if.__interface_init.maxchanends.group
	.add_to_set _i.absolute_slider_if.__interface_init.maxchanends.group, (absolute_slider.init.0.maxchanends + __interface_init_task_extra.maxchanends), absolute_slider.init.0
	.weak _i.absolute_slider_if.__interface_init.maxcores.group
	.add_to_set _i.absolute_slider_if.__interface_init.maxcores.group, (absolute_slider.init.0.maxcores + __interface_init_task_extra.maxcores), absolute_slider.init.0
	.weak _i.absolute_slider_if.__interface_init.maxtimers.group
	.add_to_set _i.absolute_slider_if.__interface_init.maxtimers.group, (absolute_slider.init.0.maxtimers + __interface_init_task_extra.maxtimers), absolute_slider.init.0
	.weak _i.absolute_slider_if.__interface_init.nstackwords.group
	.globl _i.absolute_slider_if.__interface_init.nstackwords.group
	.weak _i.absolute_slider_if.__interface_init.fns.group
	.globl _i.absolute_slider_if.__interface_init.fns.group
	.add_to_set _i.absolute_slider_if.__interface_init.nstackwords.group, (absolute_slider.init.0.nstackwords + __interface_init_task_extra.nstackwords), absolute_slider.init.0
	.add_to_set _i.absolute_slider_if.__interface_init.fns.group, absolute_slider.init.0, absolute_slider.init.0
	.weak absolute_slider.3.maxargsize.group
	.globl absolute_slider.3.maxargsize.group
	.add_to_set absolute_slider.3.maxargsize.group, 4
	.weak absolute_slider.4.maxargsize.group
	.globl absolute_slider.4.maxargsize.group
	.add_to_set absolute_slider.4.maxargsize.group, 80
	.weak absolute_slider.3.maxargsize.group
	.globl absolute_slider.3.maxargsize.group
	.add_to_set absolute_slider.3.maxargsize.group, 4
	.weak absolute_slider.4.maxargsize.group
	.globl absolute_slider.4.maxargsize.group
	.add_to_set absolute_slider.4.maxargsize.group, 80
	.set startkit_gpio_driver.select.yield.enable.savedstate,44+ startkit_gpio_driver_aux.select.enable.savedstate+ slider.select.enable.savedstate+ slider.select.enable.savedstate+ absolute_slider.select.enable.savedstate+ absolute_slider.select.enable.savedstate
	.globl startkit_gpio_driver.select.yield.enable.savedstate
	.set startkit_gpio_driver.select.yield.enable.cases.maxtimers,0 $M absolute_slider.select.enable.cases.maxtimers $M absolute_slider.select.enable.cases.maxtimers $M slider.select.enable.cases.maxtimers $M slider.select.enable.cases.maxtimers $M startkit_gpio_driver_aux.select.enable.cases.maxtimers
	.globl startkit_gpio_driver.select.yield.enable.cases.maxtimers
	.set startkit_gpio_driver.select.yield.enable.cases.maxcores,0 $M absolute_slider.select.enable.cases.maxcores $M absolute_slider.select.enable.cases.maxcores $M slider.select.enable.cases.maxcores $M slider.select.enable.cases.maxcores $M startkit_gpio_driver_aux.select.enable.cases.maxcores
	.globl startkit_gpio_driver.select.yield.enable.cases.maxcores
	.set startkit_gpio_driver.select.yield.enable.cases.maxchanends,0 $M absolute_slider.select.enable.cases.maxchanends $M absolute_slider.select.enable.cases.maxchanends $M slider.select.enable.cases.maxchanends $M slider.select.enable.cases.maxchanends $M startkit_gpio_driver_aux.select.enable.cases.maxchanends
	.globl startkit_gpio_driver.select.yield.enable.cases.maxchanends
	.set startkit_gpio_driver.select.yield.enable.cases,0
	.globl startkit_gpio_driver.select.yield.enable.cases
	.set startkit_gpio_driver.select.yield.enable.cases.nstackwords, 0 $M (absolute_slider.select.enable.cases.nstackwords) $M (slider.select.enable.cases.nstackwords) $M (startkit_gpio_driver_aux.select.enable.cases.nstackwords)
	.globl startkit_gpio_driver.select.yield.enable.cases.nstackwords
	.set startkit_gpio_driver.select.enable.savedstate,44+ startkit_gpio_driver_aux.select.enable.savedstate+ slider.select.enable.savedstate+ slider.select.enable.savedstate+ absolute_slider.select.enable.savedstate+ absolute_slider.select.enable.savedstate
	.globl startkit_gpio_driver.select.enable.savedstate
	.set startkit_gpio_driver.select.enable.cases.maxtimers,0 $M absolute_slider.select.enable.cases.maxtimers $M absolute_slider.select.enable.cases.maxtimers $M slider.select.enable.cases.maxtimers $M slider.select.enable.cases.maxtimers $M startkit_gpio_driver_aux.select.enable.cases.maxtimers
	.globl startkit_gpio_driver.select.enable.cases.maxtimers
	.set startkit_gpio_driver.select.enable.cases.maxcores,0 $M absolute_slider.select.enable.cases.maxcores $M absolute_slider.select.enable.cases.maxcores $M slider.select.enable.cases.maxcores $M slider.select.enable.cases.maxcores $M startkit_gpio_driver_aux.select.enable.cases.maxcores
	.globl startkit_gpio_driver.select.enable.cases.maxcores
	.set startkit_gpio_driver.select.enable.cases.maxchanends,0 $M absolute_slider.select.enable.cases.maxchanends $M absolute_slider.select.enable.cases.maxchanends $M slider.select.enable.cases.maxchanends $M slider.select.enable.cases.maxchanends $M startkit_gpio_driver_aux.select.enable.cases.maxchanends
	.globl startkit_gpio_driver.select.enable.cases.maxchanends
	.set startkit_gpio_driver.select.enable.cases,0
	.globl startkit_gpio_driver.select.enable.cases
	.set startkit_gpio_driver.select.enable.cases.nstackwords, 0 $M (absolute_slider.select.enable.cases.nstackwords) $M (slider.select.enable.cases.nstackwords) $M (startkit_gpio_driver_aux.select.enable.cases.nstackwords)
	.globl startkit_gpio_driver.select.enable.cases.nstackwords
	.weak _i.slider_query_if.filter.maxchanends.group
	.weak _i.slider_query_if.filter.maxcores.group
	.weak _i.slider_query_if.filter.maxtimers.group
	.weak _i.slider_query_if.filter.nstackwords.group
	.globl _i.slider_query_if.filter.nstackwords.group
	.weak _i.slider_query_if.filter.fns.group
	.globl _i.slider_query_if.filter.fns.group
	.weak _i.slider_query_if.get_coord.maxchanends.group
	.weak _i.slider_query_if.get_coord.maxcores.group
	.weak _i.slider_query_if.get_coord.maxtimers.group
	.weak _i.slider_query_if.get_coord.nstackwords.group
	.globl _i.slider_query_if.get_coord.nstackwords.group
	.weak _i.slider_query_if.get_coord.fns.group
	.globl _i.slider_query_if.get_coord.fns.group
	.weak _i.slider_query_if.__interface_init.maxchanends.group
	.weak _i.slider_query_if.__interface_init.maxcores.group
	.weak _i.slider_query_if.__interface_init.maxtimers.group
	.weak _i.slider_query_if.__interface_init.nstackwords.group
	.globl _i.slider_query_if.__interface_init.nstackwords.group
	.weak _i.slider_query_if.__interface_init.fns.group
	.globl _i.slider_query_if.__interface_init.fns.group
	.weak _i.absolute_slider_if.get_coord.maxchanends.group
	.weak _i.absolute_slider_if.get_coord.maxcores.group
	.weak _i.absolute_slider_if.get_coord.maxtimers.group
	.weak _i.absolute_slider_if.get_coord.nstackwords.group
	.globl _i.absolute_slider_if.get_coord.nstackwords.group
	.weak _i.absolute_slider_if.get_coord.fns.group
	.globl _i.absolute_slider_if.get_coord.fns.group
	.weak _i.absolute_slider_if.__interface_init.maxchanends.group
	.weak _i.absolute_slider_if.__interface_init.maxcores.group
	.weak _i.absolute_slider_if.__interface_init.maxtimers.group
	.weak _i.absolute_slider_if.__interface_init.nstackwords.group
	.globl _i.absolute_slider_if.__interface_init.nstackwords.group
	.weak _i.absolute_slider_if.__interface_init.fns.group
	.globl _i.absolute_slider_if.__interface_init.fns.group
	.weak _i.startkit_button_if.get_value.maxchanends.group
	.max_reduce _i.startkit_button_if.get_value.max.maxchanends, _i.startkit_button_if.get_value.maxchanends.group, 0
	.weak _i.startkit_button_if.get_value.maxcores.group
	.max_reduce _i.startkit_button_if.get_value.max.maxcores, _i.startkit_button_if.get_value.maxcores.group, 0
	.weak _i.startkit_button_if.get_value.maxtimers.group
	.max_reduce _i.startkit_button_if.get_value.max.maxtimers, _i.startkit_button_if.get_value.maxtimers.group, 0
	.weak _i.startkit_button_if.get_value.nstackwords.group
	.globl _i.startkit_button_if.get_value.nstackwords.group
	.weak _i.startkit_button_if.get_value.fns.group
	.globl _i.startkit_button_if.get_value.fns.group
	.max_reduce _i.startkit_button_if.get_value.max.nstackwords, _i.startkit_button_if.get_value.nstackwords.group, 0
	.max_reduce _i.startkit_button_if.get_value.fns, _i.startkit_button_if.get_value.fns.group, 0
	.weak _i.startkit_button_if.__interface_init.maxchanends.group
	.max_reduce _i.startkit_button_if.__interface_init.max.maxchanends, _i.startkit_button_if.__interface_init.maxchanends.group, 0
	.weak _i.startkit_button_if.__interface_init.maxcores.group
	.max_reduce _i.startkit_button_if.__interface_init.max.maxcores, _i.startkit_button_if.__interface_init.maxcores.group, 0
	.weak _i.startkit_button_if.__interface_init.maxtimers.group
	.max_reduce _i.startkit_button_if.__interface_init.max.maxtimers, _i.startkit_button_if.__interface_init.maxtimers.group, 0
	.weak _i.startkit_button_if.__interface_init.nstackwords.group
	.globl _i.startkit_button_if.__interface_init.nstackwords.group
	.weak _i.startkit_button_if.__interface_init.fns.group
	.globl _i.startkit_button_if.__interface_init.fns.group
	.max_reduce _i.startkit_button_if.__interface_init.max.nstackwords, _i.startkit_button_if.__interface_init.nstackwords.group, 0
	.max_reduce _i.startkit_button_if.__interface_init.fns, _i.startkit_button_if.__interface_init.fns.group, 0
	.weak _i.startkit_button_if._client_call_y.maxchanends.group
	.add_to_set _i.startkit_button_if._client_call_y.maxchanends.group, (__interface_client_call_y_other.maxchanends + __interface_client_call_y_extra.maxchanends), __interface_client_call_y_other
	.max_reduce _i.startkit_button_if._client_call_y.max.maxchanends, _i.startkit_button_if._client_call_y.maxchanends.group, 0
	.weak _i.startkit_button_if._client_call_y.maxcores.group
	.add_to_set _i.startkit_button_if._client_call_y.maxcores.group, (__interface_client_call_y_other.maxcores + __interface_client_call_y_extra.maxcores), __interface_client_call_y_other
	.max_reduce _i.startkit_button_if._client_call_y.max.maxcores, _i.startkit_button_if._client_call_y.maxcores.group, 0
	.weak _i.startkit_button_if._client_call_y.maxtimers.group
	.add_to_set _i.startkit_button_if._client_call_y.maxtimers.group, (__interface_client_call_y_other.maxtimers + __interface_client_call_y_extra.maxtimers), __interface_client_call_y_other
	.max_reduce _i.startkit_button_if._client_call_y.max.maxtimers, _i.startkit_button_if._client_call_y.maxtimers.group, 0
	.weak _i.startkit_button_if._client_call_y.nstackwords.group
	.globl _i.startkit_button_if._client_call_y.nstackwords.group
	.weak _i.startkit_button_if._client_call_y.fns.group
	.globl _i.startkit_button_if._client_call_y.fns.group
	.add_to_set _i.startkit_button_if._client_call_y.nstackwords.group, (__interface_client_call_y_other.nstackwords + __interface_client_call_y_extra.nstackwords), __interface_client_call_y_other
	.add_to_set _i.startkit_button_if._client_call_y.fns.group, __interface_client_call_y_other, __interface_client_call_y_other
	.max_reduce _i.startkit_button_if._client_call_y.max.nstackwords, _i.startkit_button_if._client_call_y.nstackwords.group, 0
	.max_reduce _i.startkit_button_if._client_call_y.fns, _i.startkit_button_if._client_call_y.fns.group, 0
	.weak _i.startkit_led_if.set.maxchanends.group
	.max_reduce _i.startkit_led_if.set.max.maxchanends, _i.startkit_led_if.set.maxchanends.group, 0
	.weak _i.startkit_led_if.set.maxcores.group
	.max_reduce _i.startkit_led_if.set.max.maxcores, _i.startkit_led_if.set.maxcores.group, 0
	.weak _i.startkit_led_if.set.maxtimers.group
	.max_reduce _i.startkit_led_if.set.max.maxtimers, _i.startkit_led_if.set.maxtimers.group, 0
	.weak _i.startkit_led_if.set.nstackwords.group
	.globl _i.startkit_led_if.set.nstackwords.group
	.weak _i.startkit_led_if.set.fns.group
	.globl _i.startkit_led_if.set.fns.group
	.max_reduce _i.startkit_led_if.set.max.nstackwords, _i.startkit_led_if.set.nstackwords.group, 0
	.max_reduce _i.startkit_led_if.set.fns, _i.startkit_led_if.set.fns.group, 0
	.weak _i.startkit_led_if.set_multiple.maxchanends.group
	.max_reduce _i.startkit_led_if.set_multiple.max.maxchanends, _i.startkit_led_if.set_multiple.maxchanends.group, 0
	.weak _i.startkit_led_if.set_multiple.maxcores.group
	.max_reduce _i.startkit_led_if.set_multiple.max.maxcores, _i.startkit_led_if.set_multiple.maxcores.group, 0
	.weak _i.startkit_led_if.set_multiple.maxtimers.group
	.max_reduce _i.startkit_led_if.set_multiple.max.maxtimers, _i.startkit_led_if.set_multiple.maxtimers.group, 0
	.weak _i.startkit_led_if.set_multiple.nstackwords.group
	.globl _i.startkit_led_if.set_multiple.nstackwords.group
	.weak _i.startkit_led_if.set_multiple.fns.group
	.globl _i.startkit_led_if.set_multiple.fns.group
	.max_reduce _i.startkit_led_if.set_multiple.max.nstackwords, _i.startkit_led_if.set_multiple.nstackwords.group, 0
	.max_reduce _i.startkit_led_if.set_multiple.fns, _i.startkit_led_if.set_multiple.fns.group, 0
	.weak _i.startkit_led_if.__interface_init.maxchanends.group
	.max_reduce _i.startkit_led_if.__interface_init.max.maxchanends, _i.startkit_led_if.__interface_init.maxchanends.group, 0
	.weak _i.startkit_led_if.__interface_init.maxcores.group
	.max_reduce _i.startkit_led_if.__interface_init.max.maxcores, _i.startkit_led_if.__interface_init.maxcores.group, 0
	.weak _i.startkit_led_if.__interface_init.maxtimers.group
	.max_reduce _i.startkit_led_if.__interface_init.max.maxtimers, _i.startkit_led_if.__interface_init.maxtimers.group, 0
	.weak _i.startkit_led_if.__interface_init.nstackwords.group
	.globl _i.startkit_led_if.__interface_init.nstackwords.group
	.weak _i.startkit_led_if.__interface_init.fns.group
	.globl _i.startkit_led_if.__interface_init.fns.group
	.max_reduce _i.startkit_led_if.__interface_init.max.nstackwords, _i.startkit_led_if.__interface_init.nstackwords.group, 0
	.max_reduce _i.startkit_led_if.__interface_init.fns, _i.startkit_led_if.__interface_init.fns.group, 0
	.weak _i.startkit_led_if._client_call_y.maxchanends.group
	.add_to_set _i.startkit_led_if._client_call_y.maxchanends.group, (__interface_client_call_y_other.maxchanends + __interface_client_call_y_extra.maxchanends), __interface_client_call_y_other
	.max_reduce _i.startkit_led_if._client_call_y.max.maxchanends, _i.startkit_led_if._client_call_y.maxchanends.group, 0
	.weak _i.startkit_led_if._client_call_y.maxcores.group
	.add_to_set _i.startkit_led_if._client_call_y.maxcores.group, (__interface_client_call_y_other.maxcores + __interface_client_call_y_extra.maxcores), __interface_client_call_y_other
	.max_reduce _i.startkit_led_if._client_call_y.max.maxcores, _i.startkit_led_if._client_call_y.maxcores.group, 0
	.weak _i.startkit_led_if._client_call_y.maxtimers.group
	.add_to_set _i.startkit_led_if._client_call_y.maxtimers.group, (__interface_client_call_y_other.maxtimers + __interface_client_call_y_extra.maxtimers), __interface_client_call_y_other
	.max_reduce _i.startkit_led_if._client_call_y.max.maxtimers, _i.startkit_led_if._client_call_y.maxtimers.group, 0
	.weak _i.startkit_led_if._client_call_y.nstackwords.group
	.globl _i.startkit_led_if._client_call_y.nstackwords.group
	.weak _i.startkit_led_if._client_call_y.fns.group
	.globl _i.startkit_led_if._client_call_y.fns.group
	.add_to_set _i.startkit_led_if._client_call_y.nstackwords.group, (__interface_client_call_y_other.nstackwords + __interface_client_call_y_extra.nstackwords), __interface_client_call_y_other
	.add_to_set _i.startkit_led_if._client_call_y.fns.group, __interface_client_call_y_other, __interface_client_call_y_other
	.max_reduce _i.startkit_led_if._client_call_y.max.nstackwords, _i.startkit_led_if._client_call_y.nstackwords.group, 0
	.max_reduce _i.startkit_led_if._client_call_y.fns, _i.startkit_led_if._client_call_y.fns.group, 0
	.weak _i.slider_if.get_slider_state.maxchanends.group
	.max_reduce _i.slider_if.get_slider_state.max.maxchanends, _i.slider_if.get_slider_state.maxchanends.group, 0
	.weak _i.slider_if.get_slider_state.maxcores.group
	.max_reduce _i.slider_if.get_slider_state.max.maxcores, _i.slider_if.get_slider_state.maxcores.group, 0
	.weak _i.slider_if.get_slider_state.maxtimers.group
	.max_reduce _i.slider_if.get_slider_state.max.maxtimers, _i.slider_if.get_slider_state.maxtimers.group, 0
	.weak _i.slider_if.get_slider_state.nstackwords.group
	.globl _i.slider_if.get_slider_state.nstackwords.group
	.weak _i.slider_if.get_slider_state.fns.group
	.globl _i.slider_if.get_slider_state.fns.group
	.max_reduce _i.slider_if.get_slider_state.max.nstackwords, _i.slider_if.get_slider_state.nstackwords.group, 0
	.max_reduce _i.slider_if.get_slider_state.fns, _i.slider_if.get_slider_state.fns.group, 0
	.weak _i.slider_if.get_coord.maxchanends.group
	.max_reduce _i.slider_if.get_coord.max.maxchanends, _i.slider_if.get_coord.maxchanends.group, 0
	.weak _i.slider_if.get_coord.maxcores.group
	.max_reduce _i.slider_if.get_coord.max.maxcores, _i.slider_if.get_coord.maxcores.group, 0
	.weak _i.slider_if.get_coord.maxtimers.group
	.max_reduce _i.slider_if.get_coord.max.maxtimers, _i.slider_if.get_coord.maxtimers.group, 0
	.weak _i.slider_if.get_coord.nstackwords.group
	.globl _i.slider_if.get_coord.nstackwords.group
	.weak _i.slider_if.get_coord.fns.group
	.globl _i.slider_if.get_coord.fns.group
	.max_reduce _i.slider_if.get_coord.max.nstackwords, _i.slider_if.get_coord.nstackwords.group, 0
	.max_reduce _i.slider_if.get_coord.fns, _i.slider_if.get_coord.fns.group, 0
	.weak _i.slider_if.__interface_init.maxchanends.group
	.max_reduce _i.slider_if.__interface_init.max.maxchanends, _i.slider_if.__interface_init.maxchanends.group, 0
	.weak _i.slider_if.__interface_init.maxcores.group
	.max_reduce _i.slider_if.__interface_init.max.maxcores, _i.slider_if.__interface_init.maxcores.group, 0
	.weak _i.slider_if.__interface_init.maxtimers.group
	.max_reduce _i.slider_if.__interface_init.max.maxtimers, _i.slider_if.__interface_init.maxtimers.group, 0
	.weak _i.slider_if.__interface_init.nstackwords.group
	.globl _i.slider_if.__interface_init.nstackwords.group
	.weak _i.slider_if.__interface_init.fns.group
	.globl _i.slider_if.__interface_init.fns.group
	.max_reduce _i.slider_if.__interface_init.max.nstackwords, _i.slider_if.__interface_init.nstackwords.group, 0
	.max_reduce _i.slider_if.__interface_init.fns, _i.slider_if.__interface_init.fns.group, 0
	.weak _i.slider_if._client_call_y.maxchanends.group
	.add_to_set _i.slider_if._client_call_y.maxchanends.group, (__interface_client_call_y_other.maxchanends + __interface_client_call_y_extra.maxchanends), __interface_client_call_y_other
	.max_reduce _i.slider_if._client_call_y.max.maxchanends, _i.slider_if._client_call_y.maxchanends.group, 0
	.weak _i.slider_if._client_call_y.maxcores.group
	.add_to_set _i.slider_if._client_call_y.maxcores.group, (__interface_client_call_y_other.maxcores + __interface_client_call_y_extra.maxcores), __interface_client_call_y_other
	.max_reduce _i.slider_if._client_call_y.max.maxcores, _i.slider_if._client_call_y.maxcores.group, 0
	.weak _i.slider_if._client_call_y.maxtimers.group
	.add_to_set _i.slider_if._client_call_y.maxtimers.group, (__interface_client_call_y_other.maxtimers + __interface_client_call_y_extra.maxtimers), __interface_client_call_y_other
	.max_reduce _i.slider_if._client_call_y.max.maxtimers, _i.slider_if._client_call_y.maxtimers.group, 0
	.weak _i.slider_if._client_call_y.nstackwords.group
	.globl _i.slider_if._client_call_y.nstackwords.group
	.weak _i.slider_if._client_call_y.fns.group
	.globl _i.slider_if._client_call_y.fns.group
	.add_to_set _i.slider_if._client_call_y.nstackwords.group, (__interface_client_call_y_other.nstackwords + __interface_client_call_y_extra.nstackwords), __interface_client_call_y_other
	.add_to_set _i.slider_if._client_call_y.fns.group, __interface_client_call_y_other, __interface_client_call_y_other
	.max_reduce _i.slider_if._client_call_y.max.nstackwords, _i.slider_if._client_call_y.nstackwords.group, 0
	.max_reduce _i.slider_if._client_call_y.fns, _i.slider_if._client_call_y.fns.group, 0
	.set usage.anon.0,0
	.set usage.anon.1,0
	.set usage.anon.2,0
	.set usage.anon.3,0
	.globread startkit_gpio_driver_aux,usage.anon.3,"/Users/teig/workspace/lib_startkit_support/src/startkit_gpio.xc:154:22: note: object used here\n            data &= ~map[row][col];\n                     ^~~~~~~~~~~~~"
	.globread startkit_led_driver,usage.anon.3,"/Users/teig/workspace/lib_startkit_support/src/startkit_gpio.xc:39:16: note: object used here\n      data &= ~map[row][col];\n               ^~~~~~~~~~~~~"
	.call startkit_gpio_driver,startkit_gpio_driver_aux
	.call startkit_gpio_driver,slider
	.call startkit_gpio_driver,capsenseInitClock
	.call startkit_gpio_driver,absolute_slider
	.call usage.anon.2,delay_ticks_longlong
	.call usage.anon.1,delay_ticks_longlong
	.call usage.anon.0,delay_ticks_longlong
	.par startkit_gpio_driver_aux,slider,"/Users/teig/workspace/lib_startkit_support/src/startkit_gpio.xc:221:3: error: use of `%s\' violates parallel usage rules\n  par {\n  ^~~"
	.par startkit_gpio_driver_aux,slider,"/Users/teig/workspace/lib_startkit_support/src/startkit_gpio.xc:221:3: error: use of `%s\' violates parallel usage rules\n  par {\n  ^~~"
	.par startkit_gpio_driver_aux,absolute_slider,"/Users/teig/workspace/lib_startkit_support/src/startkit_gpio.xc:221:3: error: use of `%s\' violates parallel usage rules\n  par {\n  ^~~"
	.par startkit_gpio_driver_aux,absolute_slider,"/Users/teig/workspace/lib_startkit_support/src/startkit_gpio.xc:221:3: error: use of `%s\' violates parallel usage rules\n  par {\n  ^~~"
	.par slider,slider,"/Users/teig/workspace/lib_startkit_support/src/startkit_gpio.xc:221:3: error: use of `%s\' violates parallel usage rules\n  par {\n  ^~~"
	.par slider,absolute_slider,"/Users/teig/workspace/lib_startkit_support/src/startkit_gpio.xc:221:3: error: use of `%s\' violates parallel usage rules\n  par {\n  ^~~"
	.par slider,absolute_slider,"/Users/teig/workspace/lib_startkit_support/src/startkit_gpio.xc:221:3: error: use of `%s\' violates parallel usage rules\n  par {\n  ^~~"
	.par slider,absolute_slider,"/Users/teig/workspace/lib_startkit_support/src/startkit_gpio.xc:221:3: error: use of `%s\' violates parallel usage rules\n  par {\n  ^~~"
	.par slider,absolute_slider,"/Users/teig/workspace/lib_startkit_support/src/startkit_gpio.xc:221:3: error: use of `%s\' violates parallel usage rules\n  par {\n  ^~~"
	.par absolute_slider,absolute_slider,"/Users/teig/workspace/lib_startkit_support/src/startkit_gpio.xc:221:3: error: use of `%s\' violates parallel usage rules\n  par {\n  ^~~"
	.set startkit_led_driver.locnoside, 0
	.set startkit_gpio_driver_aux.locnoside, 0
	.set startkit_gpio_driver.locnoside, 0
	.set startkit_led_driver.locnoglobalaccess, 0
	.set startkit_gpio_driver_aux.locnoglobalaccess, 0
	.set startkit_led_driver.locnointerfaceaccess, 0
	.set startkit_gpio_driver_aux.locnointerfaceaccess, 0
	.assert 1,capsenseInitClock.actnointerfaceaccess,"/Users/teig/workspace/lib_startkit_support/src/startkit_gpio.xc:219:3: error: call to function `capsenseInitClock\' which accesses an interface in initialization of nested combinable function\n  capsenseInitClock(ps.clk);\n  ^~~~~~~~~~~~~~~~~~~~~~~~~"


	.text
	.globl	_i.startkit_led_if.startkit_led_driver._c0.set_multiple
	.align	4
	.type	_i.startkit_led_if.startkit_led_driver._c0.set_multiple,@function
	.cc_top _i.startkit_led_if.startkit_led_driver._c0.set_multiple.function,_i.startkit_led_if.startkit_led_driver._c0.set_multiple
_i.startkit_led_if.startkit_led_driver._c0.set_multiple:
.Lfunc_begin0:
	.loc	1 45 0
	.cfi_startproc
	extsp 5
.Ltmp0:
	.cfi_def_cfa_offset 20
	stw r4, sp[4]
.Ltmp1:
	.cfi_offset 4, -4
	stw r5, sp[3]
.Ltmp2:
	.cfi_offset 5, -8
	stw r6, sp[2]
.Ltmp3:
	.cfi_offset 6, -12
	stw r7, sp[1]
.Ltmp4:
	.cfi_offset 7, -16
	stw r8, sp[0]
.Ltmp5:
	.cfi_offset 8, -20
	ldw r0, r0[0]
.Ltmp6:
.LBB0_1:
	ldw r3, r0[0]
	bf r3, .LBB0_1
.Ltmp7:
	ldc r3, 0
	stw r3, r0[0]
	mkmsk r11, 5
	.loc	1 46 0 prologue_end
.Ltmp8:
	shr r2, r2, r11
.Ltmp9:
	ldc r4, 2
	ldaw r11, cp[map+24]
.Ltmp10:
.LBB0_3:
.Lxtalabel0:
	.loc	1 52 0
	ldw r6, r11[2]
	.loc	1 52 0
	ldw r5, r0[8]
	.loc	1 52 0
	andnot r5, r6
	.loc	1 53 0
	and r8, r2, r1
	.loc	1 53 0
	mov r7, r3
	bt r8, .LBB0_5
.Ltmp11:
.Lxtalabel1:
	mov r7, r6
.Ltmp12:
.LBB0_5:
.Lxtalabel2:
	.loc	1 53 0
	or r5, r5, r7
	.loc	1 53 0
	stw r5, r0[8]
	.loc	1 54 0
	shr r7, r1, 1
.Ltmp13:
	.loc	1 52 0
	ldw r6, r11[1]
	.loc	1 52 0
	andnot r5, r6
	.loc	1 53 0
	and r8, r2, r7
	.loc	1 53 0
	mov r7, r3
	bt r8, .LBB0_7
.Ltmp14:
.Lxtalabel3:
	mov r7, r6
.Ltmp15:
.LBB0_7:
.Lxtalabel4:
	.loc	1 53 0
	or r5, r5, r7
	.loc	1 53 0
	stw r5, r0[8]
	.loc	1 54 0
	shr r7, r1, 2
	.loc	1 52 0
	ldw r6, r11[0]
	.loc	1 52 0
	andnot r5, r6
	.loc	1 53 0
	and r8, r2, r7
	.loc	1 53 0
	mov r7, r3
	bt r8, .LBB0_9
.Ltmp16:
.Lxtalabel5:
	mov r7, r6
.Ltmp17:
.LBB0_9:
.Lxtalabel6:
	.loc	1 53 0
	or r5, r5, r7
	.loc	1 53 0
	stw r5, r0[8]
	.loc	1 54 0
	shr r1, r1, 3
.Ltmp18:
	.loc	1 49 0
	sub r4, r4, 1
.Ltmp19:
	.loc	1 49 0
	ldaw r11, r11[-3]
.Lxta.loop_labels0:
	# LOOPMARKER 0
	.loc	1 49 0
	ashr r6, r4, 32
	bf r6, .LBB0_3
.Ltmp20:
.Lxtalabel7:
	.loc	1 58 18
	ldw r1, r0[7]
	.loc	1 58 18
.Lxta.endpoint_labels0:
	out res[r1], r5
	mkmsk r1, 1
	stw r1, r0[0]
	ldw r8, sp[0]
	ldw r7, sp[1]
	ldw r6, sp[2]
	ldw r5, sp[3]
	ldw r4, sp[4]
	ldaw sp, sp[5]
	retsp 0
	# RETURN_REG_HOLDER
.Ltmp21:
	.cc_bottom _i.startkit_led_if.startkit_led_driver._c0.set_multiple.function
	.set	_i.startkit_led_if.startkit_led_driver._c0.set_multiple.nstackwords,5
	.globl	_i.startkit_led_if.startkit_led_driver._c0.set_multiple.nstackwords
	.set	_i.startkit_led_if.startkit_led_driver._c0.set_multiple.maxcores,1
	.globl	_i.startkit_led_if.startkit_led_driver._c0.set_multiple.maxcores
	.set	_i.startkit_led_if.startkit_led_driver._c0.set_multiple.maxtimers,0
	.globl	_i.startkit_led_if.startkit_led_driver._c0.set_multiple.maxtimers
	.set	_i.startkit_led_if.startkit_led_driver._c0.set_multiple.maxchanends,0
	.globl	_i.startkit_led_if.startkit_led_driver._c0.set_multiple.maxchanends
.Ltmp22:
	.size	_i.startkit_led_if.startkit_led_driver._c0.set_multiple, .Ltmp22-_i.startkit_led_if.startkit_led_driver._c0.set_multiple
.Lfunc_end0:
	.cfi_endproc

	.globl	_i.startkit_led_if.startkit_led_driver._c0.set
	.align	4
	.type	_i.startkit_led_if.startkit_led_driver._c0.set,@function
	.cc_top _i.startkit_led_if.startkit_led_driver._c0.set.function,_i.startkit_led_if.startkit_led_driver._c0.set
_i.startkit_led_if.startkit_led_driver._c0.set:
.Lfunc_begin1:
	.loc	1 34 0
	.cfi_startproc
	extsp 2
.Ltmp23:
	.cfi_def_cfa_offset 8
	stw r4, sp[1]
.Ltmp24:
	.cfi_offset 4, -4
	stw r5, sp[0]
.Ltmp25:
	.cfi_offset 5, -8
	ldw r0, r0[0]
.Ltmp26:
.LBB1_1:
	ldw r11, r0[0]
	bf r11, .LBB1_1
.Ltmp27:
	ldc r4, 0
	stw r4, r0[0]
	mkmsk r11, 2
	.loc	1 39 0 prologue_end
.Ltmp28:
	lsu r5, r1, r11
.Ltrap_info0:
	ecallf r5
	.loc	1 39 0
	lsu r11, r2, r11
.Ltrap_info1:
	ecallf r11
	ldc r11, 12
	.loc	1 39 0
	mul r1, r1, r11
.Ltmp29:
	ldaw r11, cp[map]
	add r1, r11, r1
	.loc	1 39 0
	ldw r2, r1[r2]
.Ltmp30:
	.loc	1 39 0
	ldw r1, r0[8]
	.loc	1 39 0
	andnot r1, r2
	.loc	1 41 0
	ashr r3, r3, 32
.Ltmp31:
	bt r3, .LBB1_4
	mov r4, r2
.LBB1_4:
	.loc	1 41 0
	or r1, r1, r4
	.loc	1 41 0
	stw r1, r0[8]
	.loc	1 43 18
	ldw r2, r0[7]
	.loc	1 43 18
.Lxta.endpoint_labels1:
	out res[r2], r1
	mkmsk r1, 1
	stw r1, r0[0]
	ldw r5, sp[0]
	ldw r4, sp[1]
	ldaw sp, sp[2]
	retsp 0
	# RETURN_REG_HOLDER
.Ltmp32:
	.cc_bottom _i.startkit_led_if.startkit_led_driver._c0.set.function
	.set	_i.startkit_led_if.startkit_led_driver._c0.set.nstackwords,2
	.globl	_i.startkit_led_if.startkit_led_driver._c0.set.nstackwords
	.set	_i.startkit_led_if.startkit_led_driver._c0.set.maxcores,1
	.globl	_i.startkit_led_if.startkit_led_driver._c0.set.maxcores
	.set	_i.startkit_led_if.startkit_led_driver._c0.set.maxtimers,0
	.globl	_i.startkit_led_if.startkit_led_driver._c0.set.maxtimers
	.set	_i.startkit_led_if.startkit_led_driver._c0.set.maxchanends,0
	.globl	_i.startkit_led_if.startkit_led_driver._c0.set.maxchanends
.Ltmp33:
	.size	_i.startkit_led_if.startkit_led_driver._c0.set, .Ltmp33-_i.startkit_led_if.startkit_led_driver._c0.set
.Lfunc_end1:
	.cfi_endproc

	.globl	_i.startkit_led_if.startkit_led_driver.0.set_multiple
	.align	4
	.type	_i.startkit_led_if.startkit_led_driver.0.set_multiple,@function
	.cc_top _i.startkit_led_if.startkit_led_driver.0.set_multiple.function,_i.startkit_led_if.startkit_led_driver.0.set_multiple
_i.startkit_led_if.startkit_led_driver.0.set_multiple:
.Lfunc_begin2:
	.loc	1 45 0
	.cfi_startproc
	entsp 7
.Ltmp34:
	.cfi_def_cfa_offset 28
.Ltmp35:
	.cfi_offset 15, 0
	stw r4, sp[6]
.Ltmp36:
	.cfi_offset 4, -4
	stw r5, sp[5]
.Ltmp37:
	.cfi_offset 5, -8
	stw r6, sp[4]
.Ltmp38:
	.cfi_offset 6, -12
	stw r7, sp[3]
.Ltmp39:
	.cfi_offset 7, -16
	stw r8, sp[2]
.Ltmp40:
	.cfi_offset 8, -20
	stw r9, sp[1]
.Ltmp41:
	.cfi_offset 9, -24
	mov r6, r2
.Ltmp42:
	mov r5, r1
.Ltmp43:
	ldw r7, r0[0]
	add r4, r7, 8
	mov r0, r4
.Ltmp44:
	bl __lock_fair_acquire
	mkmsk r0, 5
	.loc	1 46 0 prologue_end
.Ltmp45:
	shr r0, r6, r0
.Ltmp46:
	ldc r1, 2
	ldaw r11, cp[map+24]
.Ltmp47:
	ldc r2, 0
.Ltmp48:
.LBB2_1:
.Lxtalabel8:
	.loc	1 52 0
	ldw r6, r11[2]
	.loc	1 52 0
	ldw r3, r7[8]
	.loc	1 52 0
	andnot r3, r6
	.loc	1 53 0
	and r9, r0, r5
	.loc	1 53 0
	mov r8, r2
	bt r9, .LBB2_3
.Ltmp49:
.Lxtalabel9:
	mov r8, r6
.Ltmp50:
.LBB2_3:
.Lxtalabel10:
	.loc	1 53 0
	or r3, r3, r8
	.loc	1 53 0
	stw r3, r7[8]
	.loc	1 54 0
	shr r8, r5, 1
.Ltmp51:
	.loc	1 52 0
	ldw r6, r11[1]
	.loc	1 52 0
	andnot r3, r6
	.loc	1 53 0
	and r9, r0, r8
	.loc	1 53 0
	mov r8, r2
	bt r9, .LBB2_5
.Ltmp52:
.Lxtalabel11:
	mov r8, r6
.Ltmp53:
.LBB2_5:
.Lxtalabel12:
	.loc	1 53 0
	or r3, r3, r8
	.loc	1 53 0
	stw r3, r7[8]
	.loc	1 54 0
	shr r8, r5, 2
	.loc	1 52 0
	ldw r6, r11[0]
	.loc	1 52 0
	andnot r3, r6
	.loc	1 53 0
	and r9, r0, r8
	.loc	1 53 0
	mov r8, r2
	bt r9, .LBB2_7
.Ltmp54:
.Lxtalabel13:
	mov r8, r6
.Ltmp55:
.LBB2_7:
.Lxtalabel14:
	.loc	1 53 0
	or r3, r3, r8
	.loc	1 53 0
	stw r3, r7[8]
	.loc	1 54 0
	shr r5, r5, 3
.Ltmp56:
	.loc	1 49 0
	sub r1, r1, 1
.Ltmp57:
	.loc	1 49 0
	ldaw r11, r11[-3]
.Lxta.loop_labels1:
	# LOOPMARKER 0
	.loc	1 49 0
	ashr r6, r1, 32
	bf r6, .LBB2_1
.Ltmp58:
.Lxtalabel15:
	.loc	1 58 18
	ldw r0, r7[7]
	.loc	1 58 18
.Lxta.endpoint_labels2:
	out res[r0], r3
	mov r0, r4
	bl __lock_fair_release
	ldw r9, sp[1]
	ldw r8, sp[2]
	ldw r7, sp[3]
	ldw r6, sp[4]
	ldw r5, sp[5]
	ldw r4, sp[6]
	retsp 7
	# RETURN_REG_HOLDER
.Ltmp59:
	.cc_bottom _i.startkit_led_if.startkit_led_driver.0.set_multiple.function
	.set	_i.startkit_led_if.startkit_led_driver.0.set_multiple.nstackwords,((__lock_fair_acquire.nstackwords $M __lock_fair_release.nstackwords) + 7)
	.globl	_i.startkit_led_if.startkit_led_driver.0.set_multiple.nstackwords
	.set	_i.startkit_led_if.startkit_led_driver.0.set_multiple.maxcores,__lock_fair_acquire.maxcores $M __lock_fair_release.maxcores $M 1
	.globl	_i.startkit_led_if.startkit_led_driver.0.set_multiple.maxcores
	.set	_i.startkit_led_if.startkit_led_driver.0.set_multiple.maxtimers,__lock_fair_acquire.maxtimers $M __lock_fair_release.maxtimers $M 0
	.globl	_i.startkit_led_if.startkit_led_driver.0.set_multiple.maxtimers
	.set	_i.startkit_led_if.startkit_led_driver.0.set_multiple.maxchanends,__lock_fair_acquire.maxchanends $M __lock_fair_release.maxchanends $M 0
	.globl	_i.startkit_led_if.startkit_led_driver.0.set_multiple.maxchanends
.Ltmp60:
	.size	_i.startkit_led_if.startkit_led_driver.0.set_multiple, .Ltmp60-_i.startkit_led_if.startkit_led_driver.0.set_multiple
.Lfunc_end2:
	.cfi_endproc

	.globl	_i.startkit_led_if.startkit_led_driver.0.set
	.align	4
	.type	_i.startkit_led_if.startkit_led_driver.0.set,@function
	.cc_top _i.startkit_led_if.startkit_led_driver.0.set.function,_i.startkit_led_if.startkit_led_driver.0.set
_i.startkit_led_if.startkit_led_driver.0.set:
.Lfunc_begin3:
	.loc	1 34 0
	.cfi_startproc
	entsp 6
.Ltmp61:
	.cfi_def_cfa_offset 24
.Ltmp62:
	.cfi_offset 15, 0
	stw r4, sp[5]
.Ltmp63:
	.cfi_offset 4, -4
	stw r5, sp[4]
.Ltmp64:
	.cfi_offset 5, -8
	stw r6, sp[3]
.Ltmp65:
	.cfi_offset 6, -12
	stw r7, sp[2]
.Ltmp66:
	.cfi_offset 7, -16
	stw r8, sp[1]
.Ltmp67:
	.cfi_offset 8, -20
	mov r5, r3
.Ltmp68:
	mov r6, r2
.Ltmp69:
	mov r7, r1
.Ltmp70:
	ldw r8, r0[0]
	add r4, r8, 8
	mov r0, r4
.Ltmp71:
	bl __lock_fair_acquire
	ldc r0, 2
	.loc	1 39 0 prologue_end
.Ltmp72:
	lsu r0, r0, r7
.Ltrap_info2:
	ecallt r0
	mkmsk r0, 2
	.loc	1 39 0
	lsu r0, r6, r0
.Ltrap_info3:
	ecallf r0
	ldc r0, 12
	.loc	1 39 0
	mul r0, r7, r0
	ldaw r11, cp[map]
	add r0, r11, r0
	.loc	1 39 0
	ldw r1, r0[r6]
	.loc	1 39 0
	ldw r0, r8[8]
	.loc	1 39 0
	andnot r0, r1
	.loc	1 41 0
	ashr r2, r5, 32
	bf r2, .LBB3_2
.Ltmp73:
	ldc r1, 0
.LBB3_2:
	.loc	1 41 0
	or r0, r0, r1
	.loc	1 41 0
	stw r0, r8[8]
	.loc	1 43 18
	ldw r1, r8[7]
	.loc	1 43 18
.Lxta.endpoint_labels3:
	out res[r1], r0
	mov r0, r4
	bl __lock_fair_release
	ldw r8, sp[1]
	ldw r7, sp[2]
	ldw r6, sp[3]
	ldw r5, sp[4]
	ldw r4, sp[5]
	retsp 6
	# RETURN_REG_HOLDER
.Ltmp74:
	.cc_bottom _i.startkit_led_if.startkit_led_driver.0.set.function
	.set	_i.startkit_led_if.startkit_led_driver.0.set.nstackwords,((__lock_fair_acquire.nstackwords $M __lock_fair_release.nstackwords) + 6)
	.globl	_i.startkit_led_if.startkit_led_driver.0.set.nstackwords
	.set	_i.startkit_led_if.startkit_led_driver.0.set.maxcores,__lock_fair_acquire.maxcores $M __lock_fair_release.maxcores $M 1
	.globl	_i.startkit_led_if.startkit_led_driver.0.set.maxcores
	.set	_i.startkit_led_if.startkit_led_driver.0.set.maxtimers,__lock_fair_acquire.maxtimers $M __lock_fair_release.maxtimers $M 0
	.globl	_i.startkit_led_if.startkit_led_driver.0.set.maxtimers
	.set	_i.startkit_led_if.startkit_led_driver.0.set.maxchanends,__lock_fair_acquire.maxchanends $M __lock_fair_release.maxchanends $M 0
	.globl	_i.startkit_led_if.startkit_led_driver.0.set.maxchanends
.Ltmp75:
	.size	_i.startkit_led_if.startkit_led_driver.0.set, .Ltmp75-_i.startkit_led_if.startkit_led_driver.0.set
.Lfunc_end3:
	.cfi_endproc

	.globl	_i.slider_if.startkit_gpio_driver_aux._c3.get_coord
	.align	4
	.type	_i.slider_if.startkit_gpio_driver_aux._c3.get_coord,@function
	.cc_top _i.slider_if.startkit_gpio_driver_aux._c3.get_coord.function,_i.slider_if.startkit_gpio_driver_aux._c3.get_coord
_i.slider_if.startkit_gpio_driver_aux._c3.get_coord:
.Lfunc_begin4:
	.loc	1 197 0
	.cfi_startproc
	entsp 2
.Ltmp76:
	.cfi_def_cfa_offset 8
.Ltmp77:
	.cfi_offset 15, 0
	stw r4, sp[1]
.Ltmp78:
	.cfi_offset 4, -4
	mov r4, r0
.Ltmp79:
.LBB4_1:
	ldw r0, r4[0]
	bf r0, .LBB4_1
.Ltmp80:
	ldw r0, r4[5]
	bf r0, .LBB4_4
.Ltmp81:
	ldc r0, 0
	stw r0, r4[0]
	.loc	1 198 0 prologue_end
.Ltmp82:
	ldw r1, r4[8]
	.loc	1 198 0
	ldw r0, r1[0]
	.loc	1 198 0
	ldw r1, r1[1]
	.loc	1 198 0
	ldw r1, r1[1]
	.loc	1 198 0
.Lxta.call_labels0:
	bla r1
	mkmsk r1, 1
	stw r1, r4[0]
	ldw r4, sp[1]
.Ltmp83:
	retsp 2
	# RETURN_REG_HOLDER
.Ltmp84:
.LBB4_4:
	bu .LBB4_4
	.cc_bottom _i.slider_if.startkit_gpio_driver_aux._c3.get_coord.function
	.set	_i.slider_if.startkit_gpio_driver_aux._c3.get_coord.nstackwords,(_i.slider_query_if.get_coord.max.nstackwords + 2)
	.globl	_i.slider_if.startkit_gpio_driver_aux._c3.get_coord.nstackwords
	.set	_i.slider_if.startkit_gpio_driver_aux._c3.get_coord.maxcores,_i.slider_query_if.get_coord.max.maxcores $M 1
	.globl	_i.slider_if.startkit_gpio_driver_aux._c3.get_coord.maxcores
	.set	_i.slider_if.startkit_gpio_driver_aux._c3.get_coord.maxtimers,_i.slider_query_if.get_coord.max.maxtimers $M 0
	.globl	_i.slider_if.startkit_gpio_driver_aux._c3.get_coord.maxtimers
	.set	_i.slider_if.startkit_gpio_driver_aux._c3.get_coord.maxchanends,_i.slider_query_if.get_coord.max.maxchanends $M 0
	.globl	_i.slider_if.startkit_gpio_driver_aux._c3.get_coord.maxchanends
.Ltmp85:
	.size	_i.slider_if.startkit_gpio_driver_aux._c3.get_coord, .Ltmp85-_i.slider_if.startkit_gpio_driver_aux._c3.get_coord
.Lfunc_end4:
	.cfi_endproc

	.globl	_i.slider_if.startkit_gpio_driver_aux._c3.get_slider_state
	.align	4
	.type	_i.slider_if.startkit_gpio_driver_aux._c3.get_slider_state,@function
	.cc_top _i.slider_if.startkit_gpio_driver_aux._c3.get_slider_state.function,_i.slider_if.startkit_gpio_driver_aux._c3.get_slider_state
_i.slider_if.startkit_gpio_driver_aux._c3.get_slider_state:
.Lfunc_begin5:
	.loc	1 200 0
	.cfi_startproc
.LBB5_1:
	ldw r2, r0[0]
	bf r2, .LBB5_1
.Ltmp86:
	ldw r2, r0[5]
	bf r2, .LBB5_5
.Ltmp87:
	ldc r3, 0
	stw r3, r0[0]
	ldw r3, r2[4]
	eq r1, r3, r1
.Ltmp88:
	bt r1, .LBB5_4
	ldw r1, r2[2]
	ldw r3, r2[3]
	#APP
	getd r11, res[r1]
	#NO_APP
	setd res[r1], r3
	outct res[r1], 1
	setd res[r1], r11
.LBB5_4:
	mkmsk r3, 1
	stw r3, r2[4]
	ldc r1, 88
	.loc	1 201 0 prologue_end
.Ltmp89:
	add r1, r0, r1
	.loc	1 201 0
	ldw r1, r1[0]
	stw r3, r0[0]
	mov r0, r1
	retsp 0
	# RETURN_REG_HOLDER
.Ltmp90:
.LBB5_5:
	bu .LBB5_5
	.cc_bottom _i.slider_if.startkit_gpio_driver_aux._c3.get_slider_state.function
	.set	_i.slider_if.startkit_gpio_driver_aux._c3.get_slider_state.nstackwords,0
	.globl	_i.slider_if.startkit_gpio_driver_aux._c3.get_slider_state.nstackwords
	.set	_i.slider_if.startkit_gpio_driver_aux._c3.get_slider_state.maxcores,1
	.globl	_i.slider_if.startkit_gpio_driver_aux._c3.get_slider_state.maxcores
	.set	_i.slider_if.startkit_gpio_driver_aux._c3.get_slider_state.maxtimers,0
	.globl	_i.slider_if.startkit_gpio_driver_aux._c3.get_slider_state.maxtimers
	.set	_i.slider_if.startkit_gpio_driver_aux._c3.get_slider_state.maxchanends,0
	.globl	_i.slider_if.startkit_gpio_driver_aux._c3.get_slider_state.maxchanends
.Ltmp91:
	.size	_i.slider_if.startkit_gpio_driver_aux._c3.get_slider_state, .Ltmp91-_i.slider_if.startkit_gpio_driver_aux._c3.get_slider_state
.Lfunc_end5:
	.cfi_endproc

	.globl	_i.slider_if.startkit_gpio_driver_aux._c2.get_coord
	.align	4
	.type	_i.slider_if.startkit_gpio_driver_aux._c2.get_coord,@function
	.cc_top _i.slider_if.startkit_gpio_driver_aux._c2.get_coord.function,_i.slider_if.startkit_gpio_driver_aux._c2.get_coord
_i.slider_if.startkit_gpio_driver_aux._c2.get_coord:
.Lfunc_begin6:
	.loc	1 191 0
	.cfi_startproc
	entsp 2
.Ltmp92:
	.cfi_def_cfa_offset 8
.Ltmp93:
	.cfi_offset 15, 0
	stw r4, sp[1]
.Ltmp94:
	.cfi_offset 4, -4
	mov r4, r0
.Ltmp95:
.LBB6_1:
	ldw r0, r4[0]
	bf r0, .LBB6_1
.Ltmp96:
	ldw r0, r4[4]
	bf r0, .LBB6_4
.Ltmp97:
	ldc r0, 0
	stw r0, r4[0]
	.loc	1 192 0 prologue_end
.Ltmp98:
	ldw r1, r4[7]
	.loc	1 192 0
	ldw r0, r1[0]
	.loc	1 192 0
	ldw r1, r1[1]
	.loc	1 192 0
	ldw r1, r1[1]
	.loc	1 192 0
.Lxta.call_labels1:
	bla r1
	mkmsk r1, 1
	stw r1, r4[0]
	ldw r4, sp[1]
.Ltmp99:
	retsp 2
	# RETURN_REG_HOLDER
.Ltmp100:
.LBB6_4:
	bu .LBB6_4
	.cc_bottom _i.slider_if.startkit_gpio_driver_aux._c2.get_coord.function
	.set	_i.slider_if.startkit_gpio_driver_aux._c2.get_coord.nstackwords,(_i.slider_query_if.get_coord.max.nstackwords + 2)
	.globl	_i.slider_if.startkit_gpio_driver_aux._c2.get_coord.nstackwords
	.set	_i.slider_if.startkit_gpio_driver_aux._c2.get_coord.maxcores,_i.slider_query_if.get_coord.max.maxcores $M 1
	.globl	_i.slider_if.startkit_gpio_driver_aux._c2.get_coord.maxcores
	.set	_i.slider_if.startkit_gpio_driver_aux._c2.get_coord.maxtimers,_i.slider_query_if.get_coord.max.maxtimers $M 0
	.globl	_i.slider_if.startkit_gpio_driver_aux._c2.get_coord.maxtimers
	.set	_i.slider_if.startkit_gpio_driver_aux._c2.get_coord.maxchanends,_i.slider_query_if.get_coord.max.maxchanends $M 0
	.globl	_i.slider_if.startkit_gpio_driver_aux._c2.get_coord.maxchanends
.Ltmp101:
	.size	_i.slider_if.startkit_gpio_driver_aux._c2.get_coord, .Ltmp101-_i.slider_if.startkit_gpio_driver_aux._c2.get_coord
.Lfunc_end6:
	.cfi_endproc

	.globl	_i.slider_if.startkit_gpio_driver_aux._c2.get_slider_state
	.align	4
	.type	_i.slider_if.startkit_gpio_driver_aux._c2.get_slider_state,@function
	.cc_top _i.slider_if.startkit_gpio_driver_aux._c2.get_slider_state.function,_i.slider_if.startkit_gpio_driver_aux._c2.get_slider_state
_i.slider_if.startkit_gpio_driver_aux._c2.get_slider_state:
.Lfunc_begin7:
	.loc	1 194 0
	.cfi_startproc
.LBB7_1:
	ldw r2, r0[0]
	bf r2, .LBB7_1
.Ltmp102:
	ldw r2, r0[4]
	bf r2, .LBB7_5
.Ltmp103:
	ldc r3, 0
	stw r3, r0[0]
	ldw r3, r2[4]
	eq r1, r3, r1
.Ltmp104:
	bt r1, .LBB7_4
	ldw r1, r2[2]
	ldw r3, r2[3]
	#APP
	getd r11, res[r1]
	#NO_APP
	setd res[r1], r3
	outct res[r1], 1
	setd res[r1], r11
.LBB7_4:
	mkmsk r3, 1
	stw r3, r2[4]
	ldc r1, 84
	.loc	1 195 0 prologue_end
.Ltmp105:
	add r1, r0, r1
	.loc	1 195 0
	ldw r1, r1[0]
	stw r3, r0[0]
	mov r0, r1
	retsp 0
	# RETURN_REG_HOLDER
.Ltmp106:
.LBB7_5:
	bu .LBB7_5
	.cc_bottom _i.slider_if.startkit_gpio_driver_aux._c2.get_slider_state.function
	.set	_i.slider_if.startkit_gpio_driver_aux._c2.get_slider_state.nstackwords,0
	.globl	_i.slider_if.startkit_gpio_driver_aux._c2.get_slider_state.nstackwords
	.set	_i.slider_if.startkit_gpio_driver_aux._c2.get_slider_state.maxcores,1
	.globl	_i.slider_if.startkit_gpio_driver_aux._c2.get_slider_state.maxcores
	.set	_i.slider_if.startkit_gpio_driver_aux._c2.get_slider_state.maxtimers,0
	.globl	_i.slider_if.startkit_gpio_driver_aux._c2.get_slider_state.maxtimers
	.set	_i.slider_if.startkit_gpio_driver_aux._c2.get_slider_state.maxchanends,0
	.globl	_i.slider_if.startkit_gpio_driver_aux._c2.get_slider_state.maxchanends
.Ltmp107:
	.size	_i.slider_if.startkit_gpio_driver_aux._c2.get_slider_state, .Ltmp107-_i.slider_if.startkit_gpio_driver_aux._c2.get_slider_state
.Lfunc_end7:
	.cfi_endproc

	.globl	_i.startkit_button_if.startkit_gpio_driver_aux._c1.get_value
	.align	4
	.type	_i.startkit_button_if.startkit_gpio_driver_aux._c1.get_value,@function
	.cc_top _i.startkit_button_if.startkit_gpio_driver_aux._c1.get_value.function,_i.startkit_button_if.startkit_gpio_driver_aux._c1.get_value
_i.startkit_button_if.startkit_gpio_driver_aux._c1.get_value:
.Lfunc_begin8:
	.loc	1 166 0
	.cfi_startproc
.LBB8_1:
	ldw r2, r0[0]
	bf r2, .LBB8_1
.Ltmp108:
	ldw r2, r0[3]
	bf r2, .LBB8_5
.Ltmp109:
	ldc r3, 0
	stw r3, r0[0]
	ldw r3, r2[4]
	eq r1, r3, r1
.Ltmp110:
	bt r1, .LBB8_4
	ldw r1, r2[2]
	ldw r3, r2[3]
	#APP
	getd r11, res[r1]
	#NO_APP
	setd res[r1], r3
	outct res[r1], 1
	setd res[r1], r11
.LBB8_4:
	mkmsk r3, 1
	stw r3, r2[4]
	.loc	1 167 0 prologue_end
.Ltmp111:
	ldw r1, r0[9]
	stw r3, r0[0]
	mov r0, r1
	retsp 0
	# RETURN_REG_HOLDER
.Ltmp112:
.LBB8_5:
	bu .LBB8_5
	.cc_bottom _i.startkit_button_if.startkit_gpio_driver_aux._c1.get_value.function
	.set	_i.startkit_button_if.startkit_gpio_driver_aux._c1.get_value.nstackwords,0
	.globl	_i.startkit_button_if.startkit_gpio_driver_aux._c1.get_value.nstackwords
	.set	_i.startkit_button_if.startkit_gpio_driver_aux._c1.get_value.maxcores,1
	.globl	_i.startkit_button_if.startkit_gpio_driver_aux._c1.get_value.maxcores
	.set	_i.startkit_button_if.startkit_gpio_driver_aux._c1.get_value.maxtimers,0
	.globl	_i.startkit_button_if.startkit_gpio_driver_aux._c1.get_value.maxtimers
	.set	_i.startkit_button_if.startkit_gpio_driver_aux._c1.get_value.maxchanends,0
	.globl	_i.startkit_button_if.startkit_gpio_driver_aux._c1.get_value.maxchanends
.Ltmp113:
	.size	_i.startkit_button_if.startkit_gpio_driver_aux._c1.get_value, .Ltmp113-_i.startkit_button_if.startkit_gpio_driver_aux._c1.get_value
.Lfunc_end8:
	.cfi_endproc

	.section	.cp.rodata.cst4,"aMc",@progbits,4
	.cc_top .LCPI9_0.data,.LCPI9_0
	.align	4
	.type	.LCPI9_0,@object
	.size	.LCPI9_0, 4
.LCPI9_0:
	.long	2419607531
	.cc_bottom .LCPI9_0.data
	.text
	.globl	_i.startkit_led_if.startkit_gpio_driver_aux._c0.set_multiple
	.align	4
	.type	_i.startkit_led_if.startkit_gpio_driver_aux._c0.set_multiple,@function
	.cc_top _i.startkit_led_if.startkit_gpio_driver_aux._c0.set_multiple.function,_i.startkit_led_if.startkit_gpio_driver_aux._c0.set_multiple
_i.startkit_led_if.startkit_gpio_driver_aux._c0.set_multiple:
.Lfunc_begin9:
	.loc	1 178 0
	.cfi_startproc
	extsp 3
.Ltmp114:
	.cfi_def_cfa_offset 12
	stw r4, sp[2]
.Ltmp115:
	.cfi_offset 4, -4
	stw r5, sp[1]
.Ltmp116:
	.cfi_offset 5, -8
	stw r6, sp[0]
.Ltmp117:
	.cfi_offset 6, -12
.LBB9_1:
	ldw r3, r0[0]
	bf r3, .LBB9_1
.Ltmp118:
	ldw r3, r0[2]
	bf r3, .LBB9_12
.Ltmp119:
	ldc r3, 0
	stw r3, r0[0]
	ldw r11, cp[.LCPI9_0]
	.loc	1 181 0 prologue_end
.Ltmp120:
	lmul r11, r4, r2, r11, r3, r3
	sub r2, r2, r11
.Ltmp121:
	shr r2, r2, 1
	add r2, r2, r11
	ldc r11, 9
	shr r2, r2, r11
.Ltmp122:
	ldc r11, 72
.Ltmp123:
	add r11, r0, r11
	ldc r4, 2
.Ltmp124:
.LBB9_4:
.Lxtalabel16:
	.loc	1 186 0
	mov r6, r1
	zext r6, 1
	.loc	1 186 0
	mov r5, r2
	bt r6, .LBB9_6
.Ltmp125:
.Lxtalabel17:
	mov r5, r3
.Ltmp126:
.LBB9_6:
.Lxtalabel18:
	.loc	1 186 0
	stw r5, r11[2]
	.loc	1 187 0
	shr r6, r1, 1
.Ltmp127:
	.loc	1 186 0
	zext r6, 1
	.loc	1 186 0
	mov r5, r2
	bt r6, .LBB9_8
.Ltmp128:
.Lxtalabel19:
	mov r5, r3
.Ltmp129:
.LBB9_8:
.Lxtalabel20:
	.loc	1 186 0
	stw r5, r11[1]
	.loc	1 187 0
	shr r6, r1, 2
	.loc	1 186 0
	zext r6, 1
	.loc	1 186 0
	mov r5, r2
	bt r6, .LBB9_10
.Ltmp130:
.Lxtalabel21:
	mov r5, r3
.Ltmp131:
.LBB9_10:
.Lxtalabel22:
	.loc	1 186 0
	stw r5, r11[0]
	.loc	1 187 0
	shr r1, r1, 3
.Ltmp132:
	.loc	1 184 0
	sub r4, r4, 1
.Ltmp133:
	.loc	1 184 0
	ldaw r11, r11[-3]
.Lxta.loop_labels2:
	# LOOPMARKER 0
	.loc	1 184 0
	ashr r5, r4, 32
	bf r5, .LBB9_4
.Ltmp134:
.Lxtalabel23:
	mkmsk r1, 1
	stw r1, r0[0]
	ldw r6, sp[0]
	ldw r5, sp[1]
	ldw r4, sp[2]
	ldaw sp, sp[3]
	retsp 0
	# RETURN_REG_HOLDER
.LBB9_12:
	bu .LBB9_12
	.cc_bottom _i.startkit_led_if.startkit_gpio_driver_aux._c0.set_multiple.function
	.set	_i.startkit_led_if.startkit_gpio_driver_aux._c0.set_multiple.nstackwords,3
	.globl	_i.startkit_led_if.startkit_gpio_driver_aux._c0.set_multiple.nstackwords
	.set	_i.startkit_led_if.startkit_gpio_driver_aux._c0.set_multiple.maxcores,1
	.globl	_i.startkit_led_if.startkit_gpio_driver_aux._c0.set_multiple.maxcores
	.set	_i.startkit_led_if.startkit_gpio_driver_aux._c0.set_multiple.maxtimers,0
	.globl	_i.startkit_led_if.startkit_gpio_driver_aux._c0.set_multiple.maxtimers
	.set	_i.startkit_led_if.startkit_gpio_driver_aux._c0.set_multiple.maxchanends,0
	.globl	_i.startkit_led_if.startkit_gpio_driver_aux._c0.set_multiple.maxchanends
.Ltmp135:
	.size	_i.startkit_led_if.startkit_gpio_driver_aux._c0.set_multiple, .Ltmp135-_i.startkit_led_if.startkit_gpio_driver_aux._c0.set_multiple
.Lfunc_end9:
	.cfi_endproc

	.section	.cp.rodata.cst4,"aMc",@progbits,4
	.cc_top .LCPI10_0.data,.LCPI10_0
	.align	4
	.type	.LCPI10_0,@object
	.size	.LCPI10_0, 4
.LCPI10_0:
	.long	2419607531
	.cc_bottom .LCPI10_0.data
	.text
	.globl	_i.startkit_led_if.startkit_gpio_driver_aux._c0.set
	.align	4
	.type	_i.startkit_led_if.startkit_gpio_driver_aux._c0.set,@function
	.cc_top _i.startkit_led_if.startkit_gpio_driver_aux._c0.set.function,_i.startkit_led_if.startkit_gpio_driver_aux._c0.set
_i.startkit_led_if.startkit_gpio_driver_aux._c0.set:
.Lfunc_begin10:
	.loc	1 171 0
	.cfi_startproc
	extsp 2
.Ltmp136:
	.cfi_def_cfa_offset 8
	stw r4, sp[1]
.Ltmp137:
	.cfi_offset 4, -4
	stw r5, sp[0]
.Ltmp138:
	.cfi_offset 5, -8
.LBB10_1:
	ldw r11, r0[0]
	bf r11, .LBB10_1
.Ltmp139:
	ldw r11, r0[2]
	bf r11, .LBB10_4
.Ltmp140:
	ldc r11, 0
	stw r11, r0[0]
	mkmsk r4, 2
	.loc	1 174 0 prologue_end
.Ltmp141:
	lsu r5, r1, r4
.Ltrap_info4:
	ecallf r5
	.loc	1 174 0
	lsu r4, r2, r4
.Ltrap_info5:
	ecallf r4
	ldc r4, 12
	.loc	1 174 0
	mul r1, r1, r4
.Ltmp142:
	.loc	1 174 0
	add r1, r0, r1
	.loc	1 174 0
	ldaw r1, r1[r2]
	ldc r2, 48
.Ltmp143:
	add r1, r1, r2
	ldw r2, cp[.LCPI10_0]
	.loc	1 174 0
	lmul r2, r11, r3, r2, r11, r11
	sub r3, r3, r2
.Ltmp144:
	shr r3, r3, 1
	add r2, r3, r2
	ldc r3, 9
	shr r2, r2, r3
	.loc	1 174 0
	stw r2, r1[0]
	mkmsk r1, 1
	stw r1, r0[0]
	ldw r5, sp[0]
	ldw r4, sp[1]
	ldaw sp, sp[2]
	retsp 0
	# RETURN_REG_HOLDER
.Ltmp145:
.LBB10_4:
	bu .LBB10_4
	.cc_bottom _i.startkit_led_if.startkit_gpio_driver_aux._c0.set.function
	.set	_i.startkit_led_if.startkit_gpio_driver_aux._c0.set.nstackwords,2
	.globl	_i.startkit_led_if.startkit_gpio_driver_aux._c0.set.nstackwords
	.set	_i.startkit_led_if.startkit_gpio_driver_aux._c0.set.maxcores,1
	.globl	_i.startkit_led_if.startkit_gpio_driver_aux._c0.set.maxcores
	.set	_i.startkit_led_if.startkit_gpio_driver_aux._c0.set.maxtimers,0
	.globl	_i.startkit_led_if.startkit_gpio_driver_aux._c0.set.maxtimers
	.set	_i.startkit_led_if.startkit_gpio_driver_aux._c0.set.maxchanends,0
	.globl	_i.startkit_led_if.startkit_gpio_driver_aux._c0.set.maxchanends
.Ltmp146:
	.size	_i.startkit_led_if.startkit_gpio_driver_aux._c0.set, .Ltmp146-_i.startkit_led_if.startkit_gpio_driver_aux._c0.set
.Lfunc_end10:
	.cfi_endproc

	.globl	_i.slider_if.startkit_gpio_driver._c3.get_coord
	.align	4
	.type	_i.slider_if.startkit_gpio_driver._c3.get_coord,@function
	.cc_top _i.slider_if.startkit_gpio_driver._c3.get_coord.function,_i.slider_if.startkit_gpio_driver._c3.get_coord
_i.slider_if.startkit_gpio_driver._c3.get_coord:
	.cfi_startproc
	entsp 1
.Ltmp147:
	.cfi_def_cfa_offset 4
.Ltmp148:
	.cfi_offset 15, 0
	bl _i.slider_if.startkit_gpio_driver_aux._c3.get_coord
	retsp 1
	# RETURN_REG_HOLDER
	.cc_bottom _i.slider_if.startkit_gpio_driver._c3.get_coord.function
	.set	_i.slider_if.startkit_gpio_driver._c3.get_coord.nstackwords,(_i.slider_if.startkit_gpio_driver_aux._c3.get_coord.nstackwords + 1)
	.globl	_i.slider_if.startkit_gpio_driver._c3.get_coord.nstackwords
	.set	_i.slider_if.startkit_gpio_driver._c3.get_coord.maxcores,_i.slider_if.startkit_gpio_driver_aux._c3.get_coord.maxcores $M 1
	.globl	_i.slider_if.startkit_gpio_driver._c3.get_coord.maxcores
	.set	_i.slider_if.startkit_gpio_driver._c3.get_coord.maxtimers,_i.slider_if.startkit_gpio_driver_aux._c3.get_coord.maxtimers $M 0
	.globl	_i.slider_if.startkit_gpio_driver._c3.get_coord.maxtimers
	.set	_i.slider_if.startkit_gpio_driver._c3.get_coord.maxchanends,_i.slider_if.startkit_gpio_driver_aux._c3.get_coord.maxchanends $M 0
	.globl	_i.slider_if.startkit_gpio_driver._c3.get_coord.maxchanends
.Ltmp149:
	.size	_i.slider_if.startkit_gpio_driver._c3.get_coord, .Ltmp149-_i.slider_if.startkit_gpio_driver._c3.get_coord
	.cfi_endproc

	.globl	_i.slider_if.startkit_gpio_driver._c3.get_slider_state
	.align	4
	.type	_i.slider_if.startkit_gpio_driver._c3.get_slider_state,@function
	.cc_top _i.slider_if.startkit_gpio_driver._c3.get_slider_state.function,_i.slider_if.startkit_gpio_driver._c3.get_slider_state
_i.slider_if.startkit_gpio_driver._c3.get_slider_state:
	.cfi_startproc
	entsp 1
.Ltmp150:
	.cfi_def_cfa_offset 4
.Ltmp151:
	.cfi_offset 15, 0
	bl _i.slider_if.startkit_gpio_driver_aux._c3.get_slider_state
	retsp 1
	# RETURN_REG_HOLDER
	.cc_bottom _i.slider_if.startkit_gpio_driver._c3.get_slider_state.function
	.set	_i.slider_if.startkit_gpio_driver._c3.get_slider_state.nstackwords,(_i.slider_if.startkit_gpio_driver_aux._c3.get_slider_state.nstackwords + 1)
	.globl	_i.slider_if.startkit_gpio_driver._c3.get_slider_state.nstackwords
	.set	_i.slider_if.startkit_gpio_driver._c3.get_slider_state.maxcores,_i.slider_if.startkit_gpio_driver_aux._c3.get_slider_state.maxcores $M 1
	.globl	_i.slider_if.startkit_gpio_driver._c3.get_slider_state.maxcores
	.set	_i.slider_if.startkit_gpio_driver._c3.get_slider_state.maxtimers,_i.slider_if.startkit_gpio_driver_aux._c3.get_slider_state.maxtimers $M 0
	.globl	_i.slider_if.startkit_gpio_driver._c3.get_slider_state.maxtimers
	.set	_i.slider_if.startkit_gpio_driver._c3.get_slider_state.maxchanends,_i.slider_if.startkit_gpio_driver_aux._c3.get_slider_state.maxchanends $M 0
	.globl	_i.slider_if.startkit_gpio_driver._c3.get_slider_state.maxchanends
.Ltmp152:
	.size	_i.slider_if.startkit_gpio_driver._c3.get_slider_state, .Ltmp152-_i.slider_if.startkit_gpio_driver._c3.get_slider_state
	.cfi_endproc

	.globl	_i.slider_if.startkit_gpio_driver._c2.get_coord
	.align	4
	.type	_i.slider_if.startkit_gpio_driver._c2.get_coord,@function
	.cc_top _i.slider_if.startkit_gpio_driver._c2.get_coord.function,_i.slider_if.startkit_gpio_driver._c2.get_coord
_i.slider_if.startkit_gpio_driver._c2.get_coord:
	.cfi_startproc
	entsp 1
.Ltmp153:
	.cfi_def_cfa_offset 4
.Ltmp154:
	.cfi_offset 15, 0
	bl _i.slider_if.startkit_gpio_driver_aux._c2.get_coord
	retsp 1
	# RETURN_REG_HOLDER
	.cc_bottom _i.slider_if.startkit_gpio_driver._c2.get_coord.function
	.set	_i.slider_if.startkit_gpio_driver._c2.get_coord.nstackwords,(_i.slider_if.startkit_gpio_driver_aux._c2.get_coord.nstackwords + 1)
	.globl	_i.slider_if.startkit_gpio_driver._c2.get_coord.nstackwords
	.set	_i.slider_if.startkit_gpio_driver._c2.get_coord.maxcores,_i.slider_if.startkit_gpio_driver_aux._c2.get_coord.maxcores $M 1
	.globl	_i.slider_if.startkit_gpio_driver._c2.get_coord.maxcores
	.set	_i.slider_if.startkit_gpio_driver._c2.get_coord.maxtimers,_i.slider_if.startkit_gpio_driver_aux._c2.get_coord.maxtimers $M 0
	.globl	_i.slider_if.startkit_gpio_driver._c2.get_coord.maxtimers
	.set	_i.slider_if.startkit_gpio_driver._c2.get_coord.maxchanends,_i.slider_if.startkit_gpio_driver_aux._c2.get_coord.maxchanends $M 0
	.globl	_i.slider_if.startkit_gpio_driver._c2.get_coord.maxchanends
.Ltmp155:
	.size	_i.slider_if.startkit_gpio_driver._c2.get_coord, .Ltmp155-_i.slider_if.startkit_gpio_driver._c2.get_coord
	.cfi_endproc

	.globl	_i.slider_if.startkit_gpio_driver._c2.get_slider_state
	.align	4
	.type	_i.slider_if.startkit_gpio_driver._c2.get_slider_state,@function
	.cc_top _i.slider_if.startkit_gpio_driver._c2.get_slider_state.function,_i.slider_if.startkit_gpio_driver._c2.get_slider_state
_i.slider_if.startkit_gpio_driver._c2.get_slider_state:
	.cfi_startproc
	entsp 1
.Ltmp156:
	.cfi_def_cfa_offset 4
.Ltmp157:
	.cfi_offset 15, 0
	bl _i.slider_if.startkit_gpio_driver_aux._c2.get_slider_state
	retsp 1
	# RETURN_REG_HOLDER
	.cc_bottom _i.slider_if.startkit_gpio_driver._c2.get_slider_state.function
	.set	_i.slider_if.startkit_gpio_driver._c2.get_slider_state.nstackwords,(_i.slider_if.startkit_gpio_driver_aux._c2.get_slider_state.nstackwords + 1)
	.globl	_i.slider_if.startkit_gpio_driver._c2.get_slider_state.nstackwords
	.set	_i.slider_if.startkit_gpio_driver._c2.get_slider_state.maxcores,_i.slider_if.startkit_gpio_driver_aux._c2.get_slider_state.maxcores $M 1
	.globl	_i.slider_if.startkit_gpio_driver._c2.get_slider_state.maxcores
	.set	_i.slider_if.startkit_gpio_driver._c2.get_slider_state.maxtimers,_i.slider_if.startkit_gpio_driver_aux._c2.get_slider_state.maxtimers $M 0
	.globl	_i.slider_if.startkit_gpio_driver._c2.get_slider_state.maxtimers
	.set	_i.slider_if.startkit_gpio_driver._c2.get_slider_state.maxchanends,_i.slider_if.startkit_gpio_driver_aux._c2.get_slider_state.maxchanends $M 0
	.globl	_i.slider_if.startkit_gpio_driver._c2.get_slider_state.maxchanends
.Ltmp158:
	.size	_i.slider_if.startkit_gpio_driver._c2.get_slider_state, .Ltmp158-_i.slider_if.startkit_gpio_driver._c2.get_slider_state
	.cfi_endproc

	.globl	_i.startkit_button_if.startkit_gpio_driver._c1.get_value
	.align	4
	.type	_i.startkit_button_if.startkit_gpio_driver._c1.get_value,@function
	.cc_top _i.startkit_button_if.startkit_gpio_driver._c1.get_value.function,_i.startkit_button_if.startkit_gpio_driver._c1.get_value
_i.startkit_button_if.startkit_gpio_driver._c1.get_value:
	.cfi_startproc
	entsp 1
.Ltmp159:
	.cfi_def_cfa_offset 4
.Ltmp160:
	.cfi_offset 15, 0
	bl _i.startkit_button_if.startkit_gpio_driver_aux._c1.get_value
	retsp 1
	# RETURN_REG_HOLDER
	.cc_bottom _i.startkit_button_if.startkit_gpio_driver._c1.get_value.function
	.set	_i.startkit_button_if.startkit_gpio_driver._c1.get_value.nstackwords,(_i.startkit_button_if.startkit_gpio_driver_aux._c1.get_value.nstackwords + 1)
	.globl	_i.startkit_button_if.startkit_gpio_driver._c1.get_value.nstackwords
	.set	_i.startkit_button_if.startkit_gpio_driver._c1.get_value.maxcores,_i.startkit_button_if.startkit_gpio_driver_aux._c1.get_value.maxcores $M 1
	.globl	_i.startkit_button_if.startkit_gpio_driver._c1.get_value.maxcores
	.set	_i.startkit_button_if.startkit_gpio_driver._c1.get_value.maxtimers,_i.startkit_button_if.startkit_gpio_driver_aux._c1.get_value.maxtimers $M 0
	.globl	_i.startkit_button_if.startkit_gpio_driver._c1.get_value.maxtimers
	.set	_i.startkit_button_if.startkit_gpio_driver._c1.get_value.maxchanends,_i.startkit_button_if.startkit_gpio_driver_aux._c1.get_value.maxchanends $M 0
	.globl	_i.startkit_button_if.startkit_gpio_driver._c1.get_value.maxchanends
.Ltmp161:
	.size	_i.startkit_button_if.startkit_gpio_driver._c1.get_value, .Ltmp161-_i.startkit_button_if.startkit_gpio_driver._c1.get_value
	.cfi_endproc

	.globl	_i.startkit_led_if.startkit_gpio_driver._c0.set_multiple
	.align	4
	.type	_i.startkit_led_if.startkit_gpio_driver._c0.set_multiple,@function
	.cc_top _i.startkit_led_if.startkit_gpio_driver._c0.set_multiple.function,_i.startkit_led_if.startkit_gpio_driver._c0.set_multiple
_i.startkit_led_if.startkit_gpio_driver._c0.set_multiple:
	.cfi_startproc
	entsp 1
.Ltmp162:
	.cfi_def_cfa_offset 4
.Ltmp163:
	.cfi_offset 15, 0
	bl _i.startkit_led_if.startkit_gpio_driver_aux._c0.set_multiple
	retsp 1
	# RETURN_REG_HOLDER
	.cc_bottom _i.startkit_led_if.startkit_gpio_driver._c0.set_multiple.function
	.set	_i.startkit_led_if.startkit_gpio_driver._c0.set_multiple.nstackwords,(_i.startkit_led_if.startkit_gpio_driver_aux._c0.set_multiple.nstackwords + 1)
	.globl	_i.startkit_led_if.startkit_gpio_driver._c0.set_multiple.nstackwords
	.set	_i.startkit_led_if.startkit_gpio_driver._c0.set_multiple.maxcores,_i.startkit_led_if.startkit_gpio_driver_aux._c0.set_multiple.maxcores $M 1
	.globl	_i.startkit_led_if.startkit_gpio_driver._c0.set_multiple.maxcores
	.set	_i.startkit_led_if.startkit_gpio_driver._c0.set_multiple.maxtimers,_i.startkit_led_if.startkit_gpio_driver_aux._c0.set_multiple.maxtimers $M 0
	.globl	_i.startkit_led_if.startkit_gpio_driver._c0.set_multiple.maxtimers
	.set	_i.startkit_led_if.startkit_gpio_driver._c0.set_multiple.maxchanends,_i.startkit_led_if.startkit_gpio_driver_aux._c0.set_multiple.maxchanends $M 0
	.globl	_i.startkit_led_if.startkit_gpio_driver._c0.set_multiple.maxchanends
.Ltmp164:
	.size	_i.startkit_led_if.startkit_gpio_driver._c0.set_multiple, .Ltmp164-_i.startkit_led_if.startkit_gpio_driver._c0.set_multiple
	.cfi_endproc

	.globl	_i.startkit_led_if.startkit_gpio_driver._c0.set
	.align	4
	.type	_i.startkit_led_if.startkit_gpio_driver._c0.set,@function
	.cc_top _i.startkit_led_if.startkit_gpio_driver._c0.set.function,_i.startkit_led_if.startkit_gpio_driver._c0.set
_i.startkit_led_if.startkit_gpio_driver._c0.set:
	.cfi_startproc
	entsp 1
.Ltmp165:
	.cfi_def_cfa_offset 4
.Ltmp166:
	.cfi_offset 15, 0
	bl _i.startkit_led_if.startkit_gpio_driver_aux._c0.set
	retsp 1
	# RETURN_REG_HOLDER
	.cc_bottom _i.startkit_led_if.startkit_gpio_driver._c0.set.function
	.set	_i.startkit_led_if.startkit_gpio_driver._c0.set.nstackwords,(_i.startkit_led_if.startkit_gpio_driver_aux._c0.set.nstackwords + 1)
	.globl	_i.startkit_led_if.startkit_gpio_driver._c0.set.nstackwords
	.set	_i.startkit_led_if.startkit_gpio_driver._c0.set.maxcores,_i.startkit_led_if.startkit_gpio_driver_aux._c0.set.maxcores $M 1
	.globl	_i.startkit_led_if.startkit_gpio_driver._c0.set.maxcores
	.set	_i.startkit_led_if.startkit_gpio_driver._c0.set.maxtimers,_i.startkit_led_if.startkit_gpio_driver_aux._c0.set.maxtimers $M 0
	.globl	_i.startkit_led_if.startkit_gpio_driver._c0.set.maxtimers
	.set	_i.startkit_led_if.startkit_gpio_driver._c0.set.maxchanends,_i.startkit_led_if.startkit_gpio_driver_aux._c0.set.maxchanends $M 0
	.globl	_i.startkit_led_if.startkit_gpio_driver._c0.set.maxchanends
.Ltmp167:
	.size	_i.startkit_led_if.startkit_gpio_driver._c0.set, .Ltmp167-_i.startkit_led_if.startkit_gpio_driver._c0.set
	.cfi_endproc

	.weak	_i.slider_if._chan.get_coord
	.align	4
	.type	_i.slider_if._chan.get_coord,@function
	.cc_top _i.slider_if._chan.get_coord.function,_i.slider_if._chan.get_coord
_i.slider_if._chan.get_coord:
	.cfi_startproc
	getr r1, 2
	setd res[r1], r0
	add r0, r1, 1
	out res[r1], r0
	outct res[r1], 2
	in r0, res[r1]
	in r0, res[r1]
	chkct res[r1], 1
	freer res[r1]
	retsp 0
	# RETURN_REG_HOLDER
	.cc_bottom _i.slider_if._chan.get_coord.function
	.set	_i.slider_if._chan.get_coord.nstackwords,0
	.globl	_i.slider_if._chan.get_coord.nstackwords
	.weak	_i.slider_if._chan.get_coord.nstackwords
	.set	_i.slider_if._chan.get_coord.maxcores,1
	.globl	_i.slider_if._chan.get_coord.maxcores
	.weak	_i.slider_if._chan.get_coord.maxcores
	.set	_i.slider_if._chan.get_coord.maxtimers,0
	.globl	_i.slider_if._chan.get_coord.maxtimers
	.weak	_i.slider_if._chan.get_coord.maxtimers
	.set	_i.slider_if._chan.get_coord.maxchanends,1
	.globl	_i.slider_if._chan.get_coord.maxchanends
	.weak	_i.slider_if._chan.get_coord.maxchanends
.Ltmp168:
	.size	_i.slider_if._chan.get_coord, .Ltmp168-_i.slider_if._chan.get_coord
	.cfi_endproc

	.weak	_i.slider_if._chan.get_slider_state
	.align	4
	.type	_i.slider_if._chan.get_slider_state,@function
	.cc_top _i.slider_if._chan.get_slider_state.function,_i.slider_if._chan.get_slider_state
_i.slider_if._chan.get_slider_state:
	.cfi_startproc
	getr r2, 2
	setd res[r2], r0
	out res[r2], r2
	outct res[r2], 2
	chkct res[r2], 1
	out res[r2], r1
	outct res[r2], 2
	in r0, res[r2]
	in r0, res[r2]
	chkct res[r2], 1
	freer res[r2]
	retsp 0
	# RETURN_REG_HOLDER
	.cc_bottom _i.slider_if._chan.get_slider_state.function
	.set	_i.slider_if._chan.get_slider_state.nstackwords,0
	.globl	_i.slider_if._chan.get_slider_state.nstackwords
	.weak	_i.slider_if._chan.get_slider_state.nstackwords
	.set	_i.slider_if._chan.get_slider_state.maxcores,1
	.globl	_i.slider_if._chan.get_slider_state.maxcores
	.weak	_i.slider_if._chan.get_slider_state.maxcores
	.set	_i.slider_if._chan.get_slider_state.maxtimers,0
	.globl	_i.slider_if._chan.get_slider_state.maxtimers
	.weak	_i.slider_if._chan.get_slider_state.maxtimers
	.set	_i.slider_if._chan.get_slider_state.maxchanends,1
	.globl	_i.slider_if._chan.get_slider_state.maxchanends
	.weak	_i.slider_if._chan.get_slider_state.maxchanends
.Ltmp169:
	.size	_i.slider_if._chan.get_slider_state, .Ltmp169-_i.slider_if._chan.get_slider_state
	.cfi_endproc

	.weak	_i.slider_if._chan_yield.get_coord
	.align	4
	.type	_i.slider_if._chan_yield.get_coord,@function
	.cc_top _i.slider_if._chan_yield.get_coord.function,_i.slider_if._chan_yield.get_coord
_i.slider_if._chan_yield.get_coord:
	.cfi_startproc
	entsp 2
.Ltmp170:
	.cfi_def_cfa_offset 8
.Ltmp171:
	.cfi_offset 15, 0
	stw r4, sp[1]
.Ltmp172:
	.cfi_offset 4, -4
	ldw r1, r0[0]
	getr r4, 2
	setd res[r4], r1
	add r1, r4, 1
	out res[r4], r1
	outct res[r4], 2
	ldw r2, r0[1]
	ldc r1, 0
	mov r0, r4
	bl __interface_client_call_y
	in r0, res[r4]
	chkct res[r4], 1
	freer res[r4]
	ldw r4, sp[1]
	retsp 2
	# RETURN_REG_HOLDER
	.cc_bottom _i.slider_if._chan_yield.get_coord.function
	.set	_i.slider_if._chan_yield.get_coord.nstackwords,((_i.slider_if._client_call_y.max.nstackwords $M ($D __interface_client_call_y.nstackwords ? __interface_client_call_y.nstackwords $: _i.slider_if._client_call_y.max.nstackwords)) + 2)
	.globl	_i.slider_if._chan_yield.get_coord.nstackwords
	.weak	_i.slider_if._chan_yield.get_coord.nstackwords
	.set	_i.slider_if._chan_yield.get_coord.maxcores,($D __interface_client_call_y.maxcores ? __interface_client_call_y.maxcores $: _i.slider_if._client_call_y.max.maxcores) $M 1
	.globl	_i.slider_if._chan_yield.get_coord.maxcores
	.weak	_i.slider_if._chan_yield.get_coord.maxcores
	.set	_i.slider_if._chan_yield.get_coord.maxtimers,($D __interface_client_call_y.maxtimers ? __interface_client_call_y.maxtimers $: _i.slider_if._client_call_y.max.maxtimers) $M 0
	.globl	_i.slider_if._chan_yield.get_coord.maxtimers
	.weak	_i.slider_if._chan_yield.get_coord.maxtimers
	.set	_i.slider_if._chan_yield.get_coord.maxchanends,(1 + ($D __interface_client_call_y.maxchanends ? __interface_client_call_y.maxchanends $: _i.slider_if._client_call_y.max.maxchanends)) $M 1
	.globl	_i.slider_if._chan_yield.get_coord.maxchanends
	.weak	_i.slider_if._chan_yield.get_coord.maxchanends
.Ltmp173:
	.size	_i.slider_if._chan_yield.get_coord, .Ltmp173-_i.slider_if._chan_yield.get_coord
	.cfi_endproc

	.weak	_i.slider_if._chan_yield.get_slider_state
	.align	4
	.type	_i.slider_if._chan_yield.get_slider_state,@function
	.cc_top _i.slider_if._chan_yield.get_slider_state.function,_i.slider_if._chan_yield.get_slider_state
_i.slider_if._chan_yield.get_slider_state:
	.cfi_startproc
	entsp 2
.Ltmp174:
	.cfi_def_cfa_offset 8
.Ltmp175:
	.cfi_offset 15, 0
	stw r4, sp[1]
.Ltmp176:
	.cfi_offset 4, -4
	ldw r2, r0[0]
	getr r4, 2
	setd res[r4], r2
	out res[r4], r4
	outct res[r4], 2
	chkct res[r4], 1
	out res[r4], r1
	outct res[r4], 2
	ldw r2, r0[1]
	ldc r1, 0
	mov r0, r4
	bl __interface_client_call_y
	in r0, res[r4]
	chkct res[r4], 1
	freer res[r4]
	ldw r4, sp[1]
	retsp 2
	# RETURN_REG_HOLDER
	.cc_bottom _i.slider_if._chan_yield.get_slider_state.function
	.set	_i.slider_if._chan_yield.get_slider_state.nstackwords,((_i.slider_if._client_call_y.max.nstackwords $M ($D __interface_client_call_y.nstackwords ? __interface_client_call_y.nstackwords $: _i.slider_if._client_call_y.max.nstackwords)) + 2)
	.globl	_i.slider_if._chan_yield.get_slider_state.nstackwords
	.weak	_i.slider_if._chan_yield.get_slider_state.nstackwords
	.set	_i.slider_if._chan_yield.get_slider_state.maxcores,($D __interface_client_call_y.maxcores ? __interface_client_call_y.maxcores $: _i.slider_if._client_call_y.max.maxcores) $M 1
	.globl	_i.slider_if._chan_yield.get_slider_state.maxcores
	.weak	_i.slider_if._chan_yield.get_slider_state.maxcores
	.set	_i.slider_if._chan_yield.get_slider_state.maxtimers,($D __interface_client_call_y.maxtimers ? __interface_client_call_y.maxtimers $: _i.slider_if._client_call_y.max.maxtimers) $M 0
	.globl	_i.slider_if._chan_yield.get_slider_state.maxtimers
	.weak	_i.slider_if._chan_yield.get_slider_state.maxtimers
	.set	_i.slider_if._chan_yield.get_slider_state.maxchanends,(1 + ($D __interface_client_call_y.maxchanends ? __interface_client_call_y.maxchanends $: _i.slider_if._client_call_y.max.maxchanends)) $M 1
	.globl	_i.slider_if._chan_yield.get_slider_state.maxchanends
	.weak	_i.slider_if._chan_yield.get_slider_state.maxchanends
.Ltmp177:
	.size	_i.slider_if._chan_yield.get_slider_state, .Ltmp177-_i.slider_if._chan_yield.get_slider_state
	.cfi_endproc

	.weak	_i.startkit_led_if._chan.set_multiple
	.align	4
	.type	_i.startkit_led_if._chan.set_multiple,@function
	.cc_top _i.startkit_led_if._chan.set_multiple.function,_i.startkit_led_if._chan.set_multiple
_i.startkit_led_if._chan.set_multiple:
	.cfi_startproc
	getr r3, 2
	setd res[r3], r0
	add r0, r3, 1
	out res[r3], r0
	outct res[r3], 2
	chkct res[r3], 1
	out res[r3], r1
	out res[r3], r2
	outct res[r3], 2
	in r0, res[r3]
	chkct res[r3], 1
	freer res[r3]
	retsp 0
	# RETURN_REG_HOLDER
	.cc_bottom _i.startkit_led_if._chan.set_multiple.function
	.set	_i.startkit_led_if._chan.set_multiple.nstackwords,0
	.globl	_i.startkit_led_if._chan.set_multiple.nstackwords
	.weak	_i.startkit_led_if._chan.set_multiple.nstackwords
	.set	_i.startkit_led_if._chan.set_multiple.maxcores,1
	.globl	_i.startkit_led_if._chan.set_multiple.maxcores
	.weak	_i.startkit_led_if._chan.set_multiple.maxcores
	.set	_i.startkit_led_if._chan.set_multiple.maxtimers,0
	.globl	_i.startkit_led_if._chan.set_multiple.maxtimers
	.weak	_i.startkit_led_if._chan.set_multiple.maxtimers
	.set	_i.startkit_led_if._chan.set_multiple.maxchanends,1
	.globl	_i.startkit_led_if._chan.set_multiple.maxchanends
	.weak	_i.startkit_led_if._chan.set_multiple.maxchanends
.Ltmp178:
	.size	_i.startkit_led_if._chan.set_multiple, .Ltmp178-_i.startkit_led_if._chan.set_multiple
	.cfi_endproc

	.weak	_i.startkit_led_if._chan.set
	.align	4
	.type	_i.startkit_led_if._chan.set,@function
	.cc_top _i.startkit_led_if._chan.set.function,_i.startkit_led_if._chan.set
_i.startkit_led_if._chan.set:
	.cfi_startproc
	getr r11, 2
	setd res[r11], r0
	out res[r11], r11
	outct res[r11], 2
	chkct res[r11], 1
	out res[r11], r1
	out res[r11], r2
	out res[r11], r3
	outct res[r11], 2
	in r0, res[r11]
	chkct res[r11], 1
	freer res[r11]
	retsp 0
	# RETURN_REG_HOLDER
	.cc_bottom _i.startkit_led_if._chan.set.function
	.set	_i.startkit_led_if._chan.set.nstackwords,0
	.globl	_i.startkit_led_if._chan.set.nstackwords
	.weak	_i.startkit_led_if._chan.set.nstackwords
	.set	_i.startkit_led_if._chan.set.maxcores,1
	.globl	_i.startkit_led_if._chan.set.maxcores
	.weak	_i.startkit_led_if._chan.set.maxcores
	.set	_i.startkit_led_if._chan.set.maxtimers,0
	.globl	_i.startkit_led_if._chan.set.maxtimers
	.weak	_i.startkit_led_if._chan.set.maxtimers
	.set	_i.startkit_led_if._chan.set.maxchanends,1
	.globl	_i.startkit_led_if._chan.set.maxchanends
	.weak	_i.startkit_led_if._chan.set.maxchanends
.Ltmp179:
	.size	_i.startkit_led_if._chan.set, .Ltmp179-_i.startkit_led_if._chan.set
	.cfi_endproc

	.weak	_i.startkit_led_if._chan_yield.set_multiple
	.align	4
	.type	_i.startkit_led_if._chan_yield.set_multiple,@function
	.cc_top _i.startkit_led_if._chan_yield.set_multiple.function,_i.startkit_led_if._chan_yield.set_multiple
_i.startkit_led_if._chan_yield.set_multiple:
	.cfi_startproc
	entsp 2
.Ltmp180:
	.cfi_def_cfa_offset 8
.Ltmp181:
	.cfi_offset 15, 0
	stw r4, sp[1]
.Ltmp182:
	.cfi_offset 4, -4
	ldw r3, r0[0]
	getr r4, 2
	setd res[r4], r3
	add r3, r4, 1
	out res[r4], r3
	outct res[r4], 2
	chkct res[r4], 1
	out res[r4], r1
	out res[r4], r2
	outct res[r4], 2
	ldw r2, r0[1]
	ldc r1, 0
	mov r0, r4
	bl __interface_client_call_y
	chkct res[r4], 1
	freer res[r4]
	ldw r4, sp[1]
	retsp 2
	# RETURN_REG_HOLDER
	.cc_bottom _i.startkit_led_if._chan_yield.set_multiple.function
	.set	_i.startkit_led_if._chan_yield.set_multiple.nstackwords,((_i.startkit_led_if._client_call_y.max.nstackwords $M ($D __interface_client_call_y.nstackwords ? __interface_client_call_y.nstackwords $: _i.startkit_led_if._client_call_y.max.nstackwords)) + 2)
	.globl	_i.startkit_led_if._chan_yield.set_multiple.nstackwords
	.weak	_i.startkit_led_if._chan_yield.set_multiple.nstackwords
	.set	_i.startkit_led_if._chan_yield.set_multiple.maxcores,($D __interface_client_call_y.maxcores ? __interface_client_call_y.maxcores $: _i.startkit_led_if._client_call_y.max.maxcores) $M 1
	.globl	_i.startkit_led_if._chan_yield.set_multiple.maxcores
	.weak	_i.startkit_led_if._chan_yield.set_multiple.maxcores
	.set	_i.startkit_led_if._chan_yield.set_multiple.maxtimers,($D __interface_client_call_y.maxtimers ? __interface_client_call_y.maxtimers $: _i.startkit_led_if._client_call_y.max.maxtimers) $M 0
	.globl	_i.startkit_led_if._chan_yield.set_multiple.maxtimers
	.weak	_i.startkit_led_if._chan_yield.set_multiple.maxtimers
	.set	_i.startkit_led_if._chan_yield.set_multiple.maxchanends,(1 + ($D __interface_client_call_y.maxchanends ? __interface_client_call_y.maxchanends $: _i.startkit_led_if._client_call_y.max.maxchanends)) $M 1
	.globl	_i.startkit_led_if._chan_yield.set_multiple.maxchanends
	.weak	_i.startkit_led_if._chan_yield.set_multiple.maxchanends
.Ltmp183:
	.size	_i.startkit_led_if._chan_yield.set_multiple, .Ltmp183-_i.startkit_led_if._chan_yield.set_multiple
	.cfi_endproc

	.weak	_i.startkit_led_if._chan_yield.set
	.align	4
	.type	_i.startkit_led_if._chan_yield.set,@function
	.cc_top _i.startkit_led_if._chan_yield.set.function,_i.startkit_led_if._chan_yield.set
_i.startkit_led_if._chan_yield.set:
	.cfi_startproc
	entsp 2
.Ltmp184:
	.cfi_def_cfa_offset 8
.Ltmp185:
	.cfi_offset 15, 0
	stw r4, sp[1]
.Ltmp186:
	.cfi_offset 4, -4
	ldw r11, r0[0]
	getr r4, 2
	setd res[r4], r11
	out res[r4], r4
	outct res[r4], 2
	chkct res[r4], 1
	out res[r4], r1
	out res[r4], r2
	out res[r4], r3
	outct res[r4], 2
	ldw r2, r0[1]
	ldc r1, 0
	mov r0, r4
	bl __interface_client_call_y
	chkct res[r4], 1
	freer res[r4]
	ldw r4, sp[1]
	retsp 2
	# RETURN_REG_HOLDER
	.cc_bottom _i.startkit_led_if._chan_yield.set.function
	.set	_i.startkit_led_if._chan_yield.set.nstackwords,((_i.startkit_led_if._client_call_y.max.nstackwords $M ($D __interface_client_call_y.nstackwords ? __interface_client_call_y.nstackwords $: _i.startkit_led_if._client_call_y.max.nstackwords)) + 2)
	.globl	_i.startkit_led_if._chan_yield.set.nstackwords
	.weak	_i.startkit_led_if._chan_yield.set.nstackwords
	.set	_i.startkit_led_if._chan_yield.set.maxcores,($D __interface_client_call_y.maxcores ? __interface_client_call_y.maxcores $: _i.startkit_led_if._client_call_y.max.maxcores) $M 1
	.globl	_i.startkit_led_if._chan_yield.set.maxcores
	.weak	_i.startkit_led_if._chan_yield.set.maxcores
	.set	_i.startkit_led_if._chan_yield.set.maxtimers,($D __interface_client_call_y.maxtimers ? __interface_client_call_y.maxtimers $: _i.startkit_led_if._client_call_y.max.maxtimers) $M 0
	.globl	_i.startkit_led_if._chan_yield.set.maxtimers
	.weak	_i.startkit_led_if._chan_yield.set.maxtimers
	.set	_i.startkit_led_if._chan_yield.set.maxchanends,(1 + ($D __interface_client_call_y.maxchanends ? __interface_client_call_y.maxchanends $: _i.startkit_led_if._client_call_y.max.maxchanends)) $M 1
	.globl	_i.startkit_led_if._chan_yield.set.maxchanends
	.weak	_i.startkit_led_if._chan_yield.set.maxchanends
.Ltmp187:
	.size	_i.startkit_led_if._chan_yield.set, .Ltmp187-_i.startkit_led_if._chan_yield.set
	.cfi_endproc

	.weak	_i.startkit_button_if._chan.get_value
	.align	4
	.type	_i.startkit_button_if._chan.get_value,@function
	.cc_top _i.startkit_button_if._chan.get_value.function,_i.startkit_button_if._chan.get_value
_i.startkit_button_if._chan.get_value:
	.cfi_startproc
	getr r2, 2
	setd res[r2], r0
	out res[r2], r2
	outct res[r2], 2
	chkct res[r2], 1
	out res[r2], r1
	outct res[r2], 2
	in r0, res[r2]
	in r0, res[r2]
	chkct res[r2], 1
	freer res[r2]
	retsp 0
	# RETURN_REG_HOLDER
	.cc_bottom _i.startkit_button_if._chan.get_value.function
	.set	_i.startkit_button_if._chan.get_value.nstackwords,0
	.globl	_i.startkit_button_if._chan.get_value.nstackwords
	.weak	_i.startkit_button_if._chan.get_value.nstackwords
	.set	_i.startkit_button_if._chan.get_value.maxcores,1
	.globl	_i.startkit_button_if._chan.get_value.maxcores
	.weak	_i.startkit_button_if._chan.get_value.maxcores
	.set	_i.startkit_button_if._chan.get_value.maxtimers,0
	.globl	_i.startkit_button_if._chan.get_value.maxtimers
	.weak	_i.startkit_button_if._chan.get_value.maxtimers
	.set	_i.startkit_button_if._chan.get_value.maxchanends,1
	.globl	_i.startkit_button_if._chan.get_value.maxchanends
	.weak	_i.startkit_button_if._chan.get_value.maxchanends
.Ltmp188:
	.size	_i.startkit_button_if._chan.get_value, .Ltmp188-_i.startkit_button_if._chan.get_value
	.cfi_endproc

	.weak	_i.startkit_button_if._chan_yield.get_value
	.align	4
	.type	_i.startkit_button_if._chan_yield.get_value,@function
	.cc_top _i.startkit_button_if._chan_yield.get_value.function,_i.startkit_button_if._chan_yield.get_value
_i.startkit_button_if._chan_yield.get_value:
	.cfi_startproc
	entsp 2
.Ltmp189:
	.cfi_def_cfa_offset 8
.Ltmp190:
	.cfi_offset 15, 0
	stw r4, sp[1]
.Ltmp191:
	.cfi_offset 4, -4
	ldw r2, r0[0]
	getr r4, 2
	setd res[r4], r2
	out res[r4], r4
	outct res[r4], 2
	chkct res[r4], 1
	out res[r4], r1
	outct res[r4], 2
	ldw r2, r0[1]
	ldc r1, 0
	mov r0, r4
	bl __interface_client_call_y
	in r0, res[r4]
	chkct res[r4], 1
	freer res[r4]
	ldw r4, sp[1]
	retsp 2
	# RETURN_REG_HOLDER
	.cc_bottom _i.startkit_button_if._chan_yield.get_value.function
	.set	_i.startkit_button_if._chan_yield.get_value.nstackwords,((_i.startkit_button_if._client_call_y.max.nstackwords $M ($D __interface_client_call_y.nstackwords ? __interface_client_call_y.nstackwords $: _i.startkit_button_if._client_call_y.max.nstackwords)) + 2)
	.globl	_i.startkit_button_if._chan_yield.get_value.nstackwords
	.weak	_i.startkit_button_if._chan_yield.get_value.nstackwords
	.set	_i.startkit_button_if._chan_yield.get_value.maxcores,($D __interface_client_call_y.maxcores ? __interface_client_call_y.maxcores $: _i.startkit_button_if._client_call_y.max.maxcores) $M 1
	.globl	_i.startkit_button_if._chan_yield.get_value.maxcores
	.weak	_i.startkit_button_if._chan_yield.get_value.maxcores
	.set	_i.startkit_button_if._chan_yield.get_value.maxtimers,($D __interface_client_call_y.maxtimers ? __interface_client_call_y.maxtimers $: _i.startkit_button_if._client_call_y.max.maxtimers) $M 0
	.globl	_i.startkit_button_if._chan_yield.get_value.maxtimers
	.weak	_i.startkit_button_if._chan_yield.get_value.maxtimers
	.set	_i.startkit_button_if._chan_yield.get_value.maxchanends,(1 + ($D __interface_client_call_y.maxchanends ? __interface_client_call_y.maxchanends $: _i.startkit_button_if._client_call_y.max.maxchanends)) $M 1
	.globl	_i.startkit_button_if._chan_yield.get_value.maxchanends
	.weak	_i.startkit_button_if._chan_yield.get_value.maxchanends
.Ltmp192:
	.size	_i.startkit_button_if._chan_yield.get_value, .Ltmp192-_i.startkit_button_if._chan_yield.get_value
	.cfi_endproc

	.weak	_i.absolute_slider_if._chan.get_coord
	.align	4
	.type	_i.absolute_slider_if._chan.get_coord,@function
	.cc_top _i.absolute_slider_if._chan.get_coord.function,_i.absolute_slider_if._chan.get_coord
_i.absolute_slider_if._chan.get_coord:
	.cfi_startproc
	getr r1, 2
	setd res[r1], r0
	out res[r1], r1
	outct res[r1], 2
	in r0, res[r1]
	in r0, res[r1]
	chkct res[r1], 1
	freer res[r1]
	retsp 0
	# RETURN_REG_HOLDER
	.cc_bottom _i.absolute_slider_if._chan.get_coord.function
	.set	_i.absolute_slider_if._chan.get_coord.nstackwords,0
	.globl	_i.absolute_slider_if._chan.get_coord.nstackwords
	.weak	_i.absolute_slider_if._chan.get_coord.nstackwords
	.set	_i.absolute_slider_if._chan.get_coord.maxcores,1
	.globl	_i.absolute_slider_if._chan.get_coord.maxcores
	.weak	_i.absolute_slider_if._chan.get_coord.maxcores
	.set	_i.absolute_slider_if._chan.get_coord.maxtimers,0
	.globl	_i.absolute_slider_if._chan.get_coord.maxtimers
	.weak	_i.absolute_slider_if._chan.get_coord.maxtimers
	.set	_i.absolute_slider_if._chan.get_coord.maxchanends,1
	.globl	_i.absolute_slider_if._chan.get_coord.maxchanends
	.weak	_i.absolute_slider_if._chan.get_coord.maxchanends
.Ltmp193:
	.size	_i.absolute_slider_if._chan.get_coord, .Ltmp193-_i.absolute_slider_if._chan.get_coord
	.cfi_endproc

	.weak	_i.absolute_slider_if._chan_yield.get_coord
	.align	4
	.type	_i.absolute_slider_if._chan_yield.get_coord,@function
	.cc_top _i.absolute_slider_if._chan_yield.get_coord.function,_i.absolute_slider_if._chan_yield.get_coord
_i.absolute_slider_if._chan_yield.get_coord:
	.cfi_startproc
	entsp 2
.Ltmp194:
	.cfi_def_cfa_offset 8
.Ltmp195:
	.cfi_offset 15, 0
	stw r4, sp[1]
.Ltmp196:
	.cfi_offset 4, -4
	ldw r1, r0[0]
	getr r4, 2
	setd res[r4], r1
	out res[r4], r4
	outct res[r4], 2
	ldw r2, r0[1]
	ldc r1, 0
	mov r0, r4
	bl __interface_client_call_y
	in r0, res[r4]
	chkct res[r4], 1
	freer res[r4]
	ldw r4, sp[1]
	retsp 2
	# RETURN_REG_HOLDER
	.cc_bottom _i.absolute_slider_if._chan_yield.get_coord.function
	.set	_i.absolute_slider_if._chan_yield.get_coord.nstackwords,((_i.absolute_slider_if._client_call_y.max.nstackwords $M ($D __interface_client_call_y.nstackwords ? __interface_client_call_y.nstackwords $: _i.absolute_slider_if._client_call_y.max.nstackwords)) + 2)
	.globl	_i.absolute_slider_if._chan_yield.get_coord.nstackwords
	.weak	_i.absolute_slider_if._chan_yield.get_coord.nstackwords
	.set	_i.absolute_slider_if._chan_yield.get_coord.maxcores,($D __interface_client_call_y.maxcores ? __interface_client_call_y.maxcores $: _i.absolute_slider_if._client_call_y.max.maxcores) $M 1
	.globl	_i.absolute_slider_if._chan_yield.get_coord.maxcores
	.weak	_i.absolute_slider_if._chan_yield.get_coord.maxcores
	.set	_i.absolute_slider_if._chan_yield.get_coord.maxtimers,($D __interface_client_call_y.maxtimers ? __interface_client_call_y.maxtimers $: _i.absolute_slider_if._client_call_y.max.maxtimers) $M 0
	.globl	_i.absolute_slider_if._chan_yield.get_coord.maxtimers
	.weak	_i.absolute_slider_if._chan_yield.get_coord.maxtimers
	.set	_i.absolute_slider_if._chan_yield.get_coord.maxchanends,(1 + ($D __interface_client_call_y.maxchanends ? __interface_client_call_y.maxchanends $: _i.absolute_slider_if._client_call_y.max.maxchanends)) $M 1
	.globl	_i.absolute_slider_if._chan_yield.get_coord.maxchanends
	.weak	_i.absolute_slider_if._chan_yield.get_coord.maxchanends
.Ltmp197:
	.size	_i.absolute_slider_if._chan_yield.get_coord, .Ltmp197-_i.absolute_slider_if._chan_yield.get_coord
	.cfi_endproc

	.weak	_i.slider_query_if._chan.get_coord
	.align	4
	.type	_i.slider_query_if._chan.get_coord,@function
	.cc_top _i.slider_query_if._chan.get_coord.function,_i.slider_query_if._chan.get_coord
_i.slider_query_if._chan.get_coord:
	.cfi_startproc
	getr r1, 2
	setd res[r1], r0
	add r0, r1, 1
	out res[r1], r0
	outct res[r1], 2
	in r0, res[r1]
	in r0, res[r1]
	chkct res[r1], 1
	freer res[r1]
	retsp 0
	# RETURN_REG_HOLDER
	.cc_bottom _i.slider_query_if._chan.get_coord.function
	.set	_i.slider_query_if._chan.get_coord.nstackwords,0
	.globl	_i.slider_query_if._chan.get_coord.nstackwords
	.weak	_i.slider_query_if._chan.get_coord.nstackwords
	.set	_i.slider_query_if._chan.get_coord.maxcores,1
	.globl	_i.slider_query_if._chan.get_coord.maxcores
	.weak	_i.slider_query_if._chan.get_coord.maxcores
	.set	_i.slider_query_if._chan.get_coord.maxtimers,0
	.globl	_i.slider_query_if._chan.get_coord.maxtimers
	.weak	_i.slider_query_if._chan.get_coord.maxtimers
	.set	_i.slider_query_if._chan.get_coord.maxchanends,1
	.globl	_i.slider_query_if._chan.get_coord.maxchanends
	.weak	_i.slider_query_if._chan.get_coord.maxchanends
.Ltmp198:
	.size	_i.slider_query_if._chan.get_coord, .Ltmp198-_i.slider_query_if._chan.get_coord
	.cfi_endproc

	.weak	_i.slider_query_if._chan.filter
	.align	4
	.type	_i.slider_query_if._chan.filter,@function
	.cc_top _i.slider_query_if._chan.filter.function,_i.slider_query_if._chan.filter
_i.slider_query_if._chan.filter:
	.cfi_startproc
	getr r1, 2
	setd res[r1], r0
	out res[r1], r1
	outct res[r1], 2
	in r0, res[r1]
	in r0, res[r1]
	chkct res[r1], 1
	freer res[r1]
	retsp 0
	# RETURN_REG_HOLDER
	.cc_bottom _i.slider_query_if._chan.filter.function
	.set	_i.slider_query_if._chan.filter.nstackwords,0
	.globl	_i.slider_query_if._chan.filter.nstackwords
	.weak	_i.slider_query_if._chan.filter.nstackwords
	.set	_i.slider_query_if._chan.filter.maxcores,1
	.globl	_i.slider_query_if._chan.filter.maxcores
	.weak	_i.slider_query_if._chan.filter.maxcores
	.set	_i.slider_query_if._chan.filter.maxtimers,0
	.globl	_i.slider_query_if._chan.filter.maxtimers
	.weak	_i.slider_query_if._chan.filter.maxtimers
	.set	_i.slider_query_if._chan.filter.maxchanends,1
	.globl	_i.slider_query_if._chan.filter.maxchanends
	.weak	_i.slider_query_if._chan.filter.maxchanends
.Ltmp199:
	.size	_i.slider_query_if._chan.filter, .Ltmp199-_i.slider_query_if._chan.filter
	.cfi_endproc

	.weak	_i.slider_query_if._chan_yield.get_coord
	.align	4
	.type	_i.slider_query_if._chan_yield.get_coord,@function
	.cc_top _i.slider_query_if._chan_yield.get_coord.function,_i.slider_query_if._chan_yield.get_coord
_i.slider_query_if._chan_yield.get_coord:
	.cfi_startproc
	entsp 2
.Ltmp200:
	.cfi_def_cfa_offset 8
.Ltmp201:
	.cfi_offset 15, 0
	stw r4, sp[1]
.Ltmp202:
	.cfi_offset 4, -4
	ldw r1, r0[0]
	getr r4, 2
	setd res[r4], r1
	add r1, r4, 1
	out res[r4], r1
	outct res[r4], 2
	ldw r2, r0[1]
	ldc r1, 0
	mov r0, r4
	bl __interface_client_call_y
	in r0, res[r4]
	chkct res[r4], 1
	freer res[r4]
	ldw r4, sp[1]
	retsp 2
	# RETURN_REG_HOLDER
	.cc_bottom _i.slider_query_if._chan_yield.get_coord.function
	.set	_i.slider_query_if._chan_yield.get_coord.nstackwords,((_i.slider_query_if._client_call_y.max.nstackwords $M ($D __interface_client_call_y.nstackwords ? __interface_client_call_y.nstackwords $: _i.slider_query_if._client_call_y.max.nstackwords)) + 2)
	.globl	_i.slider_query_if._chan_yield.get_coord.nstackwords
	.weak	_i.slider_query_if._chan_yield.get_coord.nstackwords
	.set	_i.slider_query_if._chan_yield.get_coord.maxcores,($D __interface_client_call_y.maxcores ? __interface_client_call_y.maxcores $: _i.slider_query_if._client_call_y.max.maxcores) $M 1
	.globl	_i.slider_query_if._chan_yield.get_coord.maxcores
	.weak	_i.slider_query_if._chan_yield.get_coord.maxcores
	.set	_i.slider_query_if._chan_yield.get_coord.maxtimers,($D __interface_client_call_y.maxtimers ? __interface_client_call_y.maxtimers $: _i.slider_query_if._client_call_y.max.maxtimers) $M 0
	.globl	_i.slider_query_if._chan_yield.get_coord.maxtimers
	.weak	_i.slider_query_if._chan_yield.get_coord.maxtimers
	.set	_i.slider_query_if._chan_yield.get_coord.maxchanends,(1 + ($D __interface_client_call_y.maxchanends ? __interface_client_call_y.maxchanends $: _i.slider_query_if._client_call_y.max.maxchanends)) $M 1
	.globl	_i.slider_query_if._chan_yield.get_coord.maxchanends
	.weak	_i.slider_query_if._chan_yield.get_coord.maxchanends
.Ltmp203:
	.size	_i.slider_query_if._chan_yield.get_coord, .Ltmp203-_i.slider_query_if._chan_yield.get_coord
	.cfi_endproc

	.weak	_i.slider_query_if._chan_yield.filter
	.align	4
	.type	_i.slider_query_if._chan_yield.filter,@function
	.cc_top _i.slider_query_if._chan_yield.filter.function,_i.slider_query_if._chan_yield.filter
_i.slider_query_if._chan_yield.filter:
	.cfi_startproc
	entsp 2
.Ltmp204:
	.cfi_def_cfa_offset 8
.Ltmp205:
	.cfi_offset 15, 0
	stw r4, sp[1]
.Ltmp206:
	.cfi_offset 4, -4
	ldw r1, r0[0]
	getr r4, 2
	setd res[r4], r1
	out res[r4], r4
	outct res[r4], 2
	ldw r2, r0[1]
	ldc r1, 0
	mov r0, r4
	bl __interface_client_call_y
	in r0, res[r4]
	chkct res[r4], 1
	freer res[r4]
	ldw r4, sp[1]
	retsp 2
	# RETURN_REG_HOLDER
	.cc_bottom _i.slider_query_if._chan_yield.filter.function
	.set	_i.slider_query_if._chan_yield.filter.nstackwords,((_i.slider_query_if._client_call_y.max.nstackwords $M ($D __interface_client_call_y.nstackwords ? __interface_client_call_y.nstackwords $: _i.slider_query_if._client_call_y.max.nstackwords)) + 2)
	.globl	_i.slider_query_if._chan_yield.filter.nstackwords
	.weak	_i.slider_query_if._chan_yield.filter.nstackwords
	.set	_i.slider_query_if._chan_yield.filter.maxcores,($D __interface_client_call_y.maxcores ? __interface_client_call_y.maxcores $: _i.slider_query_if._client_call_y.max.maxcores) $M 1
	.globl	_i.slider_query_if._chan_yield.filter.maxcores
	.weak	_i.slider_query_if._chan_yield.filter.maxcores
	.set	_i.slider_query_if._chan_yield.filter.maxtimers,($D __interface_client_call_y.maxtimers ? __interface_client_call_y.maxtimers $: _i.slider_query_if._client_call_y.max.maxtimers) $M 0
	.globl	_i.slider_query_if._chan_yield.filter.maxtimers
	.weak	_i.slider_query_if._chan_yield.filter.maxtimers
	.set	_i.slider_query_if._chan_yield.filter.maxchanends,(1 + ($D __interface_client_call_y.maxchanends ? __interface_client_call_y.maxchanends $: _i.slider_query_if._client_call_y.max.maxchanends)) $M 1
	.globl	_i.slider_query_if._chan_yield.filter.maxchanends
	.weak	_i.slider_query_if._chan_yield.filter.maxchanends
.Ltmp207:
	.size	_i.slider_query_if._chan_yield.filter, .Ltmp207-_i.slider_query_if._chan_yield.filter
	.cfi_endproc

	.globl	startkit_led_driver
	.align	4
	.type	startkit_led_driver,@function
	.cc_top startkit_led_driver.function,startkit_led_driver
startkit_led_driver:
.Lfunc_begin34:
	.loc	1 28 0
	.cfi_startproc
.Lxtalabel24:
	entsp 9
.Ltmp208:
	.cfi_def_cfa_offset 36
.Ltmp209:
	.cfi_offset 15, 0
	stw r4, sp[8]
.Ltmp210:
	.cfi_offset 4, -4
	stw r5, sp[7]
.Ltmp211:
	.cfi_offset 5, -8
	stw r6, sp[6]
.Ltmp212:
	.cfi_offset 6, -12
	stw r7, sp[5]
.Ltmp213:
	.cfi_offset 7, -16
	stw r8, sp[4]
.Ltmp214:
	.cfi_offset 8, -20
	stw r9, sp[3]
.Ltmp215:
	.cfi_offset 9, -24
	stw r10, sp[2]
.Ltmp216:
	.cfi_offset 10, -28
	stw r2, sp[1]
.Ltmp217:
	mkmsk r10, 32
	.loc	1 31 14 prologue_end
.Ltmp218:
.Lxta.endpoint_labels4:
	out res[r2], r10
.Ltmp219:
	ldc r5, 0
	bu .LBB34_1
.Ltmp220:
.LBB34_16:
.Lxtalabel25:
	.loc	1 58 18
	ldw r3, sp[1]
.Lxta.endpoint_labels5:
	out res[r3], r10
	out res[r2], r5
	outct res[r2], 1
.Ltmp221:
.LBB34_1:
.Lxtalabel26:
	.loc	1 33 5
	clre
.Ltmp222:
	mov r3, r5
	bf r1, .LBB34_2
.Ltmp223:
.LBB34_3:
	.loc	1 34 0
	ldw r11, r0[r3]
	.loc	1 34 0
	ldw r4, r11[0]
	ldap r11, .Ltmp224
	.loc	1 34 0
	setv res[r4], r11
	.loc	1 34 0
	mov r11, r3
	setev res[r4], r11
	.loc	1 34 0
	eeu res[r4]
	.loc	1 34 0
	add r3, r3, 1
.Ltmp225:
	.loc	1 34 0
	eq r11, r1, r3
	bf r11, .LBB34_3
.Ltmp226:
.LBB34_2:

	.xtabranch .LBB34_4
	waiteu
.Ltmp227:
.Ltmp224:
.LBB34_4:
.Lxtalabel27:
	.loc	1 34 0
	get r11, ed
	.loc	1 34 0
	zext r11, 16
.Ltmp228:
	ldw r3, r0[r11]
	ldw r2, r3[0]
	in r11, res[r2]
.Ltmp229:
	ldc r3, 254
	add r4, r11, r3
	zext r4, 8
	sub r11, r11, r4
	setd res[r2], r11
	outct res[r2], 1
	in r7, res[r2]
.Ltmp230:
	in r8, res[r2]
.Ltmp231:
	bf r4, .LBB34_5
.Ltmp232:
	mkmsk r3, 5
	.loc	1 46 0
.Ltmp233:
	shr r8, r8, r3
.Ltmp234:
	ldaw r11, cp[map+24]
.Ltmp235:
	ldc r9, 2
.Ltmp236:
.LBB34_9:
.Lxtalabel28:
	.loc	1 52 0
	ldw r6, r11[2]
	.loc	1 52 0
	andnot r10, r6
.Ltmp237:
	.loc	1 53 0
	and r3, r8, r7
	.loc	1 53 0
	mov r4, r5
	bt r3, .LBB34_11
.Ltmp238:
.Lxtalabel29:
	mov r4, r6
.Ltmp239:
.LBB34_11:
.Lxtalabel30:
	.loc	1 53 0
	or r10, r10, r4
.Ltmp240:
	.loc	1 54 0
	shr r3, r7, 1
.Ltmp241:
	.loc	1 52 0
	ldw r6, r11[1]
	.loc	1 52 0
	andnot r10, r6
	.loc	1 53 0
	and r3, r8, r3
	.loc	1 53 0
	mov r4, r5
	bt r3, .LBB34_13
.Ltmp242:
.Lxtalabel31:
	mov r4, r6
.Ltmp243:
.LBB34_13:
.Lxtalabel32:
	.loc	1 53 0
	or r10, r10, r4
	.loc	1 54 0
	shr r3, r7, 2
	.loc	1 52 0
	ldw r6, r11[0]
	.loc	1 52 0
	andnot r10, r6
	.loc	1 53 0
	and r3, r8, r3
	.loc	1 53 0
	mov r4, r5
	bt r3, .LBB34_15
.Ltmp244:
.Lxtalabel33:
	mov r4, r6
.Ltmp245:
.LBB34_15:
.Lxtalabel34:
	.loc	1 53 0
	or r10, r10, r4
	.loc	1 54 0
	shr r7, r7, 3
.Ltmp246:
	.loc	1 49 0
	sub r9, r9, 1
.Ltmp247:
	.loc	1 49 0
	ldaw r11, r11[-3]
.Lxta.loop_labels3:
	# LOOPMARKER 0
	.loc	1 49 0
	ashr r3, r9, 32
	bf r3, .LBB34_9
	bu .LBB34_16
.Ltmp248:
.LBB34_5:
	in r9, res[r2]
.Ltmp249:
	mkmsk r3, 2
	.loc	1 39 0
	lsu r11, r7, r3
.Ltrap_info6:
	ecallf r11
	.loc	1 39 0
	lsu r3, r8, r3
.Ltrap_info7:
	ecallf r3
	ldc r3, 12
	.loc	1 39 0
	mul r3, r7, r3
	ldaw r11, cp[map]
	add r3, r11, r3
	.loc	1 39 0
	ldw r11, r3[r8]
	.loc	1 39 0
	andnot r10, r11
.Ltmp250:
	.loc	1 41 0
	ashr r3, r9, 32
	mov r4, r5
	bt r3, .LBB34_7
.Ltmp251:
	mov r4, r11
.Ltmp252:
.LBB34_7:
	.loc	1 41 0
	or r10, r10, r4
.Ltmp253:
	bu .LBB34_16
.Ltmp254:
	.cc_bottom startkit_led_driver.function
	.set	startkit_led_driver.nstackwords,9
	.globl	startkit_led_driver.nstackwords
	.set	startkit_led_driver.maxcores,1
	.globl	startkit_led_driver.maxcores
	.set	startkit_led_driver.maxtimers,0
	.globl	startkit_led_driver.maxtimers
	.set	startkit_led_driver.maxchanends,0
	.globl	startkit_led_driver.maxchanends
.Ltmp255:
	.size	startkit_led_driver, .Ltmp255-startkit_led_driver
.Lfunc_end34:
	.cfi_endproc

	.section	.cp.rodata.cst4,"aMc",@progbits,4
	.cc_top .LCPI35_0.data,.LCPI35_0
	.align	4
	.type	.LCPI35_0,@object
	.size	.LCPI35_0, 4
.LCPI35_0:
	.long	670763580
	.cc_bottom .LCPI35_0.data
	.cc_top .LCPI35_1.data,.LCPI35_1
	.align	4
	.type	.LCPI35_1,@object
	.size	.LCPI35_1, 4
.LCPI35_1:
	.long	3624163008
	.cc_bottom .LCPI35_1.data
	.cc_top .LCPI35_2.data,.LCPI35_2
	.align	4
	.type	.LCPI35_2,@object
	.size	.LCPI35_2, 4
.LCPI35_2:
	.long	171759621
	.cc_bottom .LCPI35_2.data
	.text
	.globl	startkit_led_driver.select.0.enable
	.align	4
	.type	startkit_led_driver.select.0.enable,@function
	.cc_top startkit_led_driver.select.0.enable.function,startkit_led_driver.select.0.enable
startkit_led_driver.select.0.enable:
.Lfunc_begin35:
	.file	2 "<synthesized>"
	.loc	2 0 0
	.cfi_startproc
	entsp 3
.Ltmp256:
	.cfi_def_cfa_offset 12
.Ltmp257:
	.cfi_offset 15, 0
	stw r4, sp[2]
.Ltmp258:
	.cfi_offset 4, -4
	stw r5, sp[1]
.Ltmp259:
	.cfi_offset 5, -8
	mov r4, r0
.Ltmp260:
	bl startkit_led_driver.init.1
	ldw r0, r4[0]
	bf r0, .LBB35_1
.Ltmp261:
	ldw r0, cp[.LCPI35_0]
	.loc	2 33 5 prologue_end
.Ltmp262:
	stw r0, r4[11]
	ldw r0, cp[.LCPI35_1]
	stw r0, r4[10]
	ldw r0, cp[.LCPI35_2]
	stw r0, r4[9]
	ldc r0, 52
	add r0, r4, r0
	ldap r11, startkit_led_driver.select.0.case.0
	stw r11, r0[0]
	ldc r0, 48
	add r0, r4, r0
	stw r4, r0[0]
.Ltmp263:
	.loc	1 34 0
	ldw r3, r4[5]
	mkmsk r0, 1
	bf r3, .LBB35_6
.Ltmp264:
	.loc	2 33 5
	ldaw r1, r4[9]
	.loc	1 34 0
.Ltmp265:
	ldw r4, r4[4]
.Ltmp266:
	ldc r2, 0
.LBB35_4:
	.loc	1 34 0
	ldw r11, r4[r2]
	.loc	1 34 0
	ldw r5, r11[0]
	bf r5, .LBB35_5
	.loc	1 34 0
	mov r11, r1
	setv res[r5], r11
	.loc	1 34 0
	mov r11, r2
	setev res[r5], r11
	.loc	1 34 0
	eeu res[r5]
.LBB35_5:
	.loc	1 34 0
	add r2, r2, 1
.Ltmp267:
	.loc	1 34 0
	lsu r11, r2, r3
	bt r11, .LBB35_4
	bu .LBB35_6
.Ltmp268:
.LBB35_1:
	ldc r0, 0
.LBB35_6:
	ldw r5, sp[1]
	ldw r4, sp[2]
	retsp 3
	# RETURN_REG_HOLDER
	.cc_bottom startkit_led_driver.select.0.enable.function
	.set	startkit_led_driver.select.0.enable.nstackwords,(startkit_led_driver.init.1.nstackwords + 3)
	.globl	startkit_led_driver.select.0.enable.nstackwords
	.set	startkit_led_driver.select.0.enable.maxcores,startkit_led_driver.init.1.maxcores $M 1
	.globl	startkit_led_driver.select.0.enable.maxcores
	.set	startkit_led_driver.select.0.enable.maxtimers,startkit_led_driver.init.1.maxtimers $M 0
	.globl	startkit_led_driver.select.0.enable.maxtimers
	.set	startkit_led_driver.select.0.enable.maxchanends,startkit_led_driver.init.1.maxchanends $M 0
	.globl	startkit_led_driver.select.0.enable.maxchanends
.Ltmp269:
	.size	startkit_led_driver.select.0.enable, .Ltmp269-startkit_led_driver.select.0.enable
.Lfunc_end35:
	.cfi_endproc

	.globl	startkit_led_driver.init.1
	.align	4
	.type	startkit_led_driver.init.1,@function
	.cc_top startkit_led_driver.init.1.function,startkit_led_driver.init.1
startkit_led_driver.init.1:
.Lfunc_begin36:
	.loc	2 0 0
	.cfi_startproc
	ldw r1, r0[1]
	bf r1, .LBB36_2
	ldc r1, 0
	stw r1, r0[1]
	mkmsk r1, 32
	.loc	1 30 0 prologue_end
.Ltmp270:
	stw r1, r0[8]
	.loc	1 31 14
	ldw r2, r0[7]
	.loc	1 31 14
.Lxta.endpoint_labels6:
	out res[r2], r1
	mkmsk r1, 1
	stw r1, r0[0]
.Ltmp271:
.LBB36_2:
	retsp 0
	# RETURN_REG_HOLDER
	.cc_bottom startkit_led_driver.init.1.function
	.set	startkit_led_driver.init.1.nstackwords,0
	.globl	startkit_led_driver.init.1.nstackwords
	.set	startkit_led_driver.init.1.maxcores,1
	.globl	startkit_led_driver.init.1.maxcores
	.set	startkit_led_driver.init.1.maxtimers,0
	.globl	startkit_led_driver.init.1.maxtimers
	.set	startkit_led_driver.init.1.maxchanends,0
	.globl	startkit_led_driver.init.1.maxchanends
.Ltmp272:
	.size	startkit_led_driver.init.1, .Ltmp272-startkit_led_driver.init.1
.Lfunc_end36:
	.cfi_endproc

	.globl	startkit_led_driver.init.0
	.align	4
	.type	startkit_led_driver.init.0,@function
	.cc_top startkit_led_driver.init.0.function,startkit_led_driver.init.0
startkit_led_driver.init.0:
	.cfi_startproc
.Lxtalabel35:
	entsp 1
.Ltmp273:
	.cfi_def_cfa_offset 4
.Ltmp274:
	.cfi_offset 15, 0
	stw r1, r0[4]
	stw r2, r0[5]
	stw r2, r0[6]
	stw r3, r0[7]
	ldc r3, 0
	stw r3, r0[0]
	ldap r11, startkit_led_driver.init.1
	stw r11, r0[1]
	sub r1, r1, 4
.LBB37_1:
	sub r3, r2, 1
	ldw r2, r1[r2]
	ldw r11, r2[0]
	bt r11, .LBB37_2
	ldw r2, r2[1]
	stw r0, r2[0]
.LBB37_2:
	mov r2, r3
	bt r3, .LBB37_1
	add r0, r0, 8
	bl __lock_fair_init
	retsp 1
	# RETURN_REG_HOLDER
	.cc_bottom startkit_led_driver.init.0.function
	.set	startkit_led_driver.init.0.nstackwords,(__lock_fair_init.nstackwords + 1)
	.globl	startkit_led_driver.init.0.nstackwords
	.set	startkit_led_driver.init.0.maxcores,__lock_fair_init.maxcores $M 1
	.globl	startkit_led_driver.init.0.maxcores
	.set	startkit_led_driver.init.0.maxtimers,__lock_fair_init.maxtimers $M 0
	.globl	startkit_led_driver.init.0.maxtimers
	.set	startkit_led_driver.init.0.maxchanends,__lock_fair_init.maxchanends $M 0
	.globl	startkit_led_driver.init.0.maxchanends
.Ltmp275:
	.size	startkit_led_driver.init.0, .Ltmp275-startkit_led_driver.init.0
	.cfi_endproc

	.section	.cp.rodata.cst4,"aMc",@progbits,4
	.cc_top .LCPI38_0.data,.LCPI38_0
	.align	4
	.type	.LCPI38_0,@object
	.size	.LCPI38_0, 4
.LCPI38_0:
	.long	670763580
	.cc_bottom .LCPI38_0.data
	.cc_top .LCPI38_1.data,.LCPI38_1
	.align	4
	.type	.LCPI38_1,@object
	.size	.LCPI38_1, 4
.LCPI38_1:
	.long	3624163008
	.cc_bottom .LCPI38_1.data
	.cc_top .LCPI38_2.data,.LCPI38_2
	.align	4
	.type	.LCPI38_2,@object
	.size	.LCPI38_2, 4
.LCPI38_2:
	.long	171759621
	.cc_bottom .LCPI38_2.data
	.text
	.globl	startkit_led_driver.select.yield.enable
	.align	4
	.type	startkit_led_driver.select.yield.enable,@function
	.cc_top startkit_led_driver.select.yield.enable.function,startkit_led_driver.select.yield.enable
startkit_led_driver.select.yield.enable:
.Lfunc_begin38:
	.loc	2 0 0
	.cfi_startproc
	entsp 3
.Ltmp276:
	.cfi_def_cfa_offset 12
.Ltmp277:
	.cfi_offset 15, 0
	stw r4, sp[2]
.Ltmp278:
	.cfi_offset 4, -4
	stw r5, sp[1]
.Ltmp279:
	.cfi_offset 5, -8
	mov r4, r0
.Ltmp280:
	bl startkit_led_driver.init.1
	ldw r0, r4[0]
	bf r0, .LBB38_1
.Ltmp281:
	ldw r0, cp[.LCPI38_0]
	.loc	2 33 5 prologue_end
.Ltmp282:
	stw r0, r4[11]
	ldw r0, cp[.LCPI38_1]
	stw r0, r4[10]
	ldw r0, cp[.LCPI38_2]
	stw r0, r4[9]
	ldc r0, 52
	add r0, r4, r0
	ldap r11, startkit_led_driver.select.yield.case.0
	stw r11, r0[0]
	ldc r0, 48
	add r0, r4, r0
	stw r4, r0[0]
.Ltmp283:
	.loc	1 34 0
	ldw r3, r4[5]
	mkmsk r0, 1
	bf r3, .LBB38_6
.Ltmp284:
	.loc	2 33 5
	ldaw r1, r4[9]
	.loc	1 34 0
.Ltmp285:
	ldw r4, r4[4]
.Ltmp286:
	ldc r2, 0
.LBB38_4:
	.loc	1 34 0
	ldw r11, r4[r2]
	.loc	1 34 0
	ldw r5, r11[0]
	bf r5, .LBB38_5
	.loc	1 34 0
	mov r11, r1
	setv res[r5], r11
	.loc	1 34 0
	mov r11, r2
	setev res[r5], r11
	.loc	1 34 0
	eeu res[r5]
.LBB38_5:
	.loc	1 34 0
	add r2, r2, 1
.Ltmp287:
	.loc	1 34 0
	lsu r11, r2, r3
	bt r11, .LBB38_4
	bu .LBB38_6
.Ltmp288:
.LBB38_1:
	ldc r0, 0
.LBB38_6:
	ldw r5, sp[1]
	ldw r4, sp[2]
	retsp 3
	# RETURN_REG_HOLDER
	.cc_bottom startkit_led_driver.select.yield.enable.function
	.set	startkit_led_driver.select.yield.enable.nstackwords,(startkit_led_driver.init.1.nstackwords + 3)
	.globl	startkit_led_driver.select.yield.enable.nstackwords
	.set	startkit_led_driver.select.yield.enable.maxcores,startkit_led_driver.init.1.maxcores $M 1
	.globl	startkit_led_driver.select.yield.enable.maxcores
	.set	startkit_led_driver.select.yield.enable.maxtimers,startkit_led_driver.init.1.maxtimers $M 0
	.globl	startkit_led_driver.select.yield.enable.maxtimers
	.set	startkit_led_driver.select.yield.enable.maxchanends,startkit_led_driver.init.1.maxchanends $M 0
	.globl	startkit_led_driver.select.yield.enable.maxchanends
.Ltmp289:
	.size	startkit_led_driver.select.yield.enable, .Ltmp289-startkit_led_driver.select.yield.enable
.Lfunc_end38:
	.cfi_endproc

	.section	.cp.rodata.cst4,"aMc",@progbits,4
	.cc_top .LCPI39_0.data,.LCPI39_0
	.align	4
	.type	.LCPI39_0,@object
	.size	.LCPI39_0, 4
.LCPI39_0:
	.long	670763580
	.cc_bottom .LCPI39_0.data
	.cc_top .LCPI39_1.data,.LCPI39_1
	.align	4
	.type	.LCPI39_1,@object
	.size	.LCPI39_1, 4
.LCPI39_1:
	.long	3624163008
	.cc_bottom .LCPI39_1.data
	.cc_top .LCPI39_2.data,.LCPI39_2
	.align	4
	.type	.LCPI39_2,@object
	.size	.LCPI39_2, 4
.LCPI39_2:
	.long	171759621
	.cc_bottom .LCPI39_2.data
	.text
	.globl	startkit_led_driver.select.enable
	.align	4
	.type	startkit_led_driver.select.enable,@function
	.cc_top startkit_led_driver.select.enable.function,startkit_led_driver.select.enable
startkit_led_driver.select.enable:
.Lfunc_begin39:
	.loc	2 0 0
	.cfi_startproc
	extsp 2
.Ltmp290:
	.cfi_def_cfa_offset 8
	stw r4, sp[1]
.Ltmp291:
	.cfi_offset 4, -4
	stw r5, sp[0]
.Ltmp292:
	.cfi_offset 5, -8
	mov r1, r0
.Ltmp293:
	ldw r0, r1[0]
	bf r0, .LBB39_1
.Ltmp294:
	ldw r0, cp[.LCPI39_0]
	.loc	2 33 5 prologue_end
.Ltmp295:
	stw r0, r1[11]
	ldw r0, cp[.LCPI39_1]
	stw r0, r1[10]
	ldw r0, cp[.LCPI39_2]
	stw r0, r1[9]
	ldc r0, 52
	add r0, r1, r0
	ldap r11, startkit_led_driver.select.case.0
	stw r11, r0[0]
	ldc r0, 48
	add r0, r1, r0
	stw r1, r0[0]
.Ltmp296:
	.loc	1 34 0
	ldw r3, r1[5]
	mkmsk r0, 1
	bf r3, .LBB39_6
.Ltmp297:
	.loc	2 33 5
	ldaw r2, r1[9]
	.loc	1 34 0
.Ltmp298:
	ldw r4, r1[4]
	ldc r1, 0
.Ltmp299:
.LBB39_4:
	.loc	1 34 0
	ldw r11, r4[r1]
	.loc	1 34 0
	ldw r5, r11[0]
	bf r5, .LBB39_5
	.loc	1 34 0
	mov r11, r2
	setv res[r5], r11
	.loc	1 34 0
	mov r11, r1
	setev res[r5], r11
	.loc	1 34 0
	eeu res[r5]
.LBB39_5:
	.loc	1 34 0
	add r1, r1, 1
.Ltmp300:
	.loc	1 34 0
	lsu r11, r1, r3
	bt r11, .LBB39_4
	bu .LBB39_6
.Ltmp301:
.LBB39_1:
	ldc r0, 0
.LBB39_6:
	ldw r5, sp[0]
	ldw r4, sp[1]
	ldaw sp, sp[2]
	retsp 0
	# RETURN_REG_HOLDER
	.cc_bottom startkit_led_driver.select.enable.function
	.set	startkit_led_driver.select.enable.nstackwords,2
	.globl	startkit_led_driver.select.enable.nstackwords
	.set	startkit_led_driver.select.enable.maxcores,1
	.globl	startkit_led_driver.select.enable.maxcores
	.set	startkit_led_driver.select.enable.maxtimers,0
	.globl	startkit_led_driver.select.enable.maxtimers
	.set	startkit_led_driver.select.enable.maxchanends,0
	.globl	startkit_led_driver.select.enable.maxchanends
.Ltmp302:
	.size	startkit_led_driver.select.enable, .Ltmp302-startkit_led_driver.select.enable
.Lfunc_end39:
	.cfi_endproc

	.globl	startkit_led_driver.fini
	.align	4
	.type	startkit_led_driver.fini,@function
	.cc_top startkit_led_driver.fini.function,startkit_led_driver.fini
startkit_led_driver.fini:
	.cfi_startproc
	ldw r0, r0[0]
	bf r0, .LBB40_2
.LBB40_1:
	bu .LBB40_1
.LBB40_2:
	retsp 0
	# RETURN_REG_HOLDER
	.cc_bottom startkit_led_driver.fini.function
	.set	startkit_led_driver.fini.nstackwords,0
	.globl	startkit_led_driver.fini.nstackwords
	.set	startkit_led_driver.fini.maxcores,1
	.globl	startkit_led_driver.fini.maxcores
	.set	startkit_led_driver.fini.maxtimers,0
	.globl	startkit_led_driver.fini.maxtimers
	.set	startkit_led_driver.fini.maxchanends,0
	.globl	startkit_led_driver.fini.maxchanends
.Ltmp303:
	.size	startkit_led_driver.fini, .Ltmp303-startkit_led_driver.fini
	.cfi_endproc

	.section	.cp.rodata.cst4,"aMc",@progbits,4
	.cc_top .LCPI41_0.data,.LCPI41_0
	.align	4
	.type	.LCPI41_0,@object
	.size	.LCPI41_0, 4
.LCPI41_0:
	.long	2147483647
	.cc_bottom .LCPI41_0.data
	.text
	.globl	startkit_gpio_driver
	.align	4
	.type	startkit_gpio_driver,@function
	.cc_top startkit_gpio_driver.function,startkit_gpio_driver
startkit_gpio_driver:
.Lfunc_begin41:
	.loc	1 215 0
	.cfi_startproc
.Lxtalabel36:
	ENTSP_lu6 67
.Ltmp304:
	.cfi_def_cfa_offset 268
.Ltmp305:
	.cfi_offset 15, 0
	stw r10, sp[1]
.Ltmp306:
	.cfi_offset 10, -264
	ldaw r10, sp[0]
.Ltmp307:
	.cfi_def_cfa_register 10
	ldc r11, 66
	stw r4, r10[r11]
.Ltmp308:
	.cfi_offset 4, -4
	ldc r4, 65
	stw r5, r10[r4]
.Ltmp309:
	.cfi_offset 5, -8
	ldc r4, 64
	stw r6, r10[r4]
.Ltmp310:
	.cfi_offset 6, -12
	mkmsk r4, 6
	stw r7, r10[r4]
.Ltmp311:
	.cfi_offset 7, -16
	ldc r4, 62
	stw r8, r10[r4]
.Ltmp312:
	.cfi_offset 8, -20
	ldc r4, 61
	stw r9, r10[r4]
.Ltmp313:
	.cfi_offset 9, -24
	stw r3, r10[7]
.Ltmp314:
	stw r2, r10[9]
.Ltmp315:
	stw r1, r10[8]
.Ltmp316:
	stw r0, r10[6]
.Ltmp317:
	ldc r4, 68
	ldw r3, r10[r4]
	ldc r0, slider.init.0.savedstate
	ldc r1, 4
	ldaw r0, r1[r0]
	mov r2, r1
	ldaw r1, sp[0]
	sub r1, r1, r0
	set sp, r1
	# ALLOCA 3
	add r1, r1, 4
	stw r1, r10[5]
	ldaw r1, sp[0]
	sub r0, r1, r0
	set sp, r0
	# ALLOCA 2
	add r0, r0, 4
	stw r0, r10[3]
	ldc r0, absolute_slider.init.0.savedstate
	ldaw r0, r2[r0]
	ldaw r1, sp[0]
	sub r1, r1, r0
	set sp, r1
	# ALLOCA 1
	add r1, r1, 4
	stw r1, r10[2]
	ldaw r1, sp[0]
	sub r0, r1, r0
	set sp, r0
	# ALLOCA 0
	add r7, r0, 4
	ldc r0, 0
	.loc	1 216 0 prologue_end
.Ltmp318:
	ldc r1, 59
	stw r0, r10[r1]
	.loc	1 216 0
	ldaw r11, cp[.vtable]
	ldc r1, 60
	stw r11, r10[r1]
	.loc	1 216 0
	ldc r1, 57
	stw r0, r10[r1]
	ldc r1, 59
	ldaw r9, r10[r1]
	.loc	1 216 0
	ldc r1, 58
	stw r9, r10[r1]
	.loc	1 217 0
.Ltmp319:
	ldc r1, 55
	stw r0, r10[r1]
	.loc	1 217 0
	ldaw r11, cp[.vtable216]
	ldc r1, 56
	stw r11, r10[r1]
	.loc	1 217 0
	ldc r1, 53
	stw r0, r10[r1]
	ldc r1, 55
	ldaw r6, r10[r1]
	.loc	1 217 0
	ldc r1, 54
	stw r6, r10[r1]
	.loc	1 218 0
.Ltmp320:
	ldc r1, 51
	stw r0, r10[r1]
	.loc	1 218 0
	ldaw r11, cp[.vtable217]
	ldc r1, 52
	stw r11, r10[r1]
	.loc	1 218 0
	ldc r1, 49
	stw r0, r10[r1]
	ldc r1, 51
	ldaw r8, r10[r1]
	.loc	1 218 0
	ldc r1, 50
	stw r8, r10[r1]
	.loc	1 218 0
	ldc r1, 47
	stw r0, r10[r1]
	.loc	1 218 0
	ldaw r11, cp[.vtable218]
	ldc r1, 48
	stw r11, r10[r1]
	.loc	1 218 0
	ldc r1, 45
	stw r0, r10[r1]
	ldc r1, 47
	ldaw r5, r10[r1]
	.loc	1 218 0
	ldc r1, 46
	stw r5, r10[r1]
	mov r4, r3
	.loc	1 219 0
	ldw r0, r4[3]
	.loc	1 219 0
	stw r0, r10[4]
	# STACKUP 
	# ALLOCA 4
	extsp 1
.Lxta.call_labels2:
	bl capsenseInitClock
	ldaw sp, sp[1]
	# STACKDOWN
	ldaw r0, r10[11]
	ldc r2, 44
	stw r0, r10[r2]
	ldc r2, 44
	ldaw r0, r10[r2]
	#init allocation
	ldw r0, r10[5]
	ldc r2, 43
	stw r0, r10[r2]
	ldc r2, 43
	ldaw r0, r10[r2]
	#init allocation
	ldw r0, r10[3]
	ldc r11, 42
	stw r0, r10[r11]
	ldc r11, 42
	ldaw r0, r10[r11]
	#init allocation
	ldw r0, r10[2]
	ldc r11, 41
	stw r0, r10[r11]
	ldc r11, 41
	ldaw r0, r10[r11]
	#init allocation
	ldc r11, 40
	stw r7, r10[r11]
	ldc r7, 40
	ldaw r0, r10[r7]
	#init allocation
	ldc r7, 44
	ldw r1, r10[r7]
	stw r1, r10[5]
	ldw r0, r4[0]
	# STACKUP 
	# ALLOCA 5
	extsp 5
	stw r6, sp[4]
	stw r9, sp[3]
	stw r0, sp[2]
	ldw r0, r10[7]
	stw r0, sp[1]
	mov r0, r1
	ldw r1, r10[6]
.Ltmp321:
	ldw r2, r10[8]
.Ltmp322:
	ldw r3, r10[9]
.Ltmp323:
.Lxta.call_labels3:
	bl startkit_gpio_driver_aux.init.0
.Ltmp324:
	ldaw sp, sp[5]
	# STACKDOWN
	ldc r6, 43
	ldw r0, r10[r6]
	stw r0, r10[9]
	# STACKUP 
	# ALLOCA 6
	extsp 1
	ldc r6, 57
	ldaw r1, r10[r6]
	mov r2, r8
.Lxta.call_labels4:
	bl slider.init.0
	ldaw sp, sp[1]
	# STACKDOWN
	ldc r9, 42
	ldw r7, r10[r9]
	stw r7, r10[8]
	# STACKUP 
	# ALLOCA 7
	extsp 1
	ldc r9, 53
	ldaw r1, r10[r9]
	mov r0, r7
	mov r2, r5
.Lxta.call_labels5:
	bl slider.init.0
	ldaw sp, sp[1]
	# STACKDOWN
	ldc r5, 41
	ldw r8, r10[r5]
	stw r8, r10[7]
	ldw r2, r4[1]
	# STACKUP 
	# ALLOCA 8
	extsp 5
	ldc r0, 50
	stw r0, sp[4]
	ldc r0, 100
	stw r0, sp[3]
	ldc r0, 80
	stw r0, sp[2]
	mov r6, r0
	ldc r4, 4
	stw r4, sp[1]
	ldc r5, 49
	ldaw r1, r10[r5]
	mov r0, r8
	ldw r9, r10[4]
	mov r3, r9
.Lxta.call_labels6:
	bl absolute_slider.init.0
	ldaw sp, sp[5]
	# STACKDOWN
	ldc r11, 40
	ldw r5, r10[r11]
	stw r5, r10[6]
	ldc r11, 68
	ldw r0, r10[r11]
	ldw r2, r0[2]
	# STACKUP 
	# ALLOCA 9
	extsp 5
	ldc r0, 50
	stw r0, sp[4]
	ldc r0, 100
	stw r0, sp[3]
	stw r6, sp[2]
	stw r4, sp[1]
	ldc r4, 45
	ldaw r1, r10[r4]
	mov r0, r5
	mov r3, r9
	ldw r9, r10[5]
.Lxta.call_labels7:
	bl absolute_slider.init.0
	ldaw sp, sp[5]
	# STACKDOWN
	# STACKUP 
	# ALLOCA 10
	extsp 1
	mov r0, r9
	bl startkit_gpio_driver_aux.init.1
	ldaw sp, sp[1]
	# STACKDOWN
	# STACKUP 
	# ALLOCA 11
	extsp 1
	ldw r0, r10[9]
	bl slider.init.1
	ldaw sp, sp[1]
	# STACKDOWN
	# STACKUP 
	# ALLOCA 12
	extsp 1
	mov r0, r7
	bl slider.init.1
	ldaw sp, sp[1]
	# STACKDOWN
	# STACKUP 
	# ALLOCA 13
	extsp 1
	mov r0, r8
	bl absolute_slider.init.1
	ldaw sp, sp[1]
	# STACKDOWN
	# STACKUP 
	# ALLOCA 14
	extsp 1
	mov r0, r5
	bl absolute_slider.init.1
	ldaw sp, sp[1]
	# STACKDOWN
	get r11, id
	ldaw r0, dp[__timers]
	ldw r4, r0[r11]
	ldaw r7, dp[__timer_delta]
	ldw r8, cp[.LCPI41_0]
	ldaw r6, dp[__timer_base]
	bu .LBB41_1
.Ltmp325:
.LBB41_2:
	bl __wait_nonlocal
	bu .Ltmp326
.Ltmp327:
.Ltmp326:
.LBB41_1:
	clre
	get r11, id
	stw r8, r7[r11]
	setc res[r4], 1
	in r0, res[r4]
	stw r0, r6[r11]
	# STACKUP 
	# ALLOCA 15
	extsp 1
	mov r0, r9
	bl startkit_gpio_driver_aux.select.enable
	ldaw sp, sp[1]
	# STACKDOWN
	mov r5, r9
	mov r9, r0
	# STACKUP 
	# ALLOCA 16
	extsp 1
	ldw r0, r10[9]
	bl slider.select.enable
	ldaw sp, sp[1]
	# STACKDOWN
	or r9, r0, r9
	# STACKUP 
	# ALLOCA 17
	extsp 1
	ldw r0, r10[8]
	bl slider.select.enable
	ldaw sp, sp[1]
	# STACKDOWN
	or r9, r9, r0
	# STACKUP 
	# ALLOCA 18
	extsp 1
	ldw r0, r10[7]
	bl absolute_slider.select.enable
	ldaw sp, sp[1]
	# STACKDOWN
	or r9, r9, r0
	# STACKUP 
	# ALLOCA 19
	extsp 1
	ldw r0, r10[6]
	bl absolute_slider.select.enable
	ldaw sp, sp[1]
	# STACKDOWN
	or r0, r9, r0
	mov r9, r5
	bf r0, .LBB41_1
	bu .LBB41_2
	.cc_bottom startkit_gpio_driver.function
	.set	startkit_gpio_driver.nstackwords,((((((slider.init.0.savedstate << 2) + 4) >> 2) + (((slider.init.0.savedstate << 2) + 4) >> 2) + (((absolute_slider.init.0.savedstate << 2) + 4) >> 2) + (((absolute_slider.init.0.savedstate << 2) + 4) >> 2)) + ((1 + capsenseInitClock.nstackwords) $M (5 + startkit_gpio_driver_aux.init.0.nstackwords) $M (1 + slider.init.0.nstackwords) $M (1 + slider.init.0.nstackwords) $M (5 + absolute_slider.init.0.nstackwords) $M (5 + absolute_slider.init.0.nstackwords) $M (1 + startkit_gpio_driver_aux.init.1.nstackwords) $M (1 + slider.init.1.nstackwords) $M (1 + slider.init.1.nstackwords) $M (1 + absolute_slider.init.1.nstackwords) $M (1 + absolute_slider.init.1.nstackwords) $M (1 + startkit_gpio_driver_aux.select.enable.nstackwords) $M (1 + slider.select.enable.nstackwords) $M (1 + slider.select.enable.nstackwords) $M (1 + absolute_slider.select.enable.nstackwords) $M (1 + absolute_slider.select.enable.nstackwords) $M absolute_slider.select.enable.cases.nstackwords $M slider.select.enable.cases.nstackwords $M startkit_gpio_driver_aux.select.enable.cases.nstackwords)) + 67)
	.globl	startkit_gpio_driver.nstackwords
	.set	startkit_gpio_driver.maxcores,((2 * absolute_slider.dynalloc_maxcores) + ((2 * slider.dynalloc_maxcores) + ((1 * startkit_gpio_driver_aux.dynalloc_maxcores) + absolute_slider.init.0.maxcores))) $M ((2 * absolute_slider.dynalloc_maxcores) + ((2 * slider.dynalloc_maxcores) + ((1 * startkit_gpio_driver_aux.dynalloc_maxcores) + absolute_slider.init.1.maxcores))) $M ((2 * absolute_slider.dynalloc_maxcores) + ((2 * slider.dynalloc_maxcores) + ((1 * startkit_gpio_driver_aux.dynalloc_maxcores) + absolute_slider.select.enable.maxcores))) $M ((2 * absolute_slider.dynalloc_maxcores) + ((2 * slider.dynalloc_maxcores) + ((1 * startkit_gpio_driver_aux.dynalloc_maxcores) + absolute_slider.select.enable.cases.maxcores))) $M capsenseInitClock.maxcores $M ((2 * absolute_slider.dynalloc_maxcores) + ((2 * slider.dynalloc_maxcores) + ((1 * startkit_gpio_driver_aux.dynalloc_maxcores) + slider.init.0.maxcores))) $M ((2 * absolute_slider.dynalloc_maxcores) + ((2 * slider.dynalloc_maxcores) + ((1 * startkit_gpio_driver_aux.dynalloc_maxcores) + slider.init.1.maxcores))) $M ((2 * absolute_slider.dynalloc_maxcores) + ((2 * slider.dynalloc_maxcores) + ((1 * startkit_gpio_driver_aux.dynalloc_maxcores) + slider.select.enable.maxcores))) $M ((2 * absolute_slider.dynalloc_maxcores) + ((2 * slider.dynalloc_maxcores) + ((1 * startkit_gpio_driver_aux.dynalloc_maxcores) + slider.select.enable.cases.maxcores))) $M ((2 * absolute_slider.dynalloc_maxcores) + ((2 * slider.dynalloc_maxcores) + ((1 * startkit_gpio_driver_aux.dynalloc_maxcores) + startkit_gpio_driver_aux.init.0.maxcores))) $M ((2 * absolute_slider.dynalloc_maxcores) + ((2 * slider.dynalloc_maxcores) + ((1 * startkit_gpio_driver_aux.dynalloc_maxcores) + startkit_gpio_driver_aux.init.1.maxcores))) $M ((2 * absolute_slider.dynalloc_maxcores) + ((2 * slider.dynalloc_maxcores) + ((1 * startkit_gpio_driver_aux.dynalloc_maxcores) + startkit_gpio_driver_aux.select.enable.maxcores))) $M ((2 * absolute_slider.dynalloc_maxcores) + ((2 * slider.dynalloc_maxcores) + ((1 * startkit_gpio_driver_aux.dynalloc_maxcores) + startkit_gpio_driver_aux.select.enable.cases.maxcores))) $M ((2 * absolute_slider.dynalloc_maxcores) + ((2 * slider.dynalloc_maxcores) + ((1 * startkit_gpio_driver_aux.dynalloc_maxcores) + 1)))
	.globl	startkit_gpio_driver.maxcores
	.set	startkit_gpio_driver.maxtimers,((2 * absolute_slider.dynalloc_maxtimers) + ((2 * slider.dynalloc_maxtimers) + ((1 * startkit_gpio_driver_aux.dynalloc_maxtimers) + absolute_slider.init.0.maxtimers))) $M ((2 * absolute_slider.dynalloc_maxtimers) + ((2 * slider.dynalloc_maxtimers) + ((1 * startkit_gpio_driver_aux.dynalloc_maxtimers) + absolute_slider.init.1.maxtimers))) $M ((2 * absolute_slider.dynalloc_maxtimers) + ((2 * slider.dynalloc_maxtimers) + ((1 * startkit_gpio_driver_aux.dynalloc_maxtimers) + absolute_slider.select.enable.maxtimers))) $M ((2 * absolute_slider.dynalloc_maxtimers) + ((2 * slider.dynalloc_maxtimers) + ((1 * startkit_gpio_driver_aux.dynalloc_maxtimers) + absolute_slider.select.enable.cases.maxtimers))) $M capsenseInitClock.maxtimers $M ((2 * absolute_slider.dynalloc_maxtimers) + ((2 * slider.dynalloc_maxtimers) + ((1 * startkit_gpio_driver_aux.dynalloc_maxtimers) + slider.init.0.maxtimers))) $M ((2 * absolute_slider.dynalloc_maxtimers) + ((2 * slider.dynalloc_maxtimers) + ((1 * startkit_gpio_driver_aux.dynalloc_maxtimers) + slider.init.1.maxtimers))) $M ((2 * absolute_slider.dynalloc_maxtimers) + ((2 * slider.dynalloc_maxtimers) + ((1 * startkit_gpio_driver_aux.dynalloc_maxtimers) + slider.select.enable.maxtimers))) $M ((2 * absolute_slider.dynalloc_maxtimers) + ((2 * slider.dynalloc_maxtimers) + ((1 * startkit_gpio_driver_aux.dynalloc_maxtimers) + slider.select.enable.cases.maxtimers))) $M ((2 * absolute_slider.dynalloc_maxtimers) + ((2 * slider.dynalloc_maxtimers) + ((1 * startkit_gpio_driver_aux.dynalloc_maxtimers) + startkit_gpio_driver_aux.init.0.maxtimers))) $M ((2 * absolute_slider.dynalloc_maxtimers) + ((2 * slider.dynalloc_maxtimers) + ((1 * startkit_gpio_driver_aux.dynalloc_maxtimers) + startkit_gpio_driver_aux.init.1.maxtimers))) $M ((2 * absolute_slider.dynalloc_maxtimers) + ((2 * slider.dynalloc_maxtimers) + ((1 * startkit_gpio_driver_aux.dynalloc_maxtimers) + startkit_gpio_driver_aux.select.enable.maxtimers))) $M ((2 * absolute_slider.dynalloc_maxtimers) + ((2 * slider.dynalloc_maxtimers) + ((1 * startkit_gpio_driver_aux.dynalloc_maxtimers) + startkit_gpio_driver_aux.select.enable.cases.maxtimers))) $M ((2 * absolute_slider.dynalloc_maxtimers) + ((2 * slider.dynalloc_maxtimers) + ((1 * startkit_gpio_driver_aux.dynalloc_maxtimers) + 0)))
	.globl	startkit_gpio_driver.maxtimers
	.set	startkit_gpio_driver.maxchanends,((2 * absolute_slider.dynalloc_maxchanends) + ((2 * slider.dynalloc_maxchanends) + ((1 * startkit_gpio_driver_aux.dynalloc_maxchanends) + absolute_slider.init.0.maxchanends))) $M ((2 * absolute_slider.dynalloc_maxchanends) + ((2 * slider.dynalloc_maxchanends) + ((1 * startkit_gpio_driver_aux.dynalloc_maxchanends) + absolute_slider.init.1.maxchanends))) $M ((2 * absolute_slider.dynalloc_maxchanends) + ((2 * slider.dynalloc_maxchanends) + ((1 * startkit_gpio_driver_aux.dynalloc_maxchanends) + absolute_slider.select.enable.maxchanends))) $M ((2 * absolute_slider.dynalloc_maxchanends) + ((2 * slider.dynalloc_maxchanends) + ((1 * startkit_gpio_driver_aux.dynalloc_maxchanends) + absolute_slider.select.enable.cases.maxchanends))) $M capsenseInitClock.maxchanends $M ((2 * absolute_slider.dynalloc_maxchanends) + ((2 * slider.dynalloc_maxchanends) + ((1 * startkit_gpio_driver_aux.dynalloc_maxchanends) + slider.init.0.maxchanends))) $M ((2 * absolute_slider.dynalloc_maxchanends) + ((2 * slider.dynalloc_maxchanends) + ((1 * startkit_gpio_driver_aux.dynalloc_maxchanends) + slider.init.1.maxchanends))) $M ((2 * absolute_slider.dynalloc_maxchanends) + ((2 * slider.dynalloc_maxchanends) + ((1 * startkit_gpio_driver_aux.dynalloc_maxchanends) + slider.select.enable.maxchanends))) $M ((2 * absolute_slider.dynalloc_maxchanends) + ((2 * slider.dynalloc_maxchanends) + ((1 * startkit_gpio_driver_aux.dynalloc_maxchanends) + slider.select.enable.cases.maxchanends))) $M ((2 * absolute_slider.dynalloc_maxchanends) + ((2 * slider.dynalloc_maxchanends) + ((1 * startkit_gpio_driver_aux.dynalloc_maxchanends) + startkit_gpio_driver_aux.init.0.maxchanends))) $M ((2 * absolute_slider.dynalloc_maxchanends) + ((2 * slider.dynalloc_maxchanends) + ((1 * startkit_gpio_driver_aux.dynalloc_maxchanends) + startkit_gpio_driver_aux.init.1.maxchanends))) $M ((2 * absolute_slider.dynalloc_maxchanends) + ((2 * slider.dynalloc_maxchanends) + ((1 * startkit_gpio_driver_aux.dynalloc_maxchanends) + startkit_gpio_driver_aux.select.enable.maxchanends))) $M ((2 * absolute_slider.dynalloc_maxchanends) + ((2 * slider.dynalloc_maxchanends) + ((1 * startkit_gpio_driver_aux.dynalloc_maxchanends) + startkit_gpio_driver_aux.select.enable.cases.maxchanends))) $M ((2 * absolute_slider.dynalloc_maxchanends) + ((2 * slider.dynalloc_maxchanends) + ((1 * startkit_gpio_driver_aux.dynalloc_maxchanends) + 0)))
	.globl	startkit_gpio_driver.maxchanends
.Ltmp328:
	.size	startkit_gpio_driver, .Ltmp328-startkit_gpio_driver
.Lfunc_end41:
	.cfi_endproc

	.globl	startkit_gpio_driver.select.0.enable
	.align	4
	.type	startkit_gpio_driver.select.0.enable,@function
	.cc_top startkit_gpio_driver.select.0.enable.function,startkit_gpio_driver.select.0.enable
startkit_gpio_driver.select.0.enable:
	.cfi_startproc
	entsp 3
.Ltmp329:
	.cfi_def_cfa_offset 12
.Ltmp330:
	.cfi_offset 15, 0
	stw r4, sp[2]
.Ltmp331:
	.cfi_offset 4, -4
	stw r5, sp[1]
.Ltmp332:
	.cfi_offset 5, -8
	mov r4, r0
	bl startkit_gpio_driver.init.1
	ldc r0, 156
	add r0, r4, r0
	ldw r0, r0[0]
	bl startkit_gpio_driver_aux.select.enable
	mov r5, r0
	ldc r0, 160
	add r0, r4, r0
	ldw r0, r0[0]
	bl slider.select.enable
	or r5, r5, r0
	ldc r0, 164
	add r0, r4, r0
	ldw r0, r0[0]
	bl slider.select.enable
	or r5, r5, r0
	ldc r0, 168
	add r0, r4, r0
	ldw r0, r0[0]
	bl absolute_slider.select.enable
	or r5, r5, r0
	ldc r0, 172
	add r0, r4, r0
	ldw r0, r0[0]
	bl absolute_slider.select.enable
	or r0, r5, r0
	stw r0, r4[0]
	ldw r5, sp[1]
	ldw r4, sp[2]
	retsp 3
	# RETURN_REG_HOLDER
	.cc_bottom startkit_gpio_driver.select.0.enable.function
	.set	startkit_gpio_driver.select.0.enable.nstackwords,((startkit_gpio_driver.init.1.nstackwords $M startkit_gpio_driver_aux.select.enable.nstackwords $M slider.select.enable.nstackwords $M absolute_slider.select.enable.nstackwords) + 3)
	.globl	startkit_gpio_driver.select.0.enable.nstackwords
	.set	startkit_gpio_driver.select.0.enable.maxcores,absolute_slider.select.enable.maxcores $M slider.select.enable.maxcores $M startkit_gpio_driver.init.1.maxcores $M startkit_gpio_driver_aux.select.enable.maxcores $M 1
	.globl	startkit_gpio_driver.select.0.enable.maxcores
	.set	startkit_gpio_driver.select.0.enable.maxtimers,absolute_slider.select.enable.maxtimers $M slider.select.enable.maxtimers $M startkit_gpio_driver.init.1.maxtimers $M startkit_gpio_driver_aux.select.enable.maxtimers $M 0
	.globl	startkit_gpio_driver.select.0.enable.maxtimers
	.set	startkit_gpio_driver.select.0.enable.maxchanends,absolute_slider.select.enable.maxchanends $M slider.select.enable.maxchanends $M startkit_gpio_driver.init.1.maxchanends $M startkit_gpio_driver_aux.select.enable.maxchanends $M 0
	.globl	startkit_gpio_driver.select.0.enable.maxchanends
.Ltmp333:
	.size	startkit_gpio_driver.select.0.enable, .Ltmp333-startkit_gpio_driver.select.0.enable
	.cfi_endproc

	.globl	startkit_gpio_driver.select.1.enable
	.align	4
	.type	startkit_gpio_driver.select.1.enable,@function
	.cc_top startkit_gpio_driver.select.1.enable.function,startkit_gpio_driver.select.1.enable
startkit_gpio_driver.select.1.enable:
	.cfi_startproc
	entsp 3
.Ltmp334:
	.cfi_def_cfa_offset 12
.Ltmp335:
	.cfi_offset 15, 0
	stw r4, sp[2]
.Ltmp336:
	.cfi_offset 4, -4
	stw r5, sp[1]
.Ltmp337:
	.cfi_offset 5, -8
	mov r4, r0
	bl startkit_gpio_driver.init.1
	ldc r0, 156
	add r0, r4, r0
	ldw r0, r0[0]
	bl startkit_gpio_driver_aux.select.enable
	mov r5, r0
	ldc r0, 160
	add r0, r4, r0
	ldw r0, r0[0]
	bl slider.select.enable
	or r5, r5, r0
	ldc r0, 164
	add r0, r4, r0
	ldw r0, r0[0]
	bl slider.select.enable
	or r5, r5, r0
	ldc r0, 168
	add r0, r4, r0
	ldw r0, r0[0]
	bl absolute_slider.select.enable
	or r5, r5, r0
	ldc r0, 172
	add r0, r4, r0
	ldw r0, r0[0]
	bl absolute_slider.select.enable
	or r0, r5, r0
	stw r0, r4[0]
	ldw r5, sp[1]
	ldw r4, sp[2]
	retsp 3
	# RETURN_REG_HOLDER
	.cc_bottom startkit_gpio_driver.select.1.enable.function
	.set	startkit_gpio_driver.select.1.enable.nstackwords,((startkit_gpio_driver.init.1.nstackwords $M startkit_gpio_driver_aux.select.enable.nstackwords $M slider.select.enable.nstackwords $M absolute_slider.select.enable.nstackwords) + 3)
	.globl	startkit_gpio_driver.select.1.enable.nstackwords
	.set	startkit_gpio_driver.select.1.enable.maxcores,absolute_slider.select.enable.maxcores $M slider.select.enable.maxcores $M startkit_gpio_driver.init.1.maxcores $M startkit_gpio_driver_aux.select.enable.maxcores $M 1
	.globl	startkit_gpio_driver.select.1.enable.maxcores
	.set	startkit_gpio_driver.select.1.enable.maxtimers,absolute_slider.select.enable.maxtimers $M slider.select.enable.maxtimers $M startkit_gpio_driver.init.1.maxtimers $M startkit_gpio_driver_aux.select.enable.maxtimers $M 0
	.globl	startkit_gpio_driver.select.1.enable.maxtimers
	.set	startkit_gpio_driver.select.1.enable.maxchanends,absolute_slider.select.enable.maxchanends $M slider.select.enable.maxchanends $M startkit_gpio_driver.init.1.maxchanends $M startkit_gpio_driver_aux.select.enable.maxchanends $M 0
	.globl	startkit_gpio_driver.select.1.enable.maxchanends
.Ltmp338:
	.size	startkit_gpio_driver.select.1.enable, .Ltmp338-startkit_gpio_driver.select.1.enable
	.cfi_endproc

	.globl	startkit_gpio_driver.select.2.enable
	.align	4
	.type	startkit_gpio_driver.select.2.enable,@function
	.cc_top startkit_gpio_driver.select.2.enable.function,startkit_gpio_driver.select.2.enable
startkit_gpio_driver.select.2.enable:
	.cfi_startproc
	entsp 3
.Ltmp339:
	.cfi_def_cfa_offset 12
.Ltmp340:
	.cfi_offset 15, 0
	stw r4, sp[2]
.Ltmp341:
	.cfi_offset 4, -4
	stw r5, sp[1]
.Ltmp342:
	.cfi_offset 5, -8
	mov r4, r0
	bl startkit_gpio_driver.init.1
	ldc r0, 156
	add r0, r4, r0
	ldw r0, r0[0]
	bl startkit_gpio_driver_aux.select.enable
	mov r5, r0
	ldc r0, 160
	add r0, r4, r0
	ldw r0, r0[0]
	bl slider.select.enable
	or r5, r5, r0
	ldc r0, 164
	add r0, r4, r0
	ldw r0, r0[0]
	bl slider.select.enable
	or r5, r5, r0
	ldc r0, 168
	add r0, r4, r0
	ldw r0, r0[0]
	bl absolute_slider.select.enable
	or r5, r5, r0
	ldc r0, 172
	add r0, r4, r0
	ldw r0, r0[0]
	bl absolute_slider.select.enable
	or r0, r5, r0
	stw r0, r4[0]
	ldw r5, sp[1]
	ldw r4, sp[2]
	retsp 3
	# RETURN_REG_HOLDER
	.cc_bottom startkit_gpio_driver.select.2.enable.function
	.set	startkit_gpio_driver.select.2.enable.nstackwords,((startkit_gpio_driver.init.1.nstackwords $M startkit_gpio_driver_aux.select.enable.nstackwords $M slider.select.enable.nstackwords $M absolute_slider.select.enable.nstackwords) + 3)
	.globl	startkit_gpio_driver.select.2.enable.nstackwords
	.set	startkit_gpio_driver.select.2.enable.maxcores,absolute_slider.select.enable.maxcores $M slider.select.enable.maxcores $M startkit_gpio_driver.init.1.maxcores $M startkit_gpio_driver_aux.select.enable.maxcores $M 1
	.globl	startkit_gpio_driver.select.2.enable.maxcores
	.set	startkit_gpio_driver.select.2.enable.maxtimers,absolute_slider.select.enable.maxtimers $M slider.select.enable.maxtimers $M startkit_gpio_driver.init.1.maxtimers $M startkit_gpio_driver_aux.select.enable.maxtimers $M 0
	.globl	startkit_gpio_driver.select.2.enable.maxtimers
	.set	startkit_gpio_driver.select.2.enable.maxchanends,absolute_slider.select.enable.maxchanends $M slider.select.enable.maxchanends $M startkit_gpio_driver.init.1.maxchanends $M startkit_gpio_driver_aux.select.enable.maxchanends $M 0
	.globl	startkit_gpio_driver.select.2.enable.maxchanends
.Ltmp343:
	.size	startkit_gpio_driver.select.2.enable, .Ltmp343-startkit_gpio_driver.select.2.enable
	.cfi_endproc

	.globl	startkit_gpio_driver.select.3.enable
	.align	4
	.type	startkit_gpio_driver.select.3.enable,@function
	.cc_top startkit_gpio_driver.select.3.enable.function,startkit_gpio_driver.select.3.enable
startkit_gpio_driver.select.3.enable:
	.cfi_startproc
	entsp 3
.Ltmp344:
	.cfi_def_cfa_offset 12
.Ltmp345:
	.cfi_offset 15, 0
	stw r4, sp[2]
.Ltmp346:
	.cfi_offset 4, -4
	stw r5, sp[1]
.Ltmp347:
	.cfi_offset 5, -8
	mov r4, r0
	bl startkit_gpio_driver.init.1
	ldc r0, 156
	add r0, r4, r0
	ldw r0, r0[0]
	bl startkit_gpio_driver_aux.select.enable
	mov r5, r0
	ldc r0, 160
	add r0, r4, r0
	ldw r0, r0[0]
	bl slider.select.enable
	or r5, r5, r0
	ldc r0, 164
	add r0, r4, r0
	ldw r0, r0[0]
	bl slider.select.enable
	or r5, r5, r0
	ldc r0, 168
	add r0, r4, r0
	ldw r0, r0[0]
	bl absolute_slider.select.enable
	or r5, r5, r0
	ldc r0, 172
	add r0, r4, r0
	ldw r0, r0[0]
	bl absolute_slider.select.enable
	or r0, r5, r0
	stw r0, r4[0]
	ldw r5, sp[1]
	ldw r4, sp[2]
	retsp 3
	# RETURN_REG_HOLDER
	.cc_bottom startkit_gpio_driver.select.3.enable.function
	.set	startkit_gpio_driver.select.3.enable.nstackwords,((startkit_gpio_driver.init.1.nstackwords $M startkit_gpio_driver_aux.select.enable.nstackwords $M slider.select.enable.nstackwords $M absolute_slider.select.enable.nstackwords) + 3)
	.globl	startkit_gpio_driver.select.3.enable.nstackwords
	.set	startkit_gpio_driver.select.3.enable.maxcores,absolute_slider.select.enable.maxcores $M slider.select.enable.maxcores $M startkit_gpio_driver.init.1.maxcores $M startkit_gpio_driver_aux.select.enable.maxcores $M 1
	.globl	startkit_gpio_driver.select.3.enable.maxcores
	.set	startkit_gpio_driver.select.3.enable.maxtimers,absolute_slider.select.enable.maxtimers $M slider.select.enable.maxtimers $M startkit_gpio_driver.init.1.maxtimers $M startkit_gpio_driver_aux.select.enable.maxtimers $M 0
	.globl	startkit_gpio_driver.select.3.enable.maxtimers
	.set	startkit_gpio_driver.select.3.enable.maxchanends,absolute_slider.select.enable.maxchanends $M slider.select.enable.maxchanends $M startkit_gpio_driver.init.1.maxchanends $M startkit_gpio_driver_aux.select.enable.maxchanends $M 0
	.globl	startkit_gpio_driver.select.3.enable.maxchanends
.Ltmp348:
	.size	startkit_gpio_driver.select.3.enable, .Ltmp348-startkit_gpio_driver.select.3.enable
	.cfi_endproc

	.globl	startkit_gpio_driver.init.1
	.align	4
	.type	startkit_gpio_driver.init.1,@function
	.cc_top startkit_gpio_driver.init.1.function,startkit_gpio_driver.init.1
startkit_gpio_driver.init.1:
.Lfunc_begin46:
	.loc	2 0 0
	.cfi_startproc
	entsp 2
.Ltmp349:
	.cfi_def_cfa_offset 8
.Ltmp350:
	.cfi_offset 15, 0
	stw r4, sp[1]
.Ltmp351:
	.cfi_offset 4, -4
	mov r4, r0
.Ltmp352:
	ldw r0, r4[1]
	bf r0, .LBB46_2
.Ltmp353:
	ldc r0, 0
	stw r0, r4[1]
	.loc	2 219 0 prologue_end
.Ltmp354:
	ldw r0, r4[6]
	.loc	2 219 0
	ldw r0, r0[3]
	.loc	2 219 0
.Lxta.call_labels8:
	bl capsenseInitClock
	ldc r0, 156
	add r0, r4, r0
	ldw r0, r0[0]
	bl startkit_gpio_driver_aux.init.1
	ldc r0, 160
	add r0, r4, r0
	ldw r0, r0[0]
	bl slider.init.1
	ldc r0, 164
	add r0, r4, r0
	ldw r0, r0[0]
	bl slider.init.1
	ldc r0, 168
	add r0, r4, r0
	ldw r0, r0[0]
	bl absolute_slider.init.1
	ldc r0, 172
	add r0, r4, r0
	ldw r0, r0[0]
	bl absolute_slider.init.1
	mkmsk r0, 1
	stw r0, r4[0]
.Ltmp355:
.LBB46_2:
	ldw r4, sp[1]
	retsp 2
	# RETURN_REG_HOLDER
	.cc_bottom startkit_gpio_driver.init.1.function
	.set	startkit_gpio_driver.init.1.nstackwords,((capsenseInitClock.nstackwords $M startkit_gpio_driver_aux.init.1.nstackwords $M slider.init.1.nstackwords $M absolute_slider.init.1.nstackwords) + 2)
	.globl	startkit_gpio_driver.init.1.nstackwords
	.set	startkit_gpio_driver.init.1.maxcores,absolute_slider.init.1.maxcores $M capsenseInitClock.maxcores $M slider.init.1.maxcores $M startkit_gpio_driver_aux.init.1.maxcores $M 1
	.globl	startkit_gpio_driver.init.1.maxcores
	.set	startkit_gpio_driver.init.1.maxtimers,absolute_slider.init.1.maxtimers $M capsenseInitClock.maxtimers $M slider.init.1.maxtimers $M startkit_gpio_driver_aux.init.1.maxtimers $M 0
	.globl	startkit_gpio_driver.init.1.maxtimers
	.set	startkit_gpio_driver.init.1.maxchanends,absolute_slider.init.1.maxchanends $M capsenseInitClock.maxchanends $M slider.init.1.maxchanends $M startkit_gpio_driver_aux.init.1.maxchanends $M 0
	.globl	startkit_gpio_driver.init.1.maxchanends
.Ltmp356:
	.size	startkit_gpio_driver.init.1, .Ltmp356-startkit_gpio_driver.init.1
.Lfunc_end46:
	.cfi_endproc

	.globl	startkit_gpio_driver.init.0
	.align	4
	.type	startkit_gpio_driver.init.0,@function
	.cc_top startkit_gpio_driver.init.0.function,startkit_gpio_driver.init.0
startkit_gpio_driver.init.0:
.Lfunc_begin47:
	.loc	1 215 0
	.cfi_startproc
.Lxtalabel37:
	entsp 20
.Ltmp357:
	.cfi_def_cfa_offset 80
.Ltmp358:
	.cfi_offset 15, 0
	stw r4, sp[19]
.Ltmp359:
	.cfi_offset 4, -4
	stw r5, sp[18]
.Ltmp360:
	.cfi_offset 5, -8
	stw r6, sp[17]
.Ltmp361:
	.cfi_offset 6, -12
	stw r7, sp[16]
.Ltmp362:
	.cfi_offset 7, -16
	stw r8, sp[15]
.Ltmp363:
	.cfi_offset 8, -20
	stw r9, sp[14]
.Ltmp364:
	.cfi_offset 9, -24
	stw r10, sp[13]
.Ltmp365:
	.cfi_offset 10, -28
	mov r4, r0
.Ltmp366:
	ldw r0, sp[22]
	ldw r11, sp[21]
	stw r1, r4[2]
	stw r2, r4[3]
	stw r3, r4[4]
	stw r11, r4[5]
	stw r0, r4[6]
	ldc r0, slider.init.0.savedstate
	ldc r3, 29
	add r5, r0, r3
	ldc r3, 0
	stw r3, r4[0]
	ldap r11, startkit_gpio_driver.init.1
	stw r11, r4[1]
	bf r1, .LBB47_1
.Ltmp367:
	ldw r11, r1[0]
	bt r11, .LBB47_1
.Ltmp368:
	ldw r1, r1[1]
	stw r4, r1[0]
	ldw r2, r4[3]
.Ltmp369:
.LBB47_1:
	ldc r1, 176
	add r11, r5, r0
	ldc r6, absolute_slider.init.0.savedstate
	bf r2, .LBB47_2
.Ltmp370:
	ldw r0, r2[0]
	bt r0, .LBB47_2
.Ltmp371:
	ldw r0, r2[1]
	stw r4, r0[0]
.Ltmp372:
.LBB47_2:
	add r0, r4, r1
	ldc r1, 292
	add r6, r11, r6
	ldw r2, r4[4]
	bf r2, .LBB47_3
.Ltmp373:
	ldw r7, r2[0]
	bt r7, .LBB47_3
.Ltmp374:
	ldw r2, r2[1]
	stw r4, r2[0]
.Ltmp375:
.LBB47_3:
	add r2, r4, r1
	ldaw r1, r0[r5]
	ldaw r11, r0[r11]
	stw r11, sp[10]
	ldaw r11, r0[r6]
	stw r11, sp[12]
	ldw r11, r4[5]
	mov r5, r3
	bf r11, .LBB47_4
.Ltmp376:
	ldw r5, r11[0]
	bf r5, .LBB47_13
.Ltmp377:
	mov r5, r11
	bu .LBB47_4
.Ltmp378:
.LBB47_13:
	ldw r11, r11[1]
	stw r4, r11[0]
	ldw r5, r4[5]
.Ltmp379:
.LBB47_4:
	stw r5, sp[11]
	.loc	1 216 0 prologue_end
.Ltmp380:
	ldaw r5, r4[9]
	ldaw r7, r4[11]
	.loc	1 216 0
	stw r7, sp[9]
	stw r3, r4[11]
	ldc r11, 48
	.loc	1 216 0
	add r6, r4, r11
	.loc	1 216 0
	ldaw r11, cp[.vtable219]
	stw r11, r6[0]
	.loc	1 216 0
	stw r7, r4[8]
	.loc	1 216 0
	stw r3, r4[9]
	.loc	1 216 0
	stw r7, r4[10]
	.loc	1 216 0
	stw r5, r4[7]
	ldc r11, 60
	.loc	1 217 0
.Ltmp381:
	add r8, r4, r11
	stw r8, sp[8]
	ldc r11, 64
	.loc	1 217 0
	add r5, r4, r11
	ldc r11, 68
	.loc	1 217 0
	add r6, r4, r11
	ldc r11, 76
	add r10, r4, r11
	.loc	1 217 0
	stw r3, r10[0]
	ldc r11, 80
	.loc	1 217 0
	add r7, r4, r11
	.loc	1 217 0
	ldaw r11, cp[.vtable220]
	stw r11, r7[0]
	.loc	1 217 0
	stw r10, r5[0]
	.loc	1 217 0
	stw r3, r6[0]
	ldc r11, 72
	.loc	1 217 0
	add r11, r4, r11
	.loc	1 217 0
	stw r10, r11[0]
	.loc	1 217 0
	stw r6, r8[0]
	ldc r11, 92
	.loc	1 218 0
.Ltmp382:
	add r8, r4, r11
	stw r8, sp[7]
	ldc r11, 96
	.loc	1 218 0
	add r9, r4, r11
	stw r9, sp[5]
	ldc r11, 100
	.loc	1 218 0
	add r5, r4, r11
	ldc r11, 108
	add r6, r4, r11
	.loc	1 218 0
	stw r3, r6[0]
	ldc r11, 112
	.loc	1 218 0
	add r7, r4, r11
	.loc	1 218 0
	ldaw r11, cp[.vtable221]
	stw r11, r7[0]
	.loc	1 218 0
	stw r6, r9[0]
	.loc	1 218 0
	stw r3, r5[0]
	ldc r11, 104
	.loc	1 218 0
	add r11, r4, r11
	.loc	1 218 0
	stw r6, r11[0]
	.loc	1 218 0
	stw r5, r8[0]
	ldc r11, 124
	.loc	1 218 0
	add r8, r4, r11
	stw r8, sp[6]
	ldc r11, 128
	.loc	1 218 0
	add r9, r4, r11
	ldc r11, 132
	.loc	1 218 0
	add r5, r4, r11
	ldc r11, 140
	add r6, r4, r11
	.loc	1 218 0
	stw r3, r6[0]
	ldc r11, 144
	.loc	1 218 0
	add r7, r4, r11
	.loc	1 218 0
	ldaw r11, cp[.vtable222]
	stw r11, r7[0]
	.loc	1 218 0
	stw r6, r9[0]
	.loc	1 218 0
	stw r3, r5[0]
	ldc r3, 136
	.loc	1 218 0
	add r3, r4, r3
	.loc	1 218 0
	stw r6, r3[0]
	.loc	1 218 0
	stw r5, r8[0]
	ldc r3, 156
	add r3, r4, r3
	stw r0, r3[0]
	ldc r3, 160
	add r7, r4, r3
	stw r2, r7[0]
	ldc r2, 164
	add r6, r4, r2
	stw r1, r6[0]
	ldc r1, 168
	add r5, r4, r1
	ldw r1, sp[10]
	stw r1, r5[0]
	ldc r1, 172
	add r8, r4, r1
	ldw r1, sp[12]
	stw r1, r8[0]
	ldw r1, r4[2]
	ldw r2, r4[3]
	ldw r3, r4[4]
	ldw r11, r4[6]
	ldw r11, r11[0]
	stw r10, sp[4]
	ldw r10, sp[9]
	stw r10, sp[3]
	stw r11, sp[2]
	ldw r11, sp[11]
	stw r11, sp[1]
.Lxta.call_labels9:
	bl startkit_gpio_driver_aux.init.0
	ldw r0, r7[0]
	ldw r1, r4[7]
	ldw r2, sp[5]
	ldw r2, r2[0]
.Lxta.call_labels10:
	bl slider.init.0
	ldw r0, r6[0]
	ldw r1, sp[8]
	ldw r1, r1[0]
	ldw r2, r9[0]
.Lxta.call_labels11:
	bl slider.init.0
	ldw r0, r5[0]
	ldw r1, sp[7]
	ldw r1, r1[0]
	ldw r3, r4[6]
	ldw r2, r3[1]
	ldw r3, r3[3]
	ldc r5, 50
	stw r5, sp[4]
	ldc r9, 100
	stw r9, sp[3]
	ldc r7, 80
	stw r7, sp[2]
	ldc r6, 4
	stw r6, sp[1]
.Lxta.call_labels12:
	bl absolute_slider.init.0
	ldw r0, r8[0]
	ldw r1, sp[6]
	ldw r1, r1[0]
	ldw r3, r4[6]
	ldw r2, r3[2]
	ldw r3, r3[3]
	stw r5, sp[4]
	stw r9, sp[3]
	stw r7, sp[2]
	stw r6, sp[1]
.Lxta.call_labels13:
	bl absolute_slider.init.0
	ldw r10, sp[13]
	ldw r9, sp[14]
	ldw r8, sp[15]
	ldw r7, sp[16]
	ldw r6, sp[17]
	ldw r5, sp[18]
	ldw r4, sp[19]
.Ltmp383:
	retsp 20
	# RETURN_REG_HOLDER
.Ltmp384:
	.cc_bottom startkit_gpio_driver.init.0.function
	.set	startkit_gpio_driver.init.0.nstackwords,((startkit_gpio_driver_aux.init.0.nstackwords $M slider.init.0.nstackwords $M absolute_slider.init.0.nstackwords) + 20)
	.globl	startkit_gpio_driver.init.0.nstackwords
	.set	startkit_gpio_driver.init.0.maxcores,absolute_slider.init.0.maxcores $M slider.init.0.maxcores $M startkit_gpio_driver_aux.init.0.maxcores $M 1
	.globl	startkit_gpio_driver.init.0.maxcores
	.set	startkit_gpio_driver.init.0.maxtimers,absolute_slider.init.0.maxtimers $M slider.init.0.maxtimers $M startkit_gpio_driver_aux.init.0.maxtimers $M 0
	.globl	startkit_gpio_driver.init.0.maxtimers
	.set	startkit_gpio_driver.init.0.maxchanends,absolute_slider.init.0.maxchanends $M slider.init.0.maxchanends $M startkit_gpio_driver_aux.init.0.maxchanends $M 0
	.globl	startkit_gpio_driver.init.0.maxchanends
.Ltmp385:
	.size	startkit_gpio_driver.init.0, .Ltmp385-startkit_gpio_driver.init.0
.Lfunc_end47:
	.cfi_endproc

	.globl	startkit_gpio_driver.select.yield.enable
	.align	4
	.type	startkit_gpio_driver.select.yield.enable,@function
	.cc_top startkit_gpio_driver.select.yield.enable.function,startkit_gpio_driver.select.yield.enable
startkit_gpio_driver.select.yield.enable:
	.cfi_startproc
	entsp 3
.Ltmp386:
	.cfi_def_cfa_offset 12
.Ltmp387:
	.cfi_offset 15, 0
	stw r4, sp[2]
.Ltmp388:
	.cfi_offset 4, -4
	stw r5, sp[1]
.Ltmp389:
	.cfi_offset 5, -8
	mov r4, r0
	bl startkit_gpio_driver.init.1
	ldc r0, 156
	add r0, r4, r0
	ldw r0, r0[0]
	bl startkit_gpio_driver_aux.select.enable
	mov r5, r0
	ldc r0, 160
	add r0, r4, r0
	ldw r0, r0[0]
	bl slider.select.enable
	or r5, r5, r0
	ldc r0, 164
	add r0, r4, r0
	ldw r0, r0[0]
	bl slider.select.enable
	or r5, r5, r0
	ldc r0, 168
	add r0, r4, r0
	ldw r0, r0[0]
	bl absolute_slider.select.enable
	or r5, r5, r0
	ldc r0, 172
	add r0, r4, r0
	ldw r0, r0[0]
	bl absolute_slider.select.enable
	or r0, r5, r0
	stw r0, r4[0]
	ldw r5, sp[1]
	ldw r4, sp[2]
	retsp 3
	# RETURN_REG_HOLDER
	.cc_bottom startkit_gpio_driver.select.yield.enable.function
	.set	startkit_gpio_driver.select.yield.enable.nstackwords,((startkit_gpio_driver.init.1.nstackwords $M startkit_gpio_driver_aux.select.enable.nstackwords $M slider.select.enable.nstackwords $M absolute_slider.select.enable.nstackwords) + 3)
	.globl	startkit_gpio_driver.select.yield.enable.nstackwords
	.set	startkit_gpio_driver.select.yield.enable.maxcores,absolute_slider.select.enable.maxcores $M slider.select.enable.maxcores $M startkit_gpio_driver.init.1.maxcores $M startkit_gpio_driver_aux.select.enable.maxcores $M 1
	.globl	startkit_gpio_driver.select.yield.enable.maxcores
	.set	startkit_gpio_driver.select.yield.enable.maxtimers,absolute_slider.select.enable.maxtimers $M slider.select.enable.maxtimers $M startkit_gpio_driver.init.1.maxtimers $M startkit_gpio_driver_aux.select.enable.maxtimers $M 0
	.globl	startkit_gpio_driver.select.yield.enable.maxtimers
	.set	startkit_gpio_driver.select.yield.enable.maxchanends,absolute_slider.select.enable.maxchanends $M slider.select.enable.maxchanends $M startkit_gpio_driver.init.1.maxchanends $M startkit_gpio_driver_aux.select.enable.maxchanends $M 0
	.globl	startkit_gpio_driver.select.yield.enable.maxchanends
.Ltmp390:
	.size	startkit_gpio_driver.select.yield.enable, .Ltmp390-startkit_gpio_driver.select.yield.enable
	.cfi_endproc

	.globl	startkit_gpio_driver.select.enable
	.align	4
	.type	startkit_gpio_driver.select.enable,@function
	.cc_top startkit_gpio_driver.select.enable.function,startkit_gpio_driver.select.enable
startkit_gpio_driver.select.enable:
	.cfi_startproc
	entsp 3
.Ltmp391:
	.cfi_def_cfa_offset 12
.Ltmp392:
	.cfi_offset 15, 0
	stw r4, sp[2]
.Ltmp393:
	.cfi_offset 4, -4
	stw r5, sp[1]
.Ltmp394:
	.cfi_offset 5, -8
	mov r4, r0
	ldc r0, 156
	add r0, r4, r0
	ldw r0, r0[0]
	bl startkit_gpio_driver_aux.select.enable
	mov r5, r0
	ldc r0, 160
	add r0, r4, r0
	ldw r0, r0[0]
	bl slider.select.enable
	or r5, r5, r0
	ldc r0, 164
	add r0, r4, r0
	ldw r0, r0[0]
	bl slider.select.enable
	or r5, r5, r0
	ldc r0, 168
	add r0, r4, r0
	ldw r0, r0[0]
	bl absolute_slider.select.enable
	or r5, r5, r0
	ldc r0, 172
	add r0, r4, r0
	ldw r0, r0[0]
	bl absolute_slider.select.enable
	or r0, r5, r0
	stw r0, r4[0]
	ldw r5, sp[1]
	ldw r4, sp[2]
	retsp 3
	# RETURN_REG_HOLDER
	.cc_bottom startkit_gpio_driver.select.enable.function
	.set	startkit_gpio_driver.select.enable.nstackwords,((startkit_gpio_driver_aux.select.enable.nstackwords $M slider.select.enable.nstackwords $M absolute_slider.select.enable.nstackwords) + 3)
	.globl	startkit_gpio_driver.select.enable.nstackwords
	.set	startkit_gpio_driver.select.enable.maxcores,absolute_slider.select.enable.maxcores $M slider.select.enable.maxcores $M startkit_gpio_driver_aux.select.enable.maxcores $M 1
	.globl	startkit_gpio_driver.select.enable.maxcores
	.set	startkit_gpio_driver.select.enable.maxtimers,absolute_slider.select.enable.maxtimers $M slider.select.enable.maxtimers $M startkit_gpio_driver_aux.select.enable.maxtimers $M 0
	.globl	startkit_gpio_driver.select.enable.maxtimers
	.set	startkit_gpio_driver.select.enable.maxchanends,absolute_slider.select.enable.maxchanends $M slider.select.enable.maxchanends $M startkit_gpio_driver_aux.select.enable.maxchanends $M 0
	.globl	startkit_gpio_driver.select.enable.maxchanends
.Ltmp395:
	.size	startkit_gpio_driver.select.enable, .Ltmp395-startkit_gpio_driver.select.enable
	.cfi_endproc

	.globl	startkit_gpio_driver.fini
	.align	4
	.type	startkit_gpio_driver.fini,@function
	.cc_top startkit_gpio_driver.fini.function,startkit_gpio_driver.fini
startkit_gpio_driver.fini:
	.cfi_startproc
	retsp 0
	# RETURN_REG_HOLDER
	.cc_bottom startkit_gpio_driver.fini.function
	.set	startkit_gpio_driver.fini.nstackwords,0
	.globl	startkit_gpio_driver.fini.nstackwords
	.set	startkit_gpio_driver.fini.maxcores,1
	.globl	startkit_gpio_driver.fini.maxcores
	.set	startkit_gpio_driver.fini.maxtimers,0
	.globl	startkit_gpio_driver.fini.maxtimers
	.set	startkit_gpio_driver.fini.maxchanends,0
	.globl	startkit_gpio_driver.fini.maxchanends
.Ltmp396:
	.size	startkit_gpio_driver.fini, .Ltmp396-startkit_gpio_driver.fini
	.cfi_endproc

	.align	4
	.type	startkit_led_driver.select.0.case.0,@function
	.cc_top startkit_led_driver.select.0.case.0.function,startkit_led_driver.select.0.case.0
startkit_led_driver.select.0.case.0:
.Lfunc_begin51:
	.loc	1 34 0
	.cfi_startproc
.Lxtalabel38:
	ldw r11, sp[0]
	extsp 6
.Ltmp397:
	.cfi_def_cfa_offset 24
	stw r4, sp[5]
.Ltmp398:
	.cfi_offset 4, -4
	stw r5, sp[4]
.Ltmp399:
	.cfi_offset 5, -8
	stw r6, sp[3]
.Ltmp400:
	.cfi_offset 6, -12
	stw r7, sp[2]
.Ltmp401:
	.cfi_offset 7, -16
	stw r8, sp[1]
.Ltmp402:
	.cfi_offset 8, -20
	stw r9, sp[0]
.Ltmp403:
	.cfi_offset 9, -24
	mov r0, r11
.Ltmp404:
	.loc	1 34 0 prologue_end
	get r11, ed
.Ltmp405:
	zext r11, 16
.Ltmp406:
	ldw r1, r0[4]
	ldw r1, r1[r11]
	ldw r1, r1[0]
	in r2, res[r1]
	ldc r3, 254
	add r11, r2, r3
	zext r11, 8
	sub r2, r2, r11
	setd res[r1], r2
	outct res[r1], 1
	in r2, res[r1]
.Ltmp407:
	in r3, res[r1]
.Ltmp408:
	bf r11, .LBB51_10
.Ltmp409:
	mkmsk r11, 5
	.loc	1 46 0
	shr r3, r3, r11
.Ltmp410:
	ldc r4, 2
	ldaw r11, cp[map+24]
.Ltmp411:
	ldc r5, 0
.Ltmp412:
.LBB51_2:
.Lxtalabel39:
	.loc	1 52 0
	ldw r7, r11[2]
	.loc	1 52 0
	ldw r6, r0[8]
	.loc	1 52 0
	andnot r6, r7
	.loc	1 53 0
	and r9, r3, r2
	.loc	1 53 0
	mov r8, r5
	bt r9, .LBB51_4
.Ltmp413:
.Lxtalabel40:
	mov r8, r7
.Ltmp414:
.LBB51_4:
.Lxtalabel41:
	.loc	1 53 0
	or r6, r6, r8
	.loc	1 53 0
	stw r6, r0[8]
	.loc	1 54 0
	shr r8, r2, 1
.Ltmp415:
	.loc	1 52 0
	ldw r7, r11[1]
	.loc	1 52 0
	andnot r6, r7
	.loc	1 53 0
	and r9, r3, r8
	.loc	1 53 0
	mov r8, r5
	bt r9, .LBB51_6
.Ltmp416:
.Lxtalabel42:
	mov r8, r7
.Ltmp417:
.LBB51_6:
.Lxtalabel43:
	.loc	1 53 0
	or r6, r6, r8
	.loc	1 53 0
	stw r6, r0[8]
	.loc	1 54 0
	shr r8, r2, 2
	.loc	1 52 0
	ldw r7, r11[0]
	.loc	1 52 0
	andnot r6, r7
	.loc	1 53 0
	and r9, r3, r8
	.loc	1 53 0
	mov r8, r5
	bt r9, .LBB51_8
.Ltmp418:
.Lxtalabel44:
	mov r8, r7
.Ltmp419:
.LBB51_8:
.Lxtalabel45:
	.loc	1 53 0
	or r6, r6, r8
	.loc	1 53 0
	stw r6, r0[8]
	.loc	1 54 0
	shr r2, r2, 3
.Ltmp420:
	.loc	1 49 0
	sub r4, r4, 1
.Ltmp421:
	.loc	1 49 0
	ldaw r11, r11[-3]
.Lxta.loop_labels4:
	# LOOPMARKER 0
	.loc	1 49 0
	ashr r7, r4, 32
	bf r7, .LBB51_2
.Ltmp422:
.Lxtalabel46:
	.loc	1 58 18
	ldw r0, r0[7]
.Ltmp423:
	.loc	1 58 18
.Lxta.endpoint_labels7:
	out res[r0], r6
	ldc r0, 0
	out res[r1], r0
	bu .LBB51_13
.LBB51_10:
.Ltmp424:
	in r4, res[r1]
.Ltmp425:
	mkmsk r11, 2
	.loc	1 39 0
	lsu r5, r2, r11
.Ltrap_info8:
	ecallf r5
	.loc	1 39 0
	lsu r11, r3, r11
.Ltrap_info9:
	ecallf r11
	ldc r11, 12
	.loc	1 39 0
	mul r2, r2, r11
.Ltmp426:
	ldaw r11, cp[map]
	add r2, r11, r2
	.loc	1 39 0
	ldw r11, r2[r3]
	.loc	1 39 0
	ldw r2, r0[8]
	.loc	1 39 0
	andnot r2, r11
	.loc	1 41 0
	ashr r5, r4, 32
	ldc r3, 0
.Ltmp427:
	mov r4, r3
.Ltmp428:
	bt r5, .LBB51_12
.Ltmp429:
	mov r4, r11
.Ltmp430:
.LBB51_12:
	.loc	1 41 0
	or r2, r2, r4
	.loc	1 41 0
	stw r2, r0[8]
	.loc	1 43 18
	ldw r0, r0[7]
.Ltmp431:
	.loc	1 43 18
.Lxta.endpoint_labels8:
	out res[r0], r2
	out res[r1], r3
.Ltmp432:
.LBB51_13:
	outct res[r1], 1
	ldw r9, sp[0]
	ldw r8, sp[1]
	ldw r7, sp[2]
	ldw r6, sp[3]
	ldw r5, sp[4]
	ldw r4, sp[5]
	ldaw sp, sp[6]
	retsp 0
	# RETURN_REG_HOLDER
	.cc_bottom startkit_led_driver.select.0.case.0.function
	.set	startkit_led_driver.select.0.case.0.nstackwords,6
	.set	startkit_led_driver.select.0.case.0.maxcores,1
	.set	startkit_led_driver.select.0.case.0.maxtimers,0
	.set	startkit_led_driver.select.0.case.0.maxchanends,0
.Ltmp433:
	.size	startkit_led_driver.select.0.case.0, .Ltmp433-startkit_led_driver.select.0.case.0
.Lfunc_end51:
	.cfi_endproc

	.align	4
	.type	startkit_led_driver.select.yield.case.0,@function
	.cc_top startkit_led_driver.select.yield.case.0.function,startkit_led_driver.select.yield.case.0
startkit_led_driver.select.yield.case.0:
.Lfunc_begin52:
	.loc	1 34 0
	.cfi_startproc
.Lxtalabel47:
	ldw r11, sp[0]
	extsp 6
.Ltmp434:
	.cfi_def_cfa_offset 24
	stw r4, sp[5]
.Ltmp435:
	.cfi_offset 4, -4
	stw r5, sp[4]
.Ltmp436:
	.cfi_offset 5, -8
	stw r6, sp[3]
.Ltmp437:
	.cfi_offset 6, -12
	stw r7, sp[2]
.Ltmp438:
	.cfi_offset 7, -16
	stw r8, sp[1]
.Ltmp439:
	.cfi_offset 8, -20
	stw r9, sp[0]
.Ltmp440:
	.cfi_offset 9, -24
	mov r0, r11
.Ltmp441:
	.loc	1 34 0 prologue_end
	get r11, ed
.Ltmp442:
	zext r11, 16
.Ltmp443:
	ldw r1, r0[4]
	ldw r1, r1[r11]
	ldw r1, r1[0]
	in r2, res[r1]
	ldc r3, 254
	add r11, r2, r3
	zext r11, 8
	sub r2, r2, r11
	setd res[r1], r2
	outct res[r1], 1
	in r2, res[r1]
.Ltmp444:
	in r3, res[r1]
.Ltmp445:
	bf r11, .LBB52_10
.Ltmp446:
	mkmsk r11, 5
	.loc	1 46 0
	shr r3, r3, r11
.Ltmp447:
	ldc r4, 2
	ldaw r11, cp[map+24]
.Ltmp448:
	ldc r5, 0
.Ltmp449:
.LBB52_2:
.Lxtalabel48:
	.loc	1 52 0
	ldw r7, r11[2]
	.loc	1 52 0
	ldw r6, r0[8]
	.loc	1 52 0
	andnot r6, r7
	.loc	1 53 0
	and r9, r3, r2
	.loc	1 53 0
	mov r8, r5
	bt r9, .LBB52_4
.Ltmp450:
.Lxtalabel49:
	mov r8, r7
.Ltmp451:
.LBB52_4:
.Lxtalabel50:
	.loc	1 53 0
	or r6, r6, r8
	.loc	1 53 0
	stw r6, r0[8]
	.loc	1 54 0
	shr r8, r2, 1
.Ltmp452:
	.loc	1 52 0
	ldw r7, r11[1]
	.loc	1 52 0
	andnot r6, r7
	.loc	1 53 0
	and r9, r3, r8
	.loc	1 53 0
	mov r8, r5
	bt r9, .LBB52_6
.Ltmp453:
.Lxtalabel51:
	mov r8, r7
.Ltmp454:
.LBB52_6:
.Lxtalabel52:
	.loc	1 53 0
	or r6, r6, r8
	.loc	1 53 0
	stw r6, r0[8]
	.loc	1 54 0
	shr r8, r2, 2
	.loc	1 52 0
	ldw r7, r11[0]
	.loc	1 52 0
	andnot r6, r7
	.loc	1 53 0
	and r9, r3, r8
	.loc	1 53 0
	mov r8, r5
	bt r9, .LBB52_8
.Ltmp455:
.Lxtalabel53:
	mov r8, r7
.Ltmp456:
.LBB52_8:
.Lxtalabel54:
	.loc	1 53 0
	or r6, r6, r8
	.loc	1 53 0
	stw r6, r0[8]
	.loc	1 54 0
	shr r2, r2, 3
.Ltmp457:
	.loc	1 49 0
	sub r4, r4, 1
.Ltmp458:
	.loc	1 49 0
	ldaw r11, r11[-3]
.Lxta.loop_labels5:
	# LOOPMARKER 0
	.loc	1 49 0
	ashr r7, r4, 32
	bf r7, .LBB52_2
.Ltmp459:
.Lxtalabel55:
	.loc	1 58 18
	ldw r0, r0[7]
.Ltmp460:
	.loc	1 58 18
.Lxta.endpoint_labels9:
	out res[r0], r6
	ldc r0, 0
	out res[r1], r0
	bu .LBB52_13
.LBB52_10:
.Ltmp461:
	in r4, res[r1]
.Ltmp462:
	mkmsk r11, 2
	.loc	1 39 0
	lsu r5, r2, r11
.Ltrap_info10:
	ecallf r5
	.loc	1 39 0
	lsu r11, r3, r11
.Ltrap_info11:
	ecallf r11
	ldc r11, 12
	.loc	1 39 0
	mul r2, r2, r11
.Ltmp463:
	ldaw r11, cp[map]
	add r2, r11, r2
	.loc	1 39 0
	ldw r11, r2[r3]
	.loc	1 39 0
	ldw r2, r0[8]
	.loc	1 39 0
	andnot r2, r11
	.loc	1 41 0
	ashr r5, r4, 32
	ldc r3, 0
.Ltmp464:
	mov r4, r3
.Ltmp465:
	bt r5, .LBB52_12
.Ltmp466:
	mov r4, r11
.Ltmp467:
.LBB52_12:
	.loc	1 41 0
	or r2, r2, r4
	.loc	1 41 0
	stw r2, r0[8]
	.loc	1 43 18
	ldw r0, r0[7]
.Ltmp468:
	.loc	1 43 18
.Lxta.endpoint_labels10:
	out res[r0], r2
	out res[r1], r3
.Ltmp469:
.LBB52_13:
	outct res[r1], 1
	ldw r9, sp[0]
	ldw r8, sp[1]
	ldw r7, sp[2]
	ldw r6, sp[3]
	ldw r5, sp[4]
	ldw r4, sp[5]
	ldaw sp, sp[6]
	retsp 0
	# RETURN_REG_HOLDER
	.cc_bottom startkit_led_driver.select.yield.case.0.function
	.set	startkit_led_driver.select.yield.case.0.nstackwords,6
	.set	startkit_led_driver.select.yield.case.0.maxcores,1
	.set	startkit_led_driver.select.yield.case.0.maxtimers,0
	.set	startkit_led_driver.select.yield.case.0.maxchanends,0
.Ltmp470:
	.size	startkit_led_driver.select.yield.case.0, .Ltmp470-startkit_led_driver.select.yield.case.0
.Lfunc_end52:
	.cfi_endproc

	.align	4
	.type	startkit_led_driver.select.case.0,@function
	.cc_top startkit_led_driver.select.case.0.function,startkit_led_driver.select.case.0
startkit_led_driver.select.case.0:
.Lfunc_begin53:
	.loc	1 34 0
	.cfi_startproc
.Lxtalabel56:
	ldw r11, sp[0]
	extsp 6
.Ltmp471:
	.cfi_def_cfa_offset 24
	stw r4, sp[5]
.Ltmp472:
	.cfi_offset 4, -4
	stw r5, sp[4]
.Ltmp473:
	.cfi_offset 5, -8
	stw r6, sp[3]
.Ltmp474:
	.cfi_offset 6, -12
	stw r7, sp[2]
.Ltmp475:
	.cfi_offset 7, -16
	stw r8, sp[1]
.Ltmp476:
	.cfi_offset 8, -20
	stw r9, sp[0]
.Ltmp477:
	.cfi_offset 9, -24
	mov r0, r11
.Ltmp478:
	.loc	1 34 0 prologue_end
	get r11, ed
.Ltmp479:
	zext r11, 16
.Ltmp480:
	ldw r1, r0[4]
	ldw r1, r1[r11]
	ldw r1, r1[0]
	in r2, res[r1]
	ldc r3, 254
	add r11, r2, r3
	zext r11, 8
	sub r2, r2, r11
	setd res[r1], r2
	outct res[r1], 1
	in r2, res[r1]
.Ltmp481:
	in r3, res[r1]
.Ltmp482:
	bf r11, .LBB53_10
.Ltmp483:
	mkmsk r11, 5
	.loc	1 46 0
	shr r3, r3, r11
.Ltmp484:
	ldc r4, 2
	ldaw r11, cp[map+24]
.Ltmp485:
	ldc r5, 0
.Ltmp486:
.LBB53_2:
.Lxtalabel57:
	.loc	1 52 0
	ldw r7, r11[2]
	.loc	1 52 0
	ldw r6, r0[8]
	.loc	1 52 0
	andnot r6, r7
	.loc	1 53 0
	and r9, r3, r2
	.loc	1 53 0
	mov r8, r5
	bt r9, .LBB53_4
.Ltmp487:
.Lxtalabel58:
	mov r8, r7
.Ltmp488:
.LBB53_4:
.Lxtalabel59:
	.loc	1 53 0
	or r6, r6, r8
	.loc	1 53 0
	stw r6, r0[8]
	.loc	1 54 0
	shr r8, r2, 1
.Ltmp489:
	.loc	1 52 0
	ldw r7, r11[1]
	.loc	1 52 0
	andnot r6, r7
	.loc	1 53 0
	and r9, r3, r8
	.loc	1 53 0
	mov r8, r5
	bt r9, .LBB53_6
.Ltmp490:
.Lxtalabel60:
	mov r8, r7
.Ltmp491:
.LBB53_6:
.Lxtalabel61:
	.loc	1 53 0
	or r6, r6, r8
	.loc	1 53 0
	stw r6, r0[8]
	.loc	1 54 0
	shr r8, r2, 2
	.loc	1 52 0
	ldw r7, r11[0]
	.loc	1 52 0
	andnot r6, r7
	.loc	1 53 0
	and r9, r3, r8
	.loc	1 53 0
	mov r8, r5
	bt r9, .LBB53_8
.Ltmp492:
.Lxtalabel62:
	mov r8, r7
.Ltmp493:
.LBB53_8:
.Lxtalabel63:
	.loc	1 53 0
	or r6, r6, r8
	.loc	1 53 0
	stw r6, r0[8]
	.loc	1 54 0
	shr r2, r2, 3
.Ltmp494:
	.loc	1 49 0
	sub r4, r4, 1
.Ltmp495:
	.loc	1 49 0
	ldaw r11, r11[-3]
.Lxta.loop_labels6:
	# LOOPMARKER 0
	.loc	1 49 0
	ashr r7, r4, 32
	bf r7, .LBB53_2
.Ltmp496:
.Lxtalabel64:
	.loc	1 58 18
	ldw r0, r0[7]
.Ltmp497:
	.loc	1 58 18
.Lxta.endpoint_labels11:
	out res[r0], r6
	ldc r0, 0
	out res[r1], r0
	bu .LBB53_13
.LBB53_10:
.Ltmp498:
	in r4, res[r1]
.Ltmp499:
	mkmsk r11, 2
	.loc	1 39 0
	lsu r5, r2, r11
.Ltrap_info12:
	ecallf r5
	.loc	1 39 0
	lsu r11, r3, r11
.Ltrap_info13:
	ecallf r11
	ldc r11, 12
	.loc	1 39 0
	mul r2, r2, r11
.Ltmp500:
	ldaw r11, cp[map]
	add r2, r11, r2
	.loc	1 39 0
	ldw r11, r2[r3]
	.loc	1 39 0
	ldw r2, r0[8]
	.loc	1 39 0
	andnot r2, r11
	.loc	1 41 0
	ashr r5, r4, 32
	ldc r3, 0
.Ltmp501:
	mov r4, r3
.Ltmp502:
	bt r5, .LBB53_12
.Ltmp503:
	mov r4, r11
.Ltmp504:
.LBB53_12:
	.loc	1 41 0
	or r2, r2, r4
	.loc	1 41 0
	stw r2, r0[8]
	.loc	1 43 18
	ldw r0, r0[7]
.Ltmp505:
	.loc	1 43 18
.Lxta.endpoint_labels12:
	out res[r0], r2
	out res[r1], r3
.Ltmp506:
.LBB53_13:
	outct res[r1], 1
	ldw r9, sp[0]
	ldw r8, sp[1]
	ldw r7, sp[2]
	ldw r6, sp[3]
	ldw r5, sp[4]
	ldw r4, sp[5]
	ldaw sp, sp[6]
	retsp 0
	# RETURN_REG_HOLDER
	.cc_bottom startkit_led_driver.select.case.0.function
	.set	startkit_led_driver.select.case.0.nstackwords,6
	.set	startkit_led_driver.select.case.0.maxcores,1
	.set	startkit_led_driver.select.case.0.maxtimers,0
	.set	startkit_led_driver.select.case.0.maxchanends,0
.Ltmp507:
	.size	startkit_led_driver.select.case.0, .Ltmp507-startkit_led_driver.select.case.0
.Lfunc_end53:
	.cfi_endproc

	.section	.cp.rodata.cst4,"aMc",@progbits,4
	.cc_top .LCPI54_0.data,.LCPI54_0
	.align	4
	.type	.LCPI54_0,@object
	.size	.LCPI54_0, 4
.LCPI54_0:
	.long	2419607531
	.cc_bottom .LCPI54_0.data
	.text
	.globl	startkit_gpio_driver_aux
	.align	4
	.type	startkit_gpio_driver_aux,@function
	.cc_top startkit_gpio_driver_aux.function,startkit_gpio_driver_aux
startkit_gpio_driver_aux:
.Lfunc_begin54:
	.loc	1 74 0
	.cfi_startproc
.Lxtalabel65:
	entsp 29
.Ltmp508:
	.cfi_def_cfa_offset 116
.Ltmp509:
	.cfi_offset 15, 0
	stw r4, sp[28]
.Ltmp510:
	.cfi_offset 4, -4
	stw r5, sp[27]
.Ltmp511:
	.cfi_offset 5, -8
	stw r6, sp[26]
.Ltmp512:
	.cfi_offset 6, -12
	stw r7, sp[25]
.Ltmp513:
	.cfi_offset 7, -16
	stw r8, sp[24]
.Ltmp514:
	.cfi_offset 8, -20
	stw r9, sp[23]
.Ltmp515:
	.cfi_offset 9, -24
	stw r10, sp[22]
.Ltmp516:
	.cfi_offset 10, -28
	mov r7, r3
.Ltmp517:
	mov r5, r2
.Ltmp518:
	mov r6, r1
.Ltmp519:
	stw r6, sp[6]
	mov r4, r0
.Ltmp520:
	stw r4, sp[9]
	ldaw r0, sp[13]
	ldc r9, 0
	ldc r2, 36
	.loc	1 84 0 prologue_end
.Ltmp521:
	mov r1, r9
	bl memset
	.loc	1 92 0
.Ltmp522:
	get r11, id
.Ltmp523:
	.loc	1 92 0
	ldaw r0, dp[__timers]
	.loc	1 92 0
	ldw r8, r0[r11]
	.loc	1 92 0
	setc res[r8], 1
	.loc	1 92 0
.Lxta.endpoint_labels13:
	in r0, res[r8]
.Ltmp524:
	stw r0, sp[12]
	mkmsk r0, 1
	ldc r1, 50
	stw r1, sp[5]
	mkmsk r10, 2
	stw r9, sp[8]
	stw r9, sp[4]
	stw r9, sp[11]
	stw r9, sp[10]
	stw r0, sp[7]
	bu .LBB54_1
.Ltmp525:
.LBB54_43:
.Lxtalabel66:
	out res[r0], r1
	outct res[r0], 1
.LBB54_1:
.Lxtalabel67:
.Ltmp526:
	clre
	ldw r0, sp[12]
	setd res[r8], r0
	setc res[r8], 9
	ldap r11, .Ltmp527
	setv res[r8], r11
	eeu res[r8]
	bf r6, .LBB54_3
.Ltmp528:
	ldw r0, r6[0]
	ldap r11, .Ltmp529
	setv res[r0], r11
	eeu res[r0]
.Ltmp530:
.LBB54_3:
	bf r4, .LBB54_5
.Ltmp531:
	ldw r0, r4[0]
	ldap r11, .Ltmp532
	setv res[r0], r11
	eeu res[r0]
.Ltmp533:
.LBB54_5:
	bf r5, .LBB54_7
.Ltmp534:
	ldw r0, r5[0]
	ldap r11, .Ltmp535
	setv res[r0], r11
	eeu res[r0]
.Ltmp536:
.LBB54_7:
	bf r7, .LBB54_9
.Ltmp537:
	ldw r0, r7[0]
	ldap r11, .Ltmp538
	setv res[r0], r11
	eeu res[r0]
.Ltmp539:
.LBB54_9:

	.xtabranch .LBB54_10, .LBB54_40, .LBB54_44, .LBB54_55, .LBB54_60
	waiteu
.Ltmp540:
.Ltmp527:
.LBB54_10:
.Lxtalabel68:
	.loc	1 99 0
.Lxta.endpoint_labels14:
	in r0, res[r8]
	ldw r2, sp[10]
.Ltmp541:
	.loc	1 100 0
	add r2, r2, 1
.Ltmp542:
	ldc r0, 100
	.loc	1 101 7
	eq r0, r2, r0
	.loc	1 101 7
	bf r0, .LBB54_11
.Ltmp543:
.Lxtalabel69:
	ldw r0, sp[30]
	mov r1, r0
.Ltmp544:
	.loc	1 104 0
	setc res[r1], 1
	.loc	1 104 0
.Lxta.endpoint_labels15:
	in r0, res[r1]
.Ltmp545:
	.loc	1 105 0
	setc res[r8], 1
	.loc	1 105 0
.Lxta.endpoint_labels16:
	in r0, res[r8]
.Ltmp546:
	.loc	1 106 0
	add r0, r0, 10
.Ltmp547:
	.loc	1 106 0
	setd res[r8], r0
	.loc	1 106 0
	setc res[r8], 9
	.loc	1 106 0
.Ltmp548:
.Lxta.endpoint_labels17:
	in r0, res[r8]
	.loc	1 107 0
.Lxta.endpoint_labels18:
	in r1, res[r1]
.Ltmp549:
	.loc	1 108 9
	bf r6, .LBB54_13
.Ltmp550:
.Lxtalabel70:
	ldc r0, 49
	ldw r2, sp[5]
	.loc	1 109 11
	lss r0, r0, r2
	.loc	1 109 11
	bf r0, .LBB54_65
.Ltmp551:
.Lxtalabel71:
	mkmsk r0, 1
	.loc	1 113 0
.Ltmp552:
	andnot r0, r1
.Ltmp553:
	.loc	1 116 13
	ldw r1, sp[7]
.Ltmp554:
	eq r1, r0, r1
	bt r1, .LBB54_14
.Ltmp555:
.Lxtalabel72:
	.loc	1 117 0
	ldw r1, r6[4]
	.loc	1 117 0
	bf r1, .LBB54_29
.Ltmp556:
	.loc	1 117 0
	ldw r1, r6[2]
	.loc	1 117 0
	ldw r2, r6[3]
	.loc	1 117 0
	#APP
	getd r3, res[r1]
	#NO_APP
	.loc	1 117 0
	setd res[r1], r2
	.loc	1 117 0
	outct res[r1], 1
	.loc	1 117 0
	setd res[r1], r3
	.loc	1 117 0
	stw r9, r6[4]
.Ltmp557:
.LBB54_29:
	mov r2, r9
	stw r0, sp[7]
	bu .LBB54_14
.Ltmp558:
.Ltmp529:
.LBB54_40:
.Lxtalabel73:
	ldw r0, r6[0]
	in r1, res[r0]
	ldc r2, 254
	add r2, r1, r2
	zext r2, 8
	sub r1, r1, r2
	setd res[r0], r1
.Ltrap_info14:
	ecallf r0
	outct res[r0], 1
	in r1, res[r0]
	ldw r2, r6[4]
	eq r1, r2, r1
	bt r1, .LBB54_42
.Ltmp559:
	ldw r1, r6[2]
	ldw r2, r6[3]
	#APP
	getd r3, res[r1]
	#NO_APP
	setd res[r1], r2
	outct res[r1], 1
	setd res[r1], r3
.Ltmp560:
.LBB54_42:
	mkmsk r1, 1
	stw r1, r6[4]
	out res[r0], r9
	ldw r1, sp[7]
	bu .LBB54_43
.Ltmp561:
.Ltmp532:
.LBB54_44:
.Lxtalabel74:
	ldw r0, r4[0]
	in r1, res[r0]
	ldc r2, 254
	add r2, r1, r2
	zext r2, 8
	sub r1, r1, r2
	setd res[r0], r1
	bf r2, .LBB54_45
.Ltmp562:
	mov r6, r5
.Ltmp563:
	mov r5, r7
.Ltmp564:
.Ltrap_info15:
	ecallf r0
	outct res[r0], 1
	in r1, res[r0]
.Ltmp565:
	in r2, res[r0]
.Ltmp566:
	ldw r3, cp[.LCPI54_0]
	.loc	1 181 0
	lmul r3, r11, r2, r3, r9, r9
	sub r2, r2, r3
.Ltmp567:
	shr r2, r2, 1
	add r2, r2, r3
	ldc r3, 9
	shr r7, r2, r3
.Ltmp568:
	ldaw r3, sp[19]
	ldc r11, 2
.Ltmp569:
.LBB54_47:
.Lxtalabel75:
	.loc	1 186 0
	mov r4, r1
	zext r4, 1
	.loc	1 186 0
	mov r2, r7
	bt r4, .LBB54_49
.Ltmp570:
.Lxtalabel76:
	mov r2, r9
.Ltmp571:
.LBB54_49:
.Lxtalabel77:
	.loc	1 186 0
	stw r2, r3[2]
	.loc	1 187 0
	shr r4, r1, 1
.Ltmp572:
	.loc	1 186 0
	zext r4, 1
	.loc	1 186 0
	mov r2, r7
	bt r4, .LBB54_51
.Ltmp573:
.Lxtalabel78:
	mov r2, r9
.Ltmp574:
.LBB54_51:
.Lxtalabel79:
	.loc	1 186 0
	stw r2, r3[1]
	.loc	1 187 0
	shr r4, r1, 2
	.loc	1 186 0
	zext r4, 1
	.loc	1 186 0
	mov r2, r7
	bt r4, .LBB54_53
.Ltmp575:
.Lxtalabel80:
	mov r2, r9
.Ltmp576:
.LBB54_53:
.Lxtalabel81:
	.loc	1 186 0
	stw r2, r3[0]
	.loc	1 187 0
	shr r1, r1, 3
.Ltmp577:
	.loc	1 184 0
	sub r11, r11, 1
.Ltmp578:
	.loc	1 184 0
	ldaw r3, r3[-3]
.Lxta.loop_labels7:
	# LOOPMARKER 0
	.loc	1 184 0
	ashr r2, r11, 32
	bf r2, .LBB54_47
.Ltmp579:
.Lxtalabel82:
	out res[r0], r9
	outct res[r0], 1
	mov r7, r5
.Ltmp580:
	mov r5, r6
.Ltmp581:
	ldw r6, sp[6]
.Ltmp582:
	ldw r4, sp[9]
.Ltmp583:
	bu .LBB54_1
.Ltmp584:
.Ltmp535:
.LBB54_55:
.Lxtalabel83:
	ldw r0, r5[0]
	in r1, res[r0]
	ldc r2, 254
	add r2, r1, r2
	zext r2, 8
	sub r1, r1, r2
	setd res[r0], r1
	eq r1, r2, 1
	bf r1, .LBB54_57
.Ltmp585:
	ldw r0, sp[31]
	mov r1, r0
.Ltmp586:
	.loc	1 192 0
	ldw r0, r1[0]
	.loc	1 192 0
	ldw r1, r1[1]
.Ltmp587:
	.loc	1 192 0
	ldw r1, r1[1]
	.loc	1 192 0
.Lxta.call_labels14:
	bla r1
.Ltmp588:
	ldw r1, r5[0]
	out res[r1], r9
	out res[r1], r0
.Ltrap_info16:
	ecallf r1
	outct res[r1], 1
	bu .LBB54_1
.Ltmp589:
.Ltmp538:
.LBB54_60:
.Lxtalabel84:
	ldw r0, r7[0]
	in r1, res[r0]
	ldc r2, 254
	add r2, r1, r2
	zext r2, 8
	sub r1, r1, r2
	setd res[r0], r1
	eq r1, r2, 1
	bf r1, .LBB54_62
.Ltmp590:
	ldw r0, sp[32]
	mov r1, r0
.Ltmp591:
	.loc	1 198 0
	ldw r0, r1[0]
	.loc	1 198 0
	ldw r1, r1[1]
.Ltmp592:
	.loc	1 198 0
	ldw r1, r1[1]
	.loc	1 198 0
.Lxta.call_labels15:
	bla r1
.Ltmp593:
	ldw r1, r7[0]
	out res[r1], r9
	out res[r1], r0
.Ltrap_info17:
	ecallf r1
	outct res[r1], 1
	bu .LBB54_1
.Ltmp594:
.LBB54_11:
	mov r0, r7
.Ltmp595:
	bu .LBB54_17
.Ltmp596:
.LBB54_57:
.Ltrap_info18:
	ecallf r0
	outct res[r0], 1
	in r1, res[r0]
	ldw r2, r5[4]
	eq r1, r2, r1
	bt r1, .LBB54_59
.Ltmp597:
	ldw r1, r5[2]
	ldw r2, r5[3]
	#APP
	getd r3, res[r1]
	#NO_APP
	setd res[r1], r2
	outct res[r1], 1
	setd res[r1], r3
.Ltmp598:
.LBB54_59:
	mkmsk r1, 1
	stw r1, r5[4]
	out res[r0], r9
	ldw r1, sp[11]
	bu .LBB54_43
.Ltmp599:
.LBB54_62:
.Ltrap_info19:
	ecallf r0
	outct res[r0], 1
	in r1, res[r0]
	ldw r2, r7[4]
	eq r1, r2, r1
	bt r1, .LBB54_64
.Ltmp600:
	ldw r1, r7[2]
	ldw r2, r7[3]
	#APP
	getd r3, res[r1]
	#NO_APP
	setd res[r1], r2
	outct res[r1], 1
	setd res[r1], r3
.Ltmp601:
.LBB54_64:
	mkmsk r1, 1
	stw r1, r7[4]
	out res[r0], r9
	ldw r1, sp[4]
	bu .LBB54_43
.Ltmp602:
.LBB54_45:
.Ltrap_info20:
	ecallf r0
	mov r6, r5
.Ltmp603:
	outct res[r0], 1
	in r3, res[r0]
.Ltmp604:
	in r1, res[r0]
.Ltmp605:
	in r2, res[r0]
.Ltmp606:
	.loc	1 174 0
	lsu r11, r3, r10
.Ltrap_info21:
	ecallf r11
	mov r5, r4
.Ltmp607:
	.loc	1 174 0
	lsu r11, r1, r10
.Ltrap_info22:
	ecallf r11
	ldc r11, 12
	.loc	1 174 0
	mul r3, r3, r11
.Ltmp608:
	ldaw r11, sp[13]
	add r3, r11, r3
	ldw r11, cp[.LCPI54_0]
	.loc	1 174 0
	lmul r11, r4, r2, r11, r9, r9
	sub r2, r2, r11
.Ltmp609:
	shr r2, r2, 1
	add r2, r2, r11
	ldc r11, 9
	shr r2, r2, r11
	.loc	1 174 0
	stw r2, r3[r1]
	out res[r0], r9
	outct res[r0], 1
	mov r4, r5
.Ltmp610:
	mov r5, r6
.Ltmp611:
	ldw r6, sp[6]
.Ltmp612:
	bu .LBB54_1
.Ltmp613:
.LBB54_13:
	ldw r2, sp[5]
	bu .LBB54_14
.Ltmp614:
.LBB54_65:
.Lxtalabel85:
	.loc	1 123 0
	add r2, r2, 1
.Ltmp615:
.LBB54_14:
.Lxtalabel86:
	.loc	1 126 9
	ldw r0, sp[8]
	bf r0, .LBB54_31
.Ltmp616:
.Lxtalabel87:
	stw r2, sp[5]
	bf r5, .LBB54_16
.Ltmp617:
.Lxtalabel88:
	ldw r0, sp[31]
	mov r1, r0
.Ltmp618:
	.loc	1 128 0
	ldw r0, r1[0]
	.loc	1 128 0
	ldw r1, r1[1]
.Ltmp619:
	.loc	1 128 0
	ldw r1, r1[0]
	.loc	1 128 0
.Lxta.call_labels16:
	bla r1
.Ltmp620:
	ldw r2, sp[11]
	.loc	1 129 13
	eq r1, r0, r2
	.loc	1 129 13
	bf r1, .LBB54_37
.Ltmp621:
	stw r2, sp[11]
	bu .LBB54_16
.Ltmp622:
.LBB54_31:
.Lxtalabel89:
	stw r2, sp[5]
	bf r7, .LBB54_16
.Ltmp623:
.Lxtalabel90:
	ldw r0, sp[32]
	mov r1, r0
.Ltmp624:
	.loc	1 136 0
	ldw r0, r1[0]
	.loc	1 136 0
	ldw r1, r1[1]
.Ltmp625:
	.loc	1 136 0
	ldw r1, r1[0]
	.loc	1 136 0
.Lxta.call_labels17:
	bla r1
.Ltmp626:
	.loc	1 137 13
	ldw r1, sp[4]
	eq r1, r0, r1
	bt r1, .LBB54_16
.Ltmp627:
.Lxtalabel91:
	.loc	1 139 0
	ldw r1, r7[4]
	bf r1, .LBB54_34
.Ltmp628:
	.loc	1 139 0
	ldw r1, r7[2]
	.loc	1 139 0
	ldw r2, r7[3]
	.loc	1 139 0
	#APP
	getd r3, res[r1]
	#NO_APP
	.loc	1 139 0
	setd res[r1], r2
	.loc	1 139 0
	outct res[r1], 1
	.loc	1 139 0
	setd res[r1], r3
	.loc	1 139 0
	stw r9, r7[4]
	stw r0, sp[4]
.Ltmp629:
	bu .LBB54_16
.Ltmp630:
.LBB54_37:
.Lxtalabel92:
	stw r0, sp[11]
.Ltmp631:
	.loc	1 131 0
	ldw r1, r5[4]
	bf r1, .LBB54_16
.Ltmp632:
	.loc	1 131 0
	ldw r1, r5[2]
	.loc	1 131 0
	ldw r2, r5[3]
	.loc	1 131 0
	#APP
	getd r3, res[r1]
	#NO_APP
	.loc	1 131 0
	setd res[r1], r2
	.loc	1 131 0
	outct res[r1], 1
	.loc	1 131 0
	setd res[r1], r3
	.loc	1 131 0
	stw r9, r5[4]
	bu .LBB54_16
.Ltmp633:
.LBB54_34:
	stw r0, sp[4]
.Ltmp634:
.LBB54_16:
.Lxtalabel93:
	mov r0, r7
.Ltmp635:
	.loc	1 143 0
	ldw r1, sp[8]
	not r1, r1
.Ltmp636:
	stw r1, sp[8]
	mov r2, r9
.Ltmp637:
.LBB54_17:
.Lxtalabel94:
	stw r2, sp[10]
	ldc r1, 100
	.loc	1 153 11
.Ltmp638:
	sub r1, r1, r2
	ldaw r11, cp[map]
	ldaw r2, sp[13]
	mov r7, r9
	mkmsk r3, 32
.Ltmp639:
.LBB54_18:
.Lxtalabel95:
	.loc	1 153 11
	ldw r4, r2[0]
	.loc	1 153 11
	lss r4, r1, r4
	bf r4, .LBB54_20
.Ltmp640:
.Lxtalabel96:
	.loc	1 154 0
	ldw r4, r11[0]
	.loc	1 154 0
	andnot r3, r4
.Ltmp641:
.LBB54_20:
.Lxtalabel97:
	.loc	1 153 11
	ldw r4, r2[1]
	.loc	1 153 11
	lss r4, r1, r4
	bf r4, .LBB54_22
.Ltmp642:
.Lxtalabel98:
	.loc	1 154 0
	ldw r4, r11[1]
	.loc	1 154 0
	andnot r3, r4
.Ltmp643:
.LBB54_22:
.Lxtalabel99:
	.loc	1 153 11
	ldw r4, r2[2]
	.loc	1 153 11
	lss r4, r1, r4
	bf r4, .LBB54_24
.Ltmp644:
.Lxtalabel100:
	.loc	1 154 0
	ldw r4, r11[2]
	.loc	1 154 0
	andnot r3, r4
.Ltmp645:
.LBB54_24:
.Lxtalabel101:
	.loc	1 149 0
	add r7, r7, 1
.Ltmp646:
	.loc	1 149 0
	ldaw r11, r11[3]
	.loc	1 149 0
	ldaw r2, r2[3]
	.loc	1 149 0
	lss r4, r7, r10
.Lxta.loop_labels8:
	# LOOPMARKER 1
	bt r4, .LBB54_18
.Ltmp647:
.Lxtalabel102:
	ldw r1, sp[30]
	.loc	1 159 18
.Lxta.endpoint_labels19:
	out res[r1], r3
	.loc	1 161 0
	setc res[r8], 1
	.loc	1 161 0
.Lxta.endpoint_labels20:
	in r1, res[r8]
.Ltmp648:
	ldc r2, 1000
	.loc	1 162 0
	add r1, r1, r2
.Ltmp649:
	stw r1, sp[12]
	mov r7, r0
.Ltmp650:
	ldw r4, sp[9]
.Ltmp651:
	bu .LBB54_1
.Ltmp652:
	.cc_bottom startkit_gpio_driver_aux.function
	.set	startkit_gpio_driver_aux.nstackwords,((memset.nstackwords $M _i.slider_query_if.filter.max.nstackwords $M _i.slider_query_if.get_coord.max.nstackwords) + 29)
	.globl	startkit_gpio_driver_aux.nstackwords
	.set	startkit_gpio_driver_aux.maxcores,_i.slider_query_if.filter.max.maxcores $M _i.slider_query_if.get_coord.max.maxcores $M 1
	.globl	startkit_gpio_driver_aux.maxcores
	.set	startkit_gpio_driver_aux.maxtimers,_i.slider_query_if.filter.max.maxtimers $M _i.slider_query_if.get_coord.max.maxtimers $M 0
	.globl	startkit_gpio_driver_aux.maxtimers
	.set	startkit_gpio_driver_aux.maxchanends,_i.slider_query_if.filter.max.maxchanends $M _i.slider_query_if.get_coord.max.maxchanends $M 0
	.globl	startkit_gpio_driver_aux.maxchanends
.Ltmp653:
	.size	startkit_gpio_driver_aux, .Ltmp653-startkit_gpio_driver_aux
.Lfunc_end54:
	.cfi_endproc

	.globl	startkit_gpio_driver_aux.select.0.enable
	.align	4
	.type	startkit_gpio_driver_aux.select.0.enable,@function
	.cc_top startkit_gpio_driver_aux.select.0.enable.function,startkit_gpio_driver_aux.select.0.enable
startkit_gpio_driver_aux.select.0.enable:
	.cfi_startproc
	entsp 2
.Ltmp654:
	.cfi_def_cfa_offset 8
.Ltmp655:
	.cfi_offset 15, 0
	stw r4, sp[1]
.Ltmp656:
	.cfi_offset 4, -4
	mov r4, r0
	bl startkit_gpio_driver_aux.init.1
	ldw r0, r4[0]
	bf r0, .LBB55_1
	ldw r1, r4[2]
	mkmsk r0, 1
	bf r1, .LBB55_5
	ldw r1, r1[0]
	bf r1, .LBB55_5
	ldap r11, startkit_gpio_driver_aux.select.0.case.0
	setv res[r1], r11
	mov r11, r4
	setev res[r1], r11
	eeu res[r1]
	bu .LBB55_5
.LBB55_1:
	ldc r0, 0
.LBB55_5:
	ldw r4, sp[1]
	retsp 2
	# RETURN_REG_HOLDER
	.cc_bottom startkit_gpio_driver_aux.select.0.enable.function
	.set	startkit_gpio_driver_aux.select.0.enable.nstackwords,(startkit_gpio_driver_aux.init.1.nstackwords + 2)
	.globl	startkit_gpio_driver_aux.select.0.enable.nstackwords
	.set	startkit_gpio_driver_aux.select.0.enable.maxcores,startkit_gpio_driver_aux.init.1.maxcores $M 1
	.globl	startkit_gpio_driver_aux.select.0.enable.maxcores
	.set	startkit_gpio_driver_aux.select.0.enable.maxtimers,startkit_gpio_driver_aux.init.1.maxtimers $M 0
	.globl	startkit_gpio_driver_aux.select.0.enable.maxtimers
	.set	startkit_gpio_driver_aux.select.0.enable.maxchanends,startkit_gpio_driver_aux.init.1.maxchanends $M 0
	.globl	startkit_gpio_driver_aux.select.0.enable.maxchanends
.Ltmp657:
	.size	startkit_gpio_driver_aux.select.0.enable, .Ltmp657-startkit_gpio_driver_aux.select.0.enable
	.cfi_endproc

	.globl	startkit_gpio_driver_aux.select.1.enable
	.align	4
	.type	startkit_gpio_driver_aux.select.1.enable,@function
	.cc_top startkit_gpio_driver_aux.select.1.enable.function,startkit_gpio_driver_aux.select.1.enable
startkit_gpio_driver_aux.select.1.enable:
	.cfi_startproc
	entsp 2
.Ltmp658:
	.cfi_def_cfa_offset 8
.Ltmp659:
	.cfi_offset 15, 0
	stw r4, sp[1]
.Ltmp660:
	.cfi_offset 4, -4
	mov r4, r0
	bl startkit_gpio_driver_aux.init.1
	ldw r0, r4[0]
	bf r0, .LBB56_1
	ldw r1, r4[3]
	mkmsk r0, 1
	bf r1, .LBB56_5
	ldw r1, r1[0]
	bf r1, .LBB56_5
	ldap r11, startkit_gpio_driver_aux.select.1.case.0
	setv res[r1], r11
	mov r11, r4
	setev res[r1], r11
	eeu res[r1]
	bu .LBB56_5
.LBB56_1:
	ldc r0, 0
.LBB56_5:
	ldw r4, sp[1]
	retsp 2
	# RETURN_REG_HOLDER
	.cc_bottom startkit_gpio_driver_aux.select.1.enable.function
	.set	startkit_gpio_driver_aux.select.1.enable.nstackwords,(startkit_gpio_driver_aux.init.1.nstackwords + 2)
	.globl	startkit_gpio_driver_aux.select.1.enable.nstackwords
	.set	startkit_gpio_driver_aux.select.1.enable.maxcores,startkit_gpio_driver_aux.init.1.maxcores $M 1
	.globl	startkit_gpio_driver_aux.select.1.enable.maxcores
	.set	startkit_gpio_driver_aux.select.1.enable.maxtimers,startkit_gpio_driver_aux.init.1.maxtimers $M 0
	.globl	startkit_gpio_driver_aux.select.1.enable.maxtimers
	.set	startkit_gpio_driver_aux.select.1.enable.maxchanends,startkit_gpio_driver_aux.init.1.maxchanends $M 0
	.globl	startkit_gpio_driver_aux.select.1.enable.maxchanends
.Ltmp661:
	.size	startkit_gpio_driver_aux.select.1.enable, .Ltmp661-startkit_gpio_driver_aux.select.1.enable
	.cfi_endproc

	.globl	startkit_gpio_driver_aux.select.2.enable
	.align	4
	.type	startkit_gpio_driver_aux.select.2.enable,@function
	.cc_top startkit_gpio_driver_aux.select.2.enable.function,startkit_gpio_driver_aux.select.2.enable
startkit_gpio_driver_aux.select.2.enable:
	.cfi_startproc
	entsp 2
.Ltmp662:
	.cfi_def_cfa_offset 8
.Ltmp663:
	.cfi_offset 15, 0
	stw r4, sp[1]
.Ltmp664:
	.cfi_offset 4, -4
	mov r4, r0
	bl startkit_gpio_driver_aux.init.1
	ldw r0, r4[0]
	bf r0, .LBB57_1
	ldw r1, r4[4]
	mkmsk r0, 1
	bf r1, .LBB57_5
	ldw r1, r1[0]
	bf r1, .LBB57_5
	ldap r11, startkit_gpio_driver_aux.select.2.case.0
	setv res[r1], r11
	mov r11, r4
	setev res[r1], r11
	eeu res[r1]
	bu .LBB57_5
.LBB57_1:
	ldc r0, 0
.LBB57_5:
	ldw r4, sp[1]
	retsp 2
	# RETURN_REG_HOLDER
	.cc_bottom startkit_gpio_driver_aux.select.2.enable.function
	.set	startkit_gpio_driver_aux.select.2.enable.nstackwords,(startkit_gpio_driver_aux.init.1.nstackwords + 2)
	.globl	startkit_gpio_driver_aux.select.2.enable.nstackwords
	.set	startkit_gpio_driver_aux.select.2.enable.maxcores,startkit_gpio_driver_aux.init.1.maxcores $M 1
	.globl	startkit_gpio_driver_aux.select.2.enable.maxcores
	.set	startkit_gpio_driver_aux.select.2.enable.maxtimers,startkit_gpio_driver_aux.init.1.maxtimers $M 0
	.globl	startkit_gpio_driver_aux.select.2.enable.maxtimers
	.set	startkit_gpio_driver_aux.select.2.enable.maxchanends,startkit_gpio_driver_aux.init.1.maxchanends $M 0
	.globl	startkit_gpio_driver_aux.select.2.enable.maxchanends
.Ltmp665:
	.size	startkit_gpio_driver_aux.select.2.enable, .Ltmp665-startkit_gpio_driver_aux.select.2.enable
	.cfi_endproc

	.globl	startkit_gpio_driver_aux.select.3.enable
	.align	4
	.type	startkit_gpio_driver_aux.select.3.enable,@function
	.cc_top startkit_gpio_driver_aux.select.3.enable.function,startkit_gpio_driver_aux.select.3.enable
startkit_gpio_driver_aux.select.3.enable:
	.cfi_startproc
	entsp 2
.Ltmp666:
	.cfi_def_cfa_offset 8
.Ltmp667:
	.cfi_offset 15, 0
	stw r4, sp[1]
.Ltmp668:
	.cfi_offset 4, -4
	mov r4, r0
	bl startkit_gpio_driver_aux.init.1
	ldw r0, r4[0]
	bf r0, .LBB58_1
	ldw r1, r4[5]
	mkmsk r0, 1
	bf r1, .LBB58_5
	ldw r1, r1[0]
	bf r1, .LBB58_5
	ldap r11, startkit_gpio_driver_aux.select.3.case.0
	setv res[r1], r11
	mov r11, r4
	setev res[r1], r11
	eeu res[r1]
	bu .LBB58_5
.LBB58_1:
	ldc r0, 0
.LBB58_5:
	ldw r4, sp[1]
	retsp 2
	# RETURN_REG_HOLDER
	.cc_bottom startkit_gpio_driver_aux.select.3.enable.function
	.set	startkit_gpio_driver_aux.select.3.enable.nstackwords,(startkit_gpio_driver_aux.init.1.nstackwords + 2)
	.globl	startkit_gpio_driver_aux.select.3.enable.nstackwords
	.set	startkit_gpio_driver_aux.select.3.enable.maxcores,startkit_gpio_driver_aux.init.1.maxcores $M 1
	.globl	startkit_gpio_driver_aux.select.3.enable.maxcores
	.set	startkit_gpio_driver_aux.select.3.enable.maxtimers,startkit_gpio_driver_aux.init.1.maxtimers $M 0
	.globl	startkit_gpio_driver_aux.select.3.enable.maxtimers
	.set	startkit_gpio_driver_aux.select.3.enable.maxchanends,startkit_gpio_driver_aux.init.1.maxchanends $M 0
	.globl	startkit_gpio_driver_aux.select.3.enable.maxchanends
.Ltmp669:
	.size	startkit_gpio_driver_aux.select.3.enable, .Ltmp669-startkit_gpio_driver_aux.select.3.enable
	.cfi_endproc

	.section	.cp.rodata.cst4,"aMc",@progbits,4
	.cc_top .LCPI59_0.data,.LCPI59_0
	.align	4
	.type	.LCPI59_0,@object
	.size	.LCPI59_0, 4
.LCPI59_0:
	.long	500000
	.cc_bottom .LCPI59_0.data
	.text
	.globl	startkit_gpio_driver_aux.init.1
	.align	4
	.type	startkit_gpio_driver_aux.init.1,@function
	.cc_top startkit_gpio_driver_aux.init.1.function,startkit_gpio_driver_aux.init.1
startkit_gpio_driver_aux.init.1:
.Lfunc_begin59:
	.loc	2 0 0
	.cfi_startproc
	entsp 5
.Ltmp670:
	.cfi_def_cfa_offset 20
.Ltmp671:
	.cfi_offset 15, 0
	stw r4, sp[4]
.Ltmp672:
	.cfi_offset 4, -4
	stw r5, sp[3]
.Ltmp673:
	.cfi_offset 5, -8
	stw r6, sp[2]
.Ltmp674:
	.cfi_offset 6, -12
	stw r7, sp[1]
.Ltmp675:
	.cfi_offset 7, -16
	mov r4, r0
.Ltmp676:
	ldw r0, r4[1]
	bf r0, .LBB59_2
.Ltmp677:
	ldc r5, 0
	stw r5, r4[1]
	mkmsk r6, 1
	.loc	1 75 0 prologue_end
.Ltmp678:
	stw r6, r4[9]
	ldc r0, 1000
.Ltmp679:
	.loc	1 79 0
	stw r0, r4[10]
	.loc	1 81 0
.Ltmp680:
	ldaw r0, r4[11]
	ldc r1, 92
	.loc	1 87 0
.Ltmp681:
	add r7, r4, r1
	ldc r2, 48
.Ltmp682:
	.loc	1 84 0
	mov r1, r5
	bl memset
	ldw r0, cp[.LCPI59_0]
	.loc	1 87 0
.Ltmp683:
	stw r0, r7[0]
	ldc r1, 100
	.loc	1 90 0
.Ltmp684:
	add r1, r4, r1
	.loc	1 90 0
	stw r5, r1[0]
	.loc	1 92 0
.Ltmp685:
	get r11, id
	.loc	1 92 0
	ldaw r1, dp[__timers]
	.loc	1 92 0
	ldw r1, r1[r11]
	.loc	1 92 0
	setc res[r1], 1
	ldc r2, 104
	.loc	1 92 0
	add r2, r4, r2
	.loc	1 92 0
.Lxta.endpoint_labels21:
	in r1, res[r1]
	.loc	1 92 0
	stw r1, r2[0]
	ldc r2, 96
	.loc	1 93 0
	add r2, r4, r2
	.loc	1 93 0
	add r0, r1, r0
	.loc	1 93 0
	stw r0, r2[0]
	ldc r0, 108
	.loc	1 94 0
.Ltmp686:
	add r0, r4, r0
	ldc r1, 50
	.loc	1 94 0
	stw r1, r0[0]
	ldc r0, 112
	.loc	1 95 0
.Ltmp687:
	add r0, r4, r0
	.loc	1 95 0
	stw r1, r0[0]
	stw r6, r4[0]
.Ltmp688:
.LBB59_2:
	ldw r7, sp[1]
	ldw r6, sp[2]
	ldw r5, sp[3]
	ldw r4, sp[4]
	retsp 5
	# RETURN_REG_HOLDER
	.cc_bottom startkit_gpio_driver_aux.init.1.function
	.set	startkit_gpio_driver_aux.init.1.nstackwords,(memset.nstackwords + 5)
	.globl	startkit_gpio_driver_aux.init.1.nstackwords
	.set	startkit_gpio_driver_aux.init.1.maxcores,1
	.globl	startkit_gpio_driver_aux.init.1.maxcores
	.set	startkit_gpio_driver_aux.init.1.maxtimers,0
	.globl	startkit_gpio_driver_aux.init.1.maxtimers
	.set	startkit_gpio_driver_aux.init.1.maxchanends,0
	.globl	startkit_gpio_driver_aux.init.1.maxchanends
.Ltmp689:
	.size	startkit_gpio_driver_aux.init.1, .Ltmp689-startkit_gpio_driver_aux.init.1
.Lfunc_end59:
	.cfi_endproc

	.globl	startkit_gpio_driver_aux.init.0
	.align	4
	.type	startkit_gpio_driver_aux.init.0,@function
	.cc_top startkit_gpio_driver_aux.init.0.function,startkit_gpio_driver_aux.init.0
startkit_gpio_driver_aux.init.0:
	.cfi_startproc
.Lxtalabel103:
	extsp 3
.Ltmp690:
	.cfi_def_cfa_offset 12
	stw r4, sp[2]
.Ltmp691:
	.cfi_offset 4, -4
	stw r5, sp[1]
.Ltmp692:
	.cfi_offset 5, -8
	stw r6, sp[0]
.Ltmp693:
	.cfi_offset 6, -12
	ldw r11, sp[7]
	ldw r4, sp[6]
	ldw r5, sp[5]
	ldw r6, sp[4]
	stw r1, r0[2]
	stw r2, r0[3]
	stw r3, r0[4]
	stw r6, r0[5]
	stw r5, r0[6]
	stw r4, r0[7]
	stw r11, r0[8]
	ldc r3, 0
	stw r3, r0[0]
	ldap r11, startkit_gpio_driver_aux.init.1
	stw r11, r0[1]
	bf r1, .LBB60_1
	ldw r3, r1[0]
	bt r3, .LBB60_1
	ldw r1, r1[1]
	stw r0, r1[0]
	ldw r2, r0[3]
.LBB60_1:
	bf r2, .LBB60_2
	ldw r1, r2[0]
	bt r1, .LBB60_2
	ldw r1, r2[1]
	stw r0, r1[0]
.LBB60_2:
	ldw r1, r0[4]
	bf r1, .LBB60_3
	ldw r2, r1[0]
	bt r2, .LBB60_3
	ldw r1, r1[1]
	stw r0, r1[0]
.LBB60_3:
	ldw r1, r0[5]
	bf r1, .LBB60_6
	ldw r2, r1[0]
	bt r2, .LBB60_6
	ldw r1, r1[1]
	stw r0, r1[0]
.LBB60_6:
	ldw r6, sp[0]
	ldw r5, sp[1]
	ldw r4, sp[2]
	ldaw sp, sp[3]
	retsp 0
	# RETURN_REG_HOLDER
	.cc_bottom startkit_gpio_driver_aux.init.0.function
	.set	startkit_gpio_driver_aux.init.0.nstackwords,3
	.globl	startkit_gpio_driver_aux.init.0.nstackwords
	.set	startkit_gpio_driver_aux.init.0.maxcores,1
	.globl	startkit_gpio_driver_aux.init.0.maxcores
	.set	startkit_gpio_driver_aux.init.0.maxtimers,0
	.globl	startkit_gpio_driver_aux.init.0.maxtimers
	.set	startkit_gpio_driver_aux.init.0.maxchanends,0
	.globl	startkit_gpio_driver_aux.init.0.maxchanends
.Ltmp694:
	.size	startkit_gpio_driver_aux.init.0, .Ltmp694-startkit_gpio_driver_aux.init.0
	.cfi_endproc

	.globl	startkit_gpio_driver_aux.select.yield.enable
	.align	4
	.type	startkit_gpio_driver_aux.select.yield.enable,@function
	.cc_top startkit_gpio_driver_aux.select.yield.enable.function,startkit_gpio_driver_aux.select.yield.enable
startkit_gpio_driver_aux.select.yield.enable:
	.cfi_startproc
	entsp 2
.Ltmp695:
	.cfi_def_cfa_offset 8
.Ltmp696:
	.cfi_offset 15, 0
	stw r4, sp[1]
.Ltmp697:
	.cfi_offset 4, -4
	mov r4, r0
	bl startkit_gpio_driver_aux.init.1
	ldw r0, r4[0]
	bf r0, .LBB61_1
	get r11, id
	ldaw r0, dp[__timers]
	ldw r0, r0[r11]
	ldaw r1, dp[__timer_base]
	ldw r2, r1[r11]
	ldc r1, 104
	add r1, r4, r1
	ldw r1, r1[0]
	sub r2, r1, r2
	ldaw r3, dp[__timer_delta]
	ldw r11, r3[r11]
	lss r11, r11, r2
	bt r11, .LBB61_3
	get r11, id
	stw r2, r3[r11]
	setd res[r0], r1
	setc res[r0], 9
	ldap r11, startkit_gpio_driver_aux.select.yield.case.0
	setv res[r0], r11
	mov r11, r4
	setev res[r0], r11
.LBB61_3:
	eeu res[r0]
	ldw r0, r4[3]
	bf r0, .LBB61_5
	ldw r0, r0[0]
	bf r0, .LBB61_5
	ldap r11, startkit_gpio_driver_aux.select.yield.case.1
	setv res[r0], r11
	mov r11, r4
	setev res[r0], r11
	eeu res[r0]
.LBB61_5:
	ldw r0, r4[2]
	bf r0, .LBB61_7
	ldw r0, r0[0]
	bf r0, .LBB61_7
	ldap r11, startkit_gpio_driver_aux.select.yield.case.2
	setv res[r0], r11
	mov r11, r4
	setev res[r0], r11
	eeu res[r0]
.LBB61_7:
	ldw r0, r4[4]
	bf r0, .LBB61_9
	ldw r0, r0[0]
	bf r0, .LBB61_9
	ldap r11, startkit_gpio_driver_aux.select.yield.case.3
	setv res[r0], r11
	mov r11, r4
	setev res[r0], r11
	eeu res[r0]
.LBB61_9:
	ldw r1, r4[5]
	mkmsk r0, 1
	bf r1, .LBB61_12
	ldw r1, r1[0]
	bf r1, .LBB61_12
	ldap r11, startkit_gpio_driver_aux.select.yield.case.4
	setv res[r1], r11
	mov r11, r4
	setev res[r1], r11
	eeu res[r1]
	bu .LBB61_12
.LBB61_1:
	ldc r0, 0
.LBB61_12:
	ldw r4, sp[1]
	retsp 2
	# RETURN_REG_HOLDER
	.cc_bottom startkit_gpio_driver_aux.select.yield.enable.function
	.set	startkit_gpio_driver_aux.select.yield.enable.nstackwords,(startkit_gpio_driver_aux.init.1.nstackwords + 2)
	.globl	startkit_gpio_driver_aux.select.yield.enable.nstackwords
	.set	startkit_gpio_driver_aux.select.yield.enable.maxcores,startkit_gpio_driver_aux.init.1.maxcores $M 1
	.globl	startkit_gpio_driver_aux.select.yield.enable.maxcores
	.set	startkit_gpio_driver_aux.select.yield.enable.maxtimers,startkit_gpio_driver_aux.init.1.maxtimers $M 0
	.globl	startkit_gpio_driver_aux.select.yield.enable.maxtimers
	.set	startkit_gpio_driver_aux.select.yield.enable.maxchanends,startkit_gpio_driver_aux.init.1.maxchanends $M 0
	.globl	startkit_gpio_driver_aux.select.yield.enable.maxchanends
.Ltmp698:
	.size	startkit_gpio_driver_aux.select.yield.enable, .Ltmp698-startkit_gpio_driver_aux.select.yield.enable
	.cfi_endproc

	.globl	startkit_gpio_driver_aux.select.enable
	.align	4
	.type	startkit_gpio_driver_aux.select.enable,@function
	.cc_top startkit_gpio_driver_aux.select.enable.function,startkit_gpio_driver_aux.select.enable
startkit_gpio_driver_aux.select.enable:
	.cfi_startproc
	extsp 1
.Ltmp699:
	.cfi_def_cfa_offset 4
	stw r4, sp[0]
.Ltmp700:
	.cfi_offset 4, -4
	mov r1, r0
	ldw r0, r1[0]
	bf r0, .LBB62_1
	get r11, id
	ldaw r0, dp[__timers]
	ldw r0, r0[r11]
	ldaw r2, dp[__timer_base]
	ldw r3, r2[r11]
	ldc r2, 104
	add r2, r1, r2
	ldw r2, r2[0]
	sub r3, r2, r3
	ldaw r4, dp[__timer_delta]
	ldw r11, r4[r11]
	lss r11, r11, r3
	bt r11, .LBB62_3
	get r11, id
	stw r3, r4[r11]
	setd res[r0], r2
	setc res[r0], 9
	ldap r11, startkit_gpio_driver_aux.select.case.0
	setv res[r0], r11
	mov r11, r1
	setev res[r0], r11
.LBB62_3:
	eeu res[r0]
	ldw r0, r1[3]
	bf r0, .LBB62_5
	ldw r0, r0[0]
	bf r0, .LBB62_5
	ldap r11, startkit_gpio_driver_aux.select.case.1
	setv res[r0], r11
	mov r11, r1
	setev res[r0], r11
	eeu res[r0]
.LBB62_5:
	ldw r0, r1[2]
	bf r0, .LBB62_7
	ldw r0, r0[0]
	bf r0, .LBB62_7
	ldap r11, startkit_gpio_driver_aux.select.case.2
	setv res[r0], r11
	mov r11, r1
	setev res[r0], r11
	eeu res[r0]
.LBB62_7:
	ldw r0, r1[4]
	bf r0, .LBB62_9
	ldw r0, r0[0]
	bf r0, .LBB62_9
	ldap r11, startkit_gpio_driver_aux.select.case.3
	setv res[r0], r11
	mov r11, r1
	setev res[r0], r11
	eeu res[r0]
.LBB62_9:
	ldw r2, r1[5]
	mkmsk r0, 1
	bf r2, .LBB62_12
	ldw r2, r2[0]
	bf r2, .LBB62_12
	ldap r11, startkit_gpio_driver_aux.select.case.4
	setv res[r2], r11
	mov r11, r1
	setev res[r2], r11
	eeu res[r2]
	bu .LBB62_12
.LBB62_1:
	ldc r0, 0
.LBB62_12:
	ldw r4, sp[0]
	ldaw sp, sp[1]
	retsp 0
	# RETURN_REG_HOLDER
	.cc_bottom startkit_gpio_driver_aux.select.enable.function
	.set	startkit_gpio_driver_aux.select.enable.nstackwords,1
	.globl	startkit_gpio_driver_aux.select.enable.nstackwords
	.set	startkit_gpio_driver_aux.select.enable.maxcores,1
	.globl	startkit_gpio_driver_aux.select.enable.maxcores
	.set	startkit_gpio_driver_aux.select.enable.maxtimers,0
	.globl	startkit_gpio_driver_aux.select.enable.maxtimers
	.set	startkit_gpio_driver_aux.select.enable.maxchanends,0
	.globl	startkit_gpio_driver_aux.select.enable.maxchanends
.Ltmp701:
	.size	startkit_gpio_driver_aux.select.enable, .Ltmp701-startkit_gpio_driver_aux.select.enable
	.cfi_endproc

	.globl	startkit_gpio_driver_aux.fini
	.align	4
	.type	startkit_gpio_driver_aux.fini,@function
	.cc_top startkit_gpio_driver_aux.fini.function,startkit_gpio_driver_aux.fini
startkit_gpio_driver_aux.fini:
	.cfi_startproc
	ldw r0, r0[0]
	bf r0, .LBB63_2
.LBB63_1:
	bu .LBB63_1
.LBB63_2:
	retsp 0
	# RETURN_REG_HOLDER
	.cc_bottom startkit_gpio_driver_aux.fini.function
	.set	startkit_gpio_driver_aux.fini.nstackwords,0
	.globl	startkit_gpio_driver_aux.fini.nstackwords
	.set	startkit_gpio_driver_aux.fini.maxcores,1
	.globl	startkit_gpio_driver_aux.fini.maxcores
	.set	startkit_gpio_driver_aux.fini.maxtimers,0
	.globl	startkit_gpio_driver_aux.fini.maxtimers
	.set	startkit_gpio_driver_aux.fini.maxchanends,0
	.globl	startkit_gpio_driver_aux.fini.maxchanends
.Ltmp702:
	.size	startkit_gpio_driver_aux.fini, .Ltmp702-startkit_gpio_driver_aux.fini
	.cfi_endproc

	.section	.cp.rodata.cst4,"aMc",@progbits,4
	.cc_top .LCPI64_0.data,.LCPI64_0
	.align	4
	.type	.LCPI64_0,@object
	.size	.LCPI64_0, 4
.LCPI64_0:
	.long	2419607531
	.cc_bottom .LCPI64_0.data
	.text
	.align	4
	.type	startkit_gpio_driver_aux.select.0.case.0,@function
	.cc_top startkit_gpio_driver_aux.select.0.case.0.function,startkit_gpio_driver_aux.select.0.case.0
startkit_gpio_driver_aux.select.0.case.0:
.Lfunc_begin64:
	.loc	1 171 0
	.cfi_startproc
.Lxtalabel104:
	extsp 3
.Ltmp703:
	.cfi_def_cfa_offset 12
	stw r4, sp[2]
.Ltmp704:
	.cfi_offset 4, -4
	stw r5, sp[1]
.Ltmp705:
	.cfi_offset 5, -8
	stw r6, sp[0]
.Ltmp706:
	.cfi_offset 6, -12
	get r11, ed
	ldc r0, 0
	stw r0, r11[0]
	ldw r1, r11[2]
	ldw r2, r1[0]
	in r1, res[r2]
	ldc r3, 254
	add r3, r1, r3
	zext r3, 8
	sub r1, r1, r3
	setd res[r2], r1
	bf r3, .LBB64_10
.Ltrap_info23:
	ecallf r2
	outct res[r2], 1
	in r1, res[r2]
.Ltmp707:
	in r2, res[r2]
.Ltmp708:
	ldw r3, cp[.LCPI64_0]
	.loc	1 181 0 prologue_end
.Ltmp709:
	lmul r3, r4, r2, r3, r0, r0
	sub r2, r2, r3
.Ltmp710:
	shr r2, r2, 1
	add r2, r2, r3
	ldc r3, 9
	shr r2, r2, r3
.Ltmp711:
	ldc r3, 72
.Ltmp712:
	add r3, r11, r3
	ldc r4, 2
.Ltmp713:
.LBB64_2:
.Lxtalabel105:
	.loc	1 186 0
	mov r6, r1
	zext r6, 1
	.loc	1 186 0
	mov r5, r2
	bt r6, .LBB64_4
.Ltmp714:
.Lxtalabel106:
	mov r5, r0
.Ltmp715:
.LBB64_4:
.Lxtalabel107:
	.loc	1 186 0
	stw r5, r3[2]
	.loc	1 187 0
	shr r6, r1, 1
.Ltmp716:
	.loc	1 186 0
	zext r6, 1
	.loc	1 186 0
	mov r5, r2
	bt r6, .LBB64_6
.Ltmp717:
.Lxtalabel108:
	mov r5, r0
.Ltmp718:
.LBB64_6:
.Lxtalabel109:
	.loc	1 186 0
	stw r5, r3[1]
	.loc	1 187 0
	shr r6, r1, 2
	.loc	1 186 0
	zext r6, 1
	.loc	1 186 0
	mov r5, r2
	bt r6, .LBB64_8
.Ltmp719:
.Lxtalabel110:
	mov r5, r0
.Ltmp720:
.LBB64_8:
.Lxtalabel111:
	.loc	1 186 0
	stw r5, r3[0]
	.loc	1 187 0
	shr r1, r1, 3
.Ltmp721:
	.loc	1 184 0
	sub r4, r4, 1
.Ltmp722:
	.loc	1 184 0
	ldaw r3, r3[-3]
.Lxta.loop_labels9:
	# LOOPMARKER 0
	.loc	1 184 0
	ashr r5, r4, 32
	bf r5, .LBB64_2
.Ltmp723:
.Lxtalabel112:
	ldw r0, r11[2]
	ldw r0, r0[0]
	ldc r1, 0
	out res[r0], r1
.Ltrap_info24:
	ecallf r0
	bu .LBB64_11
.LBB64_10:
.Ltrap_info25:
	ecallf r2
	outct res[r2], 1
	in r3, res[r2]
.Ltmp724:
	in r1, res[r2]
.Ltmp725:
	in r0, res[r2]
.Ltmp726:
	mkmsk r2, 2
	.loc	1 174 0
	lsu r4, r3, r2
.Ltrap_info26:
	ecallf r4
	.loc	1 174 0
	lsu r2, r1, r2
.Ltrap_info27:
	ecallf r2
	ldc r2, 12
	.loc	1 174 0
	mul r2, r3, r2
	add r2, r11, r2
	ldaw r1, r2[r1]
.Ltmp727:
	ldc r2, 48
	add r1, r1, r2
	ldc r2, 0
	ldw r3, cp[.LCPI64_0]
.Ltmp728:
	.loc	1 174 0
	lmul r3, r4, r0, r3, r2, r2
	sub r0, r0, r3
.Ltmp729:
	shr r0, r0, 1
	add r0, r0, r3
	ldc r3, 9
	shr r0, r0, r3
	.loc	1 174 0
	stw r0, r1[0]
	ldw r0, r11[2]
	ldw r0, r0[0]
	out res[r0], r2
.Ltrap_info28:
	ecallf r0
.Ltmp730:
.LBB64_11:
	outct res[r0], 1
	mkmsk r0, 1
	stw r0, r11[0]
	ldw r6, sp[0]
	ldw r5, sp[1]
	ldw r4, sp[2]
	ldaw sp, sp[3]
	retsp 0
	# RETURN_REG_HOLDER
	.cc_bottom startkit_gpio_driver_aux.select.0.case.0.function
	.set	startkit_gpio_driver_aux.select.0.case.0.nstackwords,3
	.set	startkit_gpio_driver_aux.select.0.case.0.maxcores,1
	.set	startkit_gpio_driver_aux.select.0.case.0.maxtimers,0
	.set	startkit_gpio_driver_aux.select.0.case.0.maxchanends,0
.Ltmp731:
	.size	startkit_gpio_driver_aux.select.0.case.0, .Ltmp731-startkit_gpio_driver_aux.select.0.case.0
.Lfunc_end64:
	.cfi_endproc

	.align	4
	.type	startkit_gpio_driver_aux.select.1.case.0,@function
	.cc_top startkit_gpio_driver_aux.select.1.case.0.function,startkit_gpio_driver_aux.select.1.case.0
startkit_gpio_driver_aux.select.1.case.0:
.Lfunc_begin65:
	.loc	1 166 0
	.cfi_startproc
.Lxtalabel113:
	extsp 1
.Ltmp732:
	.cfi_def_cfa_offset 4
	stw r4, sp[0]
.Ltmp733:
	.cfi_offset 4, -4
	get r11, ed
	ldc r0, 0
	stw r0, r11[0]
	ldw r1, r11[3]
	ldw r2, r1[0]
	in r3, res[r2]
	ldc r4, 254
	add r4, r3, r4
	zext r4, 8
	sub r3, r3, r4
	setd res[r2], r3
.Ltrap_info29:
	ecallf r2
	outct res[r2], 1
	in r2, res[r2]
	ldw r3, r1[4]
	eq r2, r3, r2
	bt r2, .LBB65_2
	ldw r2, r1[2]
	ldw r3, r1[3]
	#APP
	getd r4, res[r2]
	#NO_APP
	setd res[r2], r3
	outct res[r2], 1
	setd res[r2], r4
.LBB65_2:
	mkmsk r2, 1
	stw r2, r1[4]
	.loc	1 167 0 prologue_end
.Ltmp734:
	ldw r3, r11[9]
.Ltmp735:
	ldw r1, r11[3]
	ldw r1, r1[0]
	out res[r1], r0
	out res[r1], r3
.Ltrap_info30:
	ecallf r1
	outct res[r1], 1
	stw r2, r11[0]
	ldw r4, sp[0]
	ldaw sp, sp[1]
	retsp 0
	# RETURN_REG_HOLDER
.Ltmp736:
	.cc_bottom startkit_gpio_driver_aux.select.1.case.0.function
	.set	startkit_gpio_driver_aux.select.1.case.0.nstackwords,1
	.set	startkit_gpio_driver_aux.select.1.case.0.maxcores,1
	.set	startkit_gpio_driver_aux.select.1.case.0.maxtimers,0
	.set	startkit_gpio_driver_aux.select.1.case.0.maxchanends,0
.Ltmp737:
	.size	startkit_gpio_driver_aux.select.1.case.0, .Ltmp737-startkit_gpio_driver_aux.select.1.case.0
.Lfunc_end65:
	.cfi_endproc

	.align	4
	.type	startkit_gpio_driver_aux.select.2.case.0,@function
	.cc_top startkit_gpio_driver_aux.select.2.case.0.function,startkit_gpio_driver_aux.select.2.case.0
startkit_gpio_driver_aux.select.2.case.0:
.Lfunc_begin66:
	.loc	1 191 0
	.cfi_startproc
.Lxtalabel114:
	entsp 3
.Ltmp738:
	.cfi_def_cfa_offset 12
.Ltmp739:
	.cfi_offset 15, 0
	stw r4, sp[2]
.Ltmp740:
	.cfi_offset 4, -4
	stw r5, sp[1]
.Ltmp741:
	.cfi_offset 5, -8
	get r11, ed
	mov r4, r11
	ldc r5, 0
	stw r5, r4[0]
	ldw r0, r4[4]
	ldw r1, r0[0]
	in r2, res[r1]
	ldc r3, 254
	add r3, r2, r3
	zext r3, 8
	sub r2, r2, r3
	setd res[r1], r2
	eq r2, r3, 1
	bf r2, .LBB66_1
	.loc	1 192 0 prologue_end
.Ltmp742:
	ldw r1, r4[7]
	.loc	1 192 0
	ldw r0, r1[0]
	.loc	1 192 0
	ldw r1, r1[1]
	.loc	1 192 0
	ldw r1, r1[1]
	.loc	1 192 0
.Lxta.call_labels18:
	bla r1
.Ltmp743:
	ldw r1, r4[4]
	ldw r1, r1[0]
	out res[r1], r5
	out res[r1], r0
.Ltrap_info31:
	ecallf r1
	outct res[r1], 1
	bu .LBB66_4
.Ltmp744:
.LBB66_1:
.Ltrap_info32:
	ecallf r1
	outct res[r1], 1
	in r1, res[r1]
	ldw r2, r0[4]
	eq r1, r2, r1
	bt r1, .LBB66_2
	ldw r1, r0[2]
	ldw r2, r0[3]
	#APP
	getd r3, res[r1]
	#NO_APP
	setd res[r1], r2
	outct res[r1], 1
	setd res[r1], r3
.LBB66_2:
	mkmsk r1, 1
	stw r1, r0[4]
	ldc r0, 84
	.loc	1 195 0
	add r0, r4, r0
	.loc	1 195 0
	ldw r1, r0[0]
.Ltmp745:
	ldw r0, r4[4]
	ldw r0, r0[0]
	out res[r0], r5
	out res[r0], r1
.Ltrap_info33:
	ecallf r0
	outct res[r0], 1
.Ltmp746:
.LBB66_4:
	mkmsk r0, 1
	stw r0, r4[0]
	ldw r5, sp[1]
	ldw r4, sp[2]
	retsp 3
	# RETURN_REG_HOLDER
	.cc_bottom startkit_gpio_driver_aux.select.2.case.0.function
	.set	startkit_gpio_driver_aux.select.2.case.0.nstackwords,(_i.slider_query_if.get_coord.max.nstackwords + 3)
	.set	startkit_gpio_driver_aux.select.2.case.0.maxcores,_i.slider_query_if.get_coord.max.maxcores $M 1
	.set	startkit_gpio_driver_aux.select.2.case.0.maxtimers,_i.slider_query_if.get_coord.max.maxtimers $M 0
	.set	startkit_gpio_driver_aux.select.2.case.0.maxchanends,_i.slider_query_if.get_coord.max.maxchanends $M 0
.Ltmp747:
	.size	startkit_gpio_driver_aux.select.2.case.0, .Ltmp747-startkit_gpio_driver_aux.select.2.case.0
.Lfunc_end66:
	.cfi_endproc

	.align	4
	.type	startkit_gpio_driver_aux.select.3.case.0,@function
	.cc_top startkit_gpio_driver_aux.select.3.case.0.function,startkit_gpio_driver_aux.select.3.case.0
startkit_gpio_driver_aux.select.3.case.0:
.Lfunc_begin67:
	.loc	1 197 0
	.cfi_startproc
.Lxtalabel115:
	entsp 3
.Ltmp748:
	.cfi_def_cfa_offset 12
.Ltmp749:
	.cfi_offset 15, 0
	stw r4, sp[2]
.Ltmp750:
	.cfi_offset 4, -4
	stw r5, sp[1]
.Ltmp751:
	.cfi_offset 5, -8
	get r11, ed
	mov r4, r11
	ldc r5, 0
	stw r5, r4[0]
	ldw r0, r4[5]
	ldw r1, r0[0]
	in r2, res[r1]
	ldc r3, 254
	add r3, r2, r3
	zext r3, 8
	sub r2, r2, r3
	setd res[r1], r2
	eq r2, r3, 1
	bf r2, .LBB67_1
	.loc	1 198 0 prologue_end
.Ltmp752:
	ldw r1, r4[8]
	.loc	1 198 0
	ldw r0, r1[0]
	.loc	1 198 0
	ldw r1, r1[1]
	.loc	1 198 0
	ldw r1, r1[1]
	.loc	1 198 0
.Lxta.call_labels19:
	bla r1
.Ltmp753:
	ldw r1, r4[5]
	ldw r1, r1[0]
	out res[r1], r5
	out res[r1], r0
.Ltrap_info34:
	ecallf r1
	outct res[r1], 1
	bu .LBB67_4
.Ltmp754:
.LBB67_1:
.Ltrap_info35:
	ecallf r1
	outct res[r1], 1
	in r1, res[r1]
	ldw r2, r0[4]
	eq r1, r2, r1
	bt r1, .LBB67_2
	ldw r1, r0[2]
	ldw r2, r0[3]
	#APP
	getd r3, res[r1]
	#NO_APP
	setd res[r1], r2
	outct res[r1], 1
	setd res[r1], r3
.LBB67_2:
	mkmsk r1, 1
	stw r1, r0[4]
	ldc r0, 88
	.loc	1 201 0
	add r0, r4, r0
	.loc	1 201 0
	ldw r1, r0[0]
.Ltmp755:
	ldw r0, r4[5]
	ldw r0, r0[0]
	out res[r0], r5
	out res[r0], r1
.Ltrap_info36:
	ecallf r0
	outct res[r0], 1
.Ltmp756:
.LBB67_4:
	mkmsk r0, 1
	stw r0, r4[0]
	ldw r5, sp[1]
	ldw r4, sp[2]
	retsp 3
	# RETURN_REG_HOLDER
	.cc_bottom startkit_gpio_driver_aux.select.3.case.0.function
	.set	startkit_gpio_driver_aux.select.3.case.0.nstackwords,(_i.slider_query_if.get_coord.max.nstackwords + 3)
	.set	startkit_gpio_driver_aux.select.3.case.0.maxcores,_i.slider_query_if.get_coord.max.maxcores $M 1
	.set	startkit_gpio_driver_aux.select.3.case.0.maxtimers,_i.slider_query_if.get_coord.max.maxtimers $M 0
	.set	startkit_gpio_driver_aux.select.3.case.0.maxchanends,_i.slider_query_if.get_coord.max.maxchanends $M 0
.Ltmp757:
	.size	startkit_gpio_driver_aux.select.3.case.0, .Ltmp757-startkit_gpio_driver_aux.select.3.case.0
.Lfunc_end67:
	.cfi_endproc

	.align	4
	.type	startkit_gpio_driver_aux.select.yield.case.0,@function
	.cc_top startkit_gpio_driver_aux.select.yield.case.0.function,startkit_gpio_driver_aux.select.yield.case.0
startkit_gpio_driver_aux.select.yield.case.0:
.Lfunc_begin68:
	.loc	1 99 0
	.cfi_startproc
.Lxtalabel116:
	entsp 6
.Ltmp758:
	.cfi_def_cfa_offset 24
.Ltmp759:
	.cfi_offset 15, 0
	stw r4, sp[5]
.Ltmp760:
	.cfi_offset 4, -4
	stw r5, sp[4]
.Ltmp761:
	.cfi_offset 5, -8
	stw r6, sp[3]
.Ltmp762:
	.cfi_offset 6, -12
	stw r7, sp[2]
.Ltmp763:
	.cfi_offset 7, -16
	stw r8, sp[1]
.Ltmp764:
	.cfi_offset 8, -20
	get r11, ed
	mov r4, r11
	.loc	1 99 0 prologue_end
.Ltmp765:
	get r11, id
	.loc	1 99 0
	ldaw r0, dp[__timers]
	.loc	1 99 0
	ldw r5, r0[r11]
	.loc	1 99 0
.Ltmp766:
.Lxta.endpoint_labels22:
	in r0, res[r5]
	ldc r6, 0
	stw r6, r4[0]
.Ltmp767:
	.loc	1 100 0
	ldw r0, r4[11]
	.loc	1 100 0
	add r2, r0, 1
	.loc	1 100 0
	stw r2, r4[11]
	ldc r7, 100
	.loc	1 101 7
	eq r0, r2, r7
	bf r0, .LBB68_1
.Lxtalabel117:
	.loc	1 104 0
.Ltmp768:
	ldw r0, r4[6]
	.loc	1 104 0
	setc res[r0], 1
	.loc	1 104 0
.Lxta.endpoint_labels23:
	in r1, res[r0]
.Ltmp769:
	.loc	1 105 0
	setc res[r5], 1
	.loc	1 105 0
.Lxta.endpoint_labels24:
	in r1, res[r5]
.Ltmp770:
	.loc	1 106 0
	add r1, r1, 10
.Ltmp771:
	.loc	1 106 0
	setd res[r5], r1
	.loc	1 106 0
	setc res[r5], 9
	.loc	1 106 0
.Ltmp772:
.Lxta.endpoint_labels25:
	in r1, res[r5]
	.loc	1 107 0
	setc res[r0], 1
	.loc	1 107 0
.Lxta.endpoint_labels26:
	in r3, res[r0]
.Ltmp773:
	.loc	1 108 9
	ldw r1, r4[3]
	bf r1, .LBB68_13
.Ltmp774:
.Lxtalabel118:
	ldc r0, 112
	.loc	1 109 11
	add r0, r4, r0
	.loc	1 109 11
	ldw r2, r0[0]
	ldc r11, 108
	.loc	1 109 11
	add r11, r4, r11
	.loc	1 109 11
	ldw r11, r11[0]
	.loc	1 109 11
	lss r11, r2, r11
	.loc	1 109 11
	bf r11, .LBB68_12
.Ltmp775:
.Lxtalabel119:
	.loc	1 123 0
	add r1, r2, 1
	.loc	1 123 0
	stw r1, r0[0]
	bu .LBB68_13
.LBB68_12:
.Lxtalabel120:
.Ltmp776:
	mkmsk r2, 1
	.loc	1 113 0
.Ltmp777:
	andnot r2, r3
.Ltmp778:
	.loc	1 116 13
	ldw r3, r4[9]
.Ltmp779:
	.loc	1 116 13
	eq r3, r2, r3
	bt r3, .LBB68_13
.Ltmp780:
.Lxtalabel121:
	.loc	1 117 0
	ldw r3, r1[4]
	bf r3, .LBB68_18
.Ltmp781:
	.loc	1 117 0
	ldw r3, r1[2]
	.loc	1 117 0
	ldw r11, r1[3]
	.loc	1 117 0
	#APP
	getd r8, res[r3]
	#NO_APP
	.loc	1 117 0
	setd res[r3], r11
	.loc	1 117 0
	outct res[r3], 1
	.loc	1 117 0
	setd res[r3], r8
	ldc r3, 0
	.loc	1 117 0
	stw r3, r1[4]
.Ltmp782:
.LBB68_18:
	.loc	1 118 0
	stw r2, r4[9]
	ldc r1, 0
	.loc	1 119 0
	stw r1, r0[0]
.Ltmp783:
.LBB68_13:
.Lxtalabel122:
	.loc	1 126 9
	add r8, r4, r7
	.loc	1 126 9
	ldw r0, r8[0]
	.loc	1 126 9
	bf r0, .LBB68_24
.Lxtalabel123:
	.loc	1 127 11
	ldw r0, r4[4]
	bf r0, .LBB68_15
.Lxtalabel124:
	.loc	1 128 0
.Ltmp784:
	ldw r1, r4[7]
	.loc	1 128 0
	ldw r0, r1[0]
	.loc	1 128 0
	ldw r1, r1[1]
	.loc	1 128 0
	ldw r1, r1[0]
	.loc	1 128 0
.Lxta.call_labels20:
	bla r1
.Ltmp785:
	ldc r1, 84
	.loc	1 129 13
	add r1, r4, r1
	.loc	1 129 13
	ldw r2, r1[0]
	.loc	1 129 13
	eq r2, r0, r2
	bt r2, .LBB68_15
.Ltmp786:
.Lxtalabel125:
	.loc	1 130 0
	stw r0, r1[0]
	.loc	1 131 0
	ldw r0, r4[4]
.Ltmp787:
	.loc	1 131 0
	ldw r1, r0[4]
	bf r1, .LBB68_15
	.loc	1 131 0
	ldw r1, r0[2]
	.loc	1 131 0
	ldw r2, r0[3]
	.loc	1 131 0
	#APP
	getd r3, res[r1]
	#NO_APP
	bu .LBB68_23
.Ltmp788:
.LBB68_24:
.Lxtalabel126:
	.loc	1 135 11
	ldw r0, r4[5]
	bf r0, .LBB68_15
.Lxtalabel127:
	.loc	1 136 0
.Ltmp789:
	ldw r1, r4[8]
	.loc	1 136 0
	ldw r0, r1[0]
	.loc	1 136 0
	ldw r1, r1[1]
	.loc	1 136 0
	ldw r1, r1[0]
	.loc	1 136 0
.Lxta.call_labels21:
	bla r1
.Ltmp790:
	ldc r1, 88
	.loc	1 137 13
	add r1, r4, r1
	.loc	1 137 13
	ldw r2, r1[0]
	.loc	1 137 13
	eq r2, r0, r2
	bt r2, .LBB68_15
.Ltmp791:
.Lxtalabel128:
	.loc	1 138 0
	stw r0, r1[0]
	.loc	1 139 0
	ldw r0, r4[5]
.Ltmp792:
	.loc	1 139 0
	ldw r1, r0[4]
	bf r1, .LBB68_15
	.loc	1 139 0
	ldw r1, r0[2]
	.loc	1 139 0
	ldw r2, r0[3]
	.loc	1 139 0
	#APP
	getd r3, res[r1]
	#NO_APP
.Ltmp793:
.LBB68_23:
.Lxtalabel129:
	.loc	1 131 0
	setd res[r1], r2
	.loc	1 131 0
	outct res[r1], 1
	.loc	1 131 0
	setd res[r1], r3
	ldc r1, 0
	.loc	1 131 0
	stw r1, r0[4]
.Ltmp794:
.LBB68_15:
.Lxtalabel130:
	.loc	1 143 0
	ldw r0, r8[0]
	.loc	1 143 0
	not r0, r0
	.loc	1 143 0
	stw r0, r8[0]
	ldc r0, 96
	.loc	1 144 0
	add r0, r4, r0
	ldc r1, 92
	.loc	1 144 0
	add r1, r4, r1
	.loc	1 144 0
	ldw r1, r1[0]
	.loc	1 144 0
	ldw r2, r0[0]
	.loc	1 144 0
	add r1, r2, r1
	.loc	1 144 0
	stw r1, r0[0]
	ldc r2, 0
	.loc	1 145 0
	stw r2, r4[11]
.Ltmp795:
.LBB68_1:
	ldc r0, 48
	add r1, r4, r0
	mkmsk r0, 32
	ldaw r11, cp[map]
	.loc	1 153 11
.Ltmp796:
	sub r2, r7, r2
	mkmsk r3, 2
.LBB68_2:
.Lxtalabel131:
.Ltmp797:
	.loc	1 153 11
	ldw r7, r1[0]
	.loc	1 153 11
	lss r7, r2, r7
	bf r7, .LBB68_4
.Lxtalabel132:
	.loc	1 154 0
	ldw r7, r11[0]
	.loc	1 154 0
	andnot r0, r7
.Ltmp798:
.LBB68_4:
.Lxtalabel133:
	.loc	1 153 11
	ldw r7, r1[1]
	.loc	1 153 11
	lss r7, r2, r7
	bf r7, .LBB68_6
.Lxtalabel134:
	.loc	1 154 0
	ldw r7, r11[1]
	.loc	1 154 0
	andnot r0, r7
.LBB68_6:
.Lxtalabel135:
	.loc	1 153 11
	ldw r7, r1[2]
	.loc	1 153 11
	lss r7, r2, r7
	bf r7, .LBB68_8
.Lxtalabel136:
	.loc	1 154 0
	ldw r7, r11[2]
	.loc	1 154 0
	andnot r0, r7
.Ltmp799:
.LBB68_8:
.Lxtalabel137:
	.loc	1 149 0
	add r6, r6, 1
.Ltmp800:
	.loc	1 149 0
	ldaw r11, r11[3]
	.loc	1 149 0
	ldaw r1, r1[3]
	.loc	1 149 0
	lss r7, r6, r3
.Lxta.loop_labels10:
	# LOOPMARKER 0
	bt r7, .LBB68_2
.Ltmp801:
.Lxtalabel138:
	.loc	1 159 18
	ldw r1, r4[6]
	.loc	1 159 18
.Lxta.endpoint_labels27:
	out res[r1], r0
	.loc	1 161 0
	setc res[r5], 1
	ldc r0, 104
	.loc	1 161 0
	add r0, r4, r0
	.loc	1 161 0
.Lxta.endpoint_labels28:
	in r1, res[r5]
	.loc	1 162 0
	ldw r2, r4[10]
	.loc	1 162 0
	add r1, r2, r1
	.loc	1 162 0
	stw r1, r0[0]
	mkmsk r0, 1
	stw r0, r4[0]
	ldw r8, sp[1]
	ldw r7, sp[2]
	ldw r6, sp[3]
	ldw r5, sp[4]
	ldw r4, sp[5]
	retsp 6
	# RETURN_REG_HOLDER
.Ltmp802:
	.cc_bottom startkit_gpio_driver_aux.select.yield.case.0.function
	.set	startkit_gpio_driver_aux.select.yield.case.0.nstackwords,(_i.slider_query_if.filter.max.nstackwords + 6)
	.set	startkit_gpio_driver_aux.select.yield.case.0.maxcores,_i.slider_query_if.filter.max.maxcores $M 1
	.set	startkit_gpio_driver_aux.select.yield.case.0.maxtimers,_i.slider_query_if.filter.max.maxtimers $M 0
	.set	startkit_gpio_driver_aux.select.yield.case.0.maxchanends,_i.slider_query_if.filter.max.maxchanends $M 0
.Ltmp803:
	.size	startkit_gpio_driver_aux.select.yield.case.0, .Ltmp803-startkit_gpio_driver_aux.select.yield.case.0
.Lfunc_end68:
	.cfi_endproc

	.align	4
	.type	startkit_gpio_driver_aux.select.yield.case.1,@function
	.cc_top startkit_gpio_driver_aux.select.yield.case.1.function,startkit_gpio_driver_aux.select.yield.case.1
startkit_gpio_driver_aux.select.yield.case.1:
.Lfunc_begin69:
	.loc	1 166 0
	.cfi_startproc
.Lxtalabel139:
	extsp 1
.Ltmp804:
	.cfi_def_cfa_offset 4
	stw r4, sp[0]
.Ltmp805:
	.cfi_offset 4, -4
	get r11, ed
	ldc r0, 0
	stw r0, r11[0]
	ldw r1, r11[3]
	ldw r2, r1[0]
	in r3, res[r2]
	ldc r4, 254
	add r4, r3, r4
	zext r4, 8
	sub r3, r3, r4
	setd res[r2], r3
.Ltrap_info37:
	ecallf r2
	outct res[r2], 1
	in r2, res[r2]
	ldw r3, r1[4]
	eq r2, r3, r2
	bt r2, .LBB69_2
	ldw r2, r1[2]
	ldw r3, r1[3]
	#APP
	getd r4, res[r2]
	#NO_APP
	setd res[r2], r3
	outct res[r2], 1
	setd res[r2], r4
.LBB69_2:
	mkmsk r2, 1
	stw r2, r1[4]
	.loc	1 167 0 prologue_end
.Ltmp806:
	ldw r3, r11[9]
.Ltmp807:
	ldw r1, r11[3]
	ldw r1, r1[0]
	out res[r1], r0
	out res[r1], r3
.Ltrap_info38:
	ecallf r1
	outct res[r1], 1
	stw r2, r11[0]
	ldw r4, sp[0]
	ldaw sp, sp[1]
	retsp 0
	# RETURN_REG_HOLDER
.Ltmp808:
	.cc_bottom startkit_gpio_driver_aux.select.yield.case.1.function
	.set	startkit_gpio_driver_aux.select.yield.case.1.nstackwords,1
	.set	startkit_gpio_driver_aux.select.yield.case.1.maxcores,1
	.set	startkit_gpio_driver_aux.select.yield.case.1.maxtimers,0
	.set	startkit_gpio_driver_aux.select.yield.case.1.maxchanends,0
.Ltmp809:
	.size	startkit_gpio_driver_aux.select.yield.case.1, .Ltmp809-startkit_gpio_driver_aux.select.yield.case.1
.Lfunc_end69:
	.cfi_endproc

	.section	.cp.rodata.cst4,"aMc",@progbits,4
	.cc_top .LCPI70_0.data,.LCPI70_0
	.align	4
	.type	.LCPI70_0,@object
	.size	.LCPI70_0, 4
.LCPI70_0:
	.long	2419607531
	.cc_bottom .LCPI70_0.data
	.text
	.align	4
	.type	startkit_gpio_driver_aux.select.yield.case.2,@function
	.cc_top startkit_gpio_driver_aux.select.yield.case.2.function,startkit_gpio_driver_aux.select.yield.case.2
startkit_gpio_driver_aux.select.yield.case.2:
.Lfunc_begin70:
	.loc	1 171 0
	.cfi_startproc
.Lxtalabel140:
	extsp 3
.Ltmp810:
	.cfi_def_cfa_offset 12
	stw r4, sp[2]
.Ltmp811:
	.cfi_offset 4, -4
	stw r5, sp[1]
.Ltmp812:
	.cfi_offset 5, -8
	stw r6, sp[0]
.Ltmp813:
	.cfi_offset 6, -12
	get r11, ed
	ldc r0, 0
	stw r0, r11[0]
	ldw r1, r11[2]
	ldw r2, r1[0]
	in r1, res[r2]
	ldc r3, 254
	add r3, r1, r3
	zext r3, 8
	sub r1, r1, r3
	setd res[r2], r1
	bf r3, .LBB70_10
.Ltrap_info39:
	ecallf r2
	outct res[r2], 1
	in r1, res[r2]
.Ltmp814:
	in r2, res[r2]
.Ltmp815:
	ldw r3, cp[.LCPI70_0]
	.loc	1 181 0 prologue_end
.Ltmp816:
	lmul r3, r4, r2, r3, r0, r0
	sub r2, r2, r3
.Ltmp817:
	shr r2, r2, 1
	add r2, r2, r3
	ldc r3, 9
	shr r2, r2, r3
.Ltmp818:
	ldc r3, 72
.Ltmp819:
	add r3, r11, r3
	ldc r4, 2
.Ltmp820:
.LBB70_2:
.Lxtalabel141:
	.loc	1 186 0
	mov r6, r1
	zext r6, 1
	.loc	1 186 0
	mov r5, r2
	bt r6, .LBB70_4
.Ltmp821:
.Lxtalabel142:
	mov r5, r0
.Ltmp822:
.LBB70_4:
.Lxtalabel143:
	.loc	1 186 0
	stw r5, r3[2]
	.loc	1 187 0
	shr r6, r1, 1
.Ltmp823:
	.loc	1 186 0
	zext r6, 1
	.loc	1 186 0
	mov r5, r2
	bt r6, .LBB70_6
.Ltmp824:
.Lxtalabel144:
	mov r5, r0
.Ltmp825:
.LBB70_6:
.Lxtalabel145:
	.loc	1 186 0
	stw r5, r3[1]
	.loc	1 187 0
	shr r6, r1, 2
	.loc	1 186 0
	zext r6, 1
	.loc	1 186 0
	mov r5, r2
	bt r6, .LBB70_8
.Ltmp826:
.Lxtalabel146:
	mov r5, r0
.Ltmp827:
.LBB70_8:
.Lxtalabel147:
	.loc	1 186 0
	stw r5, r3[0]
	.loc	1 187 0
	shr r1, r1, 3
.Ltmp828:
	.loc	1 184 0
	sub r4, r4, 1
.Ltmp829:
	.loc	1 184 0
	ldaw r3, r3[-3]
.Lxta.loop_labels11:
	# LOOPMARKER 0
	.loc	1 184 0
	ashr r5, r4, 32
	bf r5, .LBB70_2
.Ltmp830:
.Lxtalabel148:
	ldw r0, r11[2]
	ldw r0, r0[0]
	ldc r1, 0
	out res[r0], r1
.Ltrap_info40:
	ecallf r0
	bu .LBB70_11
.LBB70_10:
.Ltrap_info41:
	ecallf r2
	outct res[r2], 1
	in r3, res[r2]
.Ltmp831:
	in r1, res[r2]
.Ltmp832:
	in r0, res[r2]
.Ltmp833:
	mkmsk r2, 2
	.loc	1 174 0
	lsu r4, r3, r2
.Ltrap_info42:
	ecallf r4
	.loc	1 174 0
	lsu r2, r1, r2
.Ltrap_info43:
	ecallf r2
	ldc r2, 12
	.loc	1 174 0
	mul r2, r3, r2
	add r2, r11, r2
	ldaw r1, r2[r1]
.Ltmp834:
	ldc r2, 48
	add r1, r1, r2
	ldc r2, 0
	ldw r3, cp[.LCPI70_0]
.Ltmp835:
	.loc	1 174 0
	lmul r3, r4, r0, r3, r2, r2
	sub r0, r0, r3
.Ltmp836:
	shr r0, r0, 1
	add r0, r0, r3
	ldc r3, 9
	shr r0, r0, r3
	.loc	1 174 0
	stw r0, r1[0]
	ldw r0, r11[2]
	ldw r0, r0[0]
	out res[r0], r2
.Ltrap_info44:
	ecallf r0
.Ltmp837:
.LBB70_11:
	outct res[r0], 1
	mkmsk r0, 1
	stw r0, r11[0]
	ldw r6, sp[0]
	ldw r5, sp[1]
	ldw r4, sp[2]
	ldaw sp, sp[3]
	retsp 0
	# RETURN_REG_HOLDER
	.cc_bottom startkit_gpio_driver_aux.select.yield.case.2.function
	.set	startkit_gpio_driver_aux.select.yield.case.2.nstackwords,3
	.set	startkit_gpio_driver_aux.select.yield.case.2.maxcores,1
	.set	startkit_gpio_driver_aux.select.yield.case.2.maxtimers,0
	.set	startkit_gpio_driver_aux.select.yield.case.2.maxchanends,0
.Ltmp838:
	.size	startkit_gpio_driver_aux.select.yield.case.2, .Ltmp838-startkit_gpio_driver_aux.select.yield.case.2
.Lfunc_end70:
	.cfi_endproc

	.align	4
	.type	startkit_gpio_driver_aux.select.yield.case.3,@function
	.cc_top startkit_gpio_driver_aux.select.yield.case.3.function,startkit_gpio_driver_aux.select.yield.case.3
startkit_gpio_driver_aux.select.yield.case.3:
.Lfunc_begin71:
	.loc	1 191 0
	.cfi_startproc
.Lxtalabel149:
	entsp 3
.Ltmp839:
	.cfi_def_cfa_offset 12
.Ltmp840:
	.cfi_offset 15, 0
	stw r4, sp[2]
.Ltmp841:
	.cfi_offset 4, -4
	stw r5, sp[1]
.Ltmp842:
	.cfi_offset 5, -8
	get r11, ed
	mov r4, r11
	ldc r5, 0
	stw r5, r4[0]
	ldw r0, r4[4]
	ldw r1, r0[0]
	in r2, res[r1]
	ldc r3, 254
	add r3, r2, r3
	zext r3, 8
	sub r2, r2, r3
	setd res[r1], r2
	eq r2, r3, 1
	bf r2, .LBB71_1
	.loc	1 192 0 prologue_end
.Ltmp843:
	ldw r1, r4[7]
	.loc	1 192 0
	ldw r0, r1[0]
	.loc	1 192 0
	ldw r1, r1[1]
	.loc	1 192 0
	ldw r1, r1[1]
	.loc	1 192 0
.Lxta.call_labels22:
	bla r1
.Ltmp844:
	ldw r1, r4[4]
	ldw r1, r1[0]
	out res[r1], r5
	out res[r1], r0
.Ltrap_info45:
	ecallf r1
	outct res[r1], 1
	bu .LBB71_4
.Ltmp845:
.LBB71_1:
.Ltrap_info46:
	ecallf r1
	outct res[r1], 1
	in r1, res[r1]
	ldw r2, r0[4]
	eq r1, r2, r1
	bt r1, .LBB71_2
	ldw r1, r0[2]
	ldw r2, r0[3]
	#APP
	getd r3, res[r1]
	#NO_APP
	setd res[r1], r2
	outct res[r1], 1
	setd res[r1], r3
.LBB71_2:
	mkmsk r1, 1
	stw r1, r0[4]
	ldc r0, 84
	.loc	1 195 0
	add r0, r4, r0
	.loc	1 195 0
	ldw r1, r0[0]
.Ltmp846:
	ldw r0, r4[4]
	ldw r0, r0[0]
	out res[r0], r5
	out res[r0], r1
.Ltrap_info47:
	ecallf r0
	outct res[r0], 1
.Ltmp847:
.LBB71_4:
	mkmsk r0, 1
	stw r0, r4[0]
	ldw r5, sp[1]
	ldw r4, sp[2]
	retsp 3
	# RETURN_REG_HOLDER
	.cc_bottom startkit_gpio_driver_aux.select.yield.case.3.function
	.set	startkit_gpio_driver_aux.select.yield.case.3.nstackwords,(_i.slider_query_if.get_coord.max.nstackwords + 3)
	.set	startkit_gpio_driver_aux.select.yield.case.3.maxcores,_i.slider_query_if.get_coord.max.maxcores $M 1
	.set	startkit_gpio_driver_aux.select.yield.case.3.maxtimers,_i.slider_query_if.get_coord.max.maxtimers $M 0
	.set	startkit_gpio_driver_aux.select.yield.case.3.maxchanends,_i.slider_query_if.get_coord.max.maxchanends $M 0
.Ltmp848:
	.size	startkit_gpio_driver_aux.select.yield.case.3, .Ltmp848-startkit_gpio_driver_aux.select.yield.case.3
.Lfunc_end71:
	.cfi_endproc

	.align	4
	.type	startkit_gpio_driver_aux.select.yield.case.4,@function
	.cc_top startkit_gpio_driver_aux.select.yield.case.4.function,startkit_gpio_driver_aux.select.yield.case.4
startkit_gpio_driver_aux.select.yield.case.4:
.Lfunc_begin72:
	.loc	1 197 0
	.cfi_startproc
.Lxtalabel150:
	entsp 3
.Ltmp849:
	.cfi_def_cfa_offset 12
.Ltmp850:
	.cfi_offset 15, 0
	stw r4, sp[2]
.Ltmp851:
	.cfi_offset 4, -4
	stw r5, sp[1]
.Ltmp852:
	.cfi_offset 5, -8
	get r11, ed
	mov r4, r11
	ldc r5, 0
	stw r5, r4[0]
	ldw r0, r4[5]
	ldw r1, r0[0]
	in r2, res[r1]
	ldc r3, 254
	add r3, r2, r3
	zext r3, 8
	sub r2, r2, r3
	setd res[r1], r2
	eq r2, r3, 1
	bf r2, .LBB72_1
	.loc	1 198 0 prologue_end
.Ltmp853:
	ldw r1, r4[8]
	.loc	1 198 0
	ldw r0, r1[0]
	.loc	1 198 0
	ldw r1, r1[1]
	.loc	1 198 0
	ldw r1, r1[1]
	.loc	1 198 0
.Lxta.call_labels23:
	bla r1
.Ltmp854:
	ldw r1, r4[5]
	ldw r1, r1[0]
	out res[r1], r5
	out res[r1], r0
.Ltrap_info48:
	ecallf r1
	outct res[r1], 1
	bu .LBB72_4
.Ltmp855:
.LBB72_1:
.Ltrap_info49:
	ecallf r1
	outct res[r1], 1
	in r1, res[r1]
	ldw r2, r0[4]
	eq r1, r2, r1
	bt r1, .LBB72_2
	ldw r1, r0[2]
	ldw r2, r0[3]
	#APP
	getd r3, res[r1]
	#NO_APP
	setd res[r1], r2
	outct res[r1], 1
	setd res[r1], r3
.LBB72_2:
	mkmsk r1, 1
	stw r1, r0[4]
	ldc r0, 88
	.loc	1 201 0
	add r0, r4, r0
	.loc	1 201 0
	ldw r1, r0[0]
.Ltmp856:
	ldw r0, r4[5]
	ldw r0, r0[0]
	out res[r0], r5
	out res[r0], r1
.Ltrap_info50:
	ecallf r0
	outct res[r0], 1
.Ltmp857:
.LBB72_4:
	mkmsk r0, 1
	stw r0, r4[0]
	ldw r5, sp[1]
	ldw r4, sp[2]
	retsp 3
	# RETURN_REG_HOLDER
	.cc_bottom startkit_gpio_driver_aux.select.yield.case.4.function
	.set	startkit_gpio_driver_aux.select.yield.case.4.nstackwords,(_i.slider_query_if.get_coord.max.nstackwords + 3)
	.set	startkit_gpio_driver_aux.select.yield.case.4.maxcores,_i.slider_query_if.get_coord.max.maxcores $M 1
	.set	startkit_gpio_driver_aux.select.yield.case.4.maxtimers,_i.slider_query_if.get_coord.max.maxtimers $M 0
	.set	startkit_gpio_driver_aux.select.yield.case.4.maxchanends,_i.slider_query_if.get_coord.max.maxchanends $M 0
.Ltmp858:
	.size	startkit_gpio_driver_aux.select.yield.case.4, .Ltmp858-startkit_gpio_driver_aux.select.yield.case.4
.Lfunc_end72:
	.cfi_endproc

	.align	4
	.type	startkit_gpio_driver_aux.select.case.0,@function
