	.text
	.file	"../src/tempchip_mcp9808.xc"

	.inline_definition delay_seconds
	.inline_definition delay_milliseconds
	.inline_definition delay_microseconds
	.inline_definition _safe_memcmp
	.inline_definition _safe_memmove
	.inline_definition _safe_memset
	.weak _i.i2c_external_commands_if.read_temperature_ok.maxchanends.group
	.max_reduce _i.i2c_external_commands_if.read_temperature_ok.max.maxchanends, _i.i2c_external_commands_if.read_temperature_ok.maxchanends.group, 0
	.weak _i.i2c_external_commands_if.read_temperature_ok.maxcores.group
	.max_reduce _i.i2c_external_commands_if.read_temperature_ok.max.maxcores, _i.i2c_external_commands_if.read_temperature_ok.maxcores.group, 0
	.weak _i.i2c_external_commands_if.read_temperature_ok.maxtimers.group
	.max_reduce _i.i2c_external_commands_if.read_temperature_ok.max.maxtimers, _i.i2c_external_commands_if.read_temperature_ok.maxtimers.group, 0
	.weak _i.i2c_external_commands_if.read_temperature_ok.nstackwords.group
	.globl _i.i2c_external_commands_if.read_temperature_ok.nstackwords.group
	.weak _i.i2c_external_commands_if.read_temperature_ok.fns.group
	.globl _i.i2c_external_commands_if.read_temperature_ok.fns.group
	.max_reduce _i.i2c_external_commands_if.read_temperature_ok.max.nstackwords, _i.i2c_external_commands_if.read_temperature_ok.nstackwords.group, 0
	.max_reduce _i.i2c_external_commands_if.read_temperature_ok.fns, _i.i2c_external_commands_if.read_temperature_ok.fns.group, 0
	.weak _i.i2c_external_commands_if.command.maxchanends.group
	.max_reduce _i.i2c_external_commands_if.command.max.maxchanends, _i.i2c_external_commands_if.command.maxchanends.group, 0
	.weak _i.i2c_external_commands_if.command.maxcores.group
	.max_reduce _i.i2c_external_commands_if.command.max.maxcores, _i.i2c_external_commands_if.command.maxcores.group, 0
	.weak _i.i2c_external_commands_if.command.maxtimers.group
	.max_reduce _i.i2c_external_commands_if.command.max.maxtimers, _i.i2c_external_commands_if.command.maxtimers.group, 0
	.weak _i.i2c_external_commands_if.command.nstackwords.group
	.globl _i.i2c_external_commands_if.command.nstackwords.group
	.weak _i.i2c_external_commands_if.command.fns.group
	.globl _i.i2c_external_commands_if.command.fns.group
	.max_reduce _i.i2c_external_commands_if.command.max.nstackwords, _i.i2c_external_commands_if.command.nstackwords.group, 0
	.max_reduce _i.i2c_external_commands_if.command.fns, _i.i2c_external_commands_if.command.fns.group, 0
	.weak _i.i2c_external_commands_if.__interface_init.maxchanends.group
	.max_reduce _i.i2c_external_commands_if.__interface_init.max.maxchanends, _i.i2c_external_commands_if.__interface_init.maxchanends.group, 0
	.weak _i.i2c_external_commands_if.__interface_init.maxcores.group
	.max_reduce _i.i2c_external_commands_if.__interface_init.max.maxcores, _i.i2c_external_commands_if.__interface_init.maxcores.group, 0
	.weak _i.i2c_external_commands_if.__interface_init.maxtimers.group
	.max_reduce _i.i2c_external_commands_if.__interface_init.max.maxtimers, _i.i2c_external_commands_if.__interface_init.maxtimers.group, 0
	.weak _i.i2c_external_commands_if.__interface_init.nstackwords.group
	.globl _i.i2c_external_commands_if.__interface_init.nstackwords.group
	.weak _i.i2c_external_commands_if.__interface_init.fns.group
	.globl _i.i2c_external_commands_if.__interface_init.fns.group
	.max_reduce _i.i2c_external_commands_if.__interface_init.max.nstackwords, _i.i2c_external_commands_if.__interface_init.nstackwords.group, 0
	.max_reduce _i.i2c_external_commands_if.__interface_init.fns, _i.i2c_external_commands_if.__interface_init.fns.group, 0
	.weak _i.i2c_external_commands_if._client_call_y.maxchanends.group
	.add_to_set _i.i2c_external_commands_if._client_call_y.maxchanends.group, (__interface_client_call_y_other.maxchanends + __interface_client_call_y_extra.maxchanends), __interface_client_call_y_other
	.max_reduce _i.i2c_external_commands_if._client_call_y.max.maxchanends, _i.i2c_external_commands_if._client_call_y.maxchanends.group, 0
	.weak _i.i2c_external_commands_if._client_call_y.maxcores.group
	.add_to_set _i.i2c_external_commands_if._client_call_y.maxcores.group, (__interface_client_call_y_other.maxcores + __interface_client_call_y_extra.maxcores), __interface_client_call_y_other
	.max_reduce _i.i2c_external_commands_if._client_call_y.max.maxcores, _i.i2c_external_commands_if._client_call_y.maxcores.group, 0
	.weak _i.i2c_external_commands_if._client_call_y.maxtimers.group
	.add_to_set _i.i2c_external_commands_if._client_call_y.maxtimers.group, (__interface_client_call_y_other.maxtimers + __interface_client_call_y_extra.maxtimers), __interface_client_call_y_other
	.max_reduce _i.i2c_external_commands_if._client_call_y.max.maxtimers, _i.i2c_external_commands_if._client_call_y.maxtimers.group, 0
	.weak _i.i2c_external_commands_if._client_call_y.nstackwords.group
	.globl _i.i2c_external_commands_if._client_call_y.nstackwords.group
	.weak _i.i2c_external_commands_if._client_call_y.fns.group
	.globl _i.i2c_external_commands_if._client_call_y.fns.group
	.add_to_set _i.i2c_external_commands_if._client_call_y.nstackwords.group, (__interface_client_call_y_other.nstackwords + __interface_client_call_y_extra.nstackwords), __interface_client_call_y_other
	.add_to_set _i.i2c_external_commands_if._client_call_y.fns.group, __interface_client_call_y_other
	.max_reduce _i.i2c_external_commands_if._client_call_y.max.nstackwords, _i.i2c_external_commands_if._client_call_y.nstackwords.group, 0
	.max_reduce _i.i2c_external_commands_if._client_call_y.fns, _i.i2c_external_commands_if._client_call_y.fns.group, 0
	.set usage.anon.0,0
	.set usage.anon.1,0
	.set usage.anon.2,0
	.set usage.anon.3,0
	.set usage.anon.4,0
	.set usage.anon.5,0
	.call Tempchip_MCP9808_Read16,printf
	.call Tempchip_MCP9808_Read16,i2c_master_read_reg
	.call Tempchip_MCP9808_Write16,printf
	.call Tempchip_MCP9808_Write16,i2c_master_write_reg
	.call Tempchip_MCP9808_Shutdown_Wake_Ok,Tempchip_MCP9808_Write16
	.call Tempchip_MCP9808_Shutdown_Wake_Ok,Tempchip_MCP9808_Read16
	.call Tempchip_MCP9808_ReadTempC,Tempchip_MCP9808_Read16
	.call Tempchip_MCP9808_Begin_Ok,Tempchip_MCP9808_Read16
	.call usage.anon.5,memset
	.call usage.anon.4,memmove
	.call usage.anon.3,memcmp
	.call usage.anon.2,delay_ticks_longlong
	.call usage.anon.1,delay_ticks_longlong
	.call usage.anon.0,delay_ticks_longlong
	.set Tempchip_MCP9808_Begin_Ok.locnoside, 0
	.set Tempchip_MCP9808_ReadTempC.locnoside, 0
	.set Tempchip_MCP9808_Shutdown_Wake_Ok.locnoside, 0
	.set Tempchip_MCP9808_Write16.locnoside, 0
	.set Tempchip_MCP9808_Read16.locnoside, 0
	.assert 1,memset.actnoglobalaccess,"In file included from ../src/tempchip_mcp9808.xc:15:\nIn file included from /Applications/XMOS_xTIMEcomposer_Community_14.2.4/target/include/xc/string.h:5:\n/Applications/XMOS_xTIMEcomposer_Community_14.2.4/target/include/xc/safe/string.h:21:3: error: passing non-local alias to function `memset\' which accesses a global variable\n  memset(s, c, n);\n  ^~~~~~~~~~~~~~~"
	.assert 1,memmove.actnoglobalaccess,"In file included from ../src/tempchip_mcp9808.xc:15:\nIn file included from /Applications/XMOS_xTIMEcomposer_Community_14.2.4/target/include/xc/string.h:5:\n/Applications/XMOS_xTIMEcomposer_Community_14.2.4/target/include/xc/safe/string.h:15:3: error: passing non-local alias to function `memmove\' which accesses a global variable\n  memmove(s1, s2, n);\n  ^~~~~~~~~~~~~~~~~~"


	.text
	.weak	_i.i2c_external_commands_if._chan.command
	.align	4
	.type	_i.i2c_external_commands_if._chan.command,@function
	.cc_top _i.i2c_external_commands_if._chan.command.function,_i.i2c_external_commands_if._chan.command
_i.i2c_external_commands_if._chan.command:
	.cfi_startproc
	getr r2, 2
	setd res[r2], r0
	add r0, r2, 1
	out res[r2], r0
	outct res[r2], 2
	chkct res[r2], 1
	out res[r2], r1
	outct res[r2], 2
	in r0, res[r2]
	chkct res[r2], 1
	freer res[r2]
	retsp 0
	# RETURN_REG_HOLDER
	.cc_bottom _i.i2c_external_commands_if._chan.command.function
	.set	_i.i2c_external_commands_if._chan.command.nstackwords,0
	.globl	_i.i2c_external_commands_if._chan.command.nstackwords
	.weak	_i.i2c_external_commands_if._chan.command.nstackwords
	.set	_i.i2c_external_commands_if._chan.command.maxcores,1
	.globl	_i.i2c_external_commands_if._chan.command.maxcores
	.weak	_i.i2c_external_commands_if._chan.command.maxcores
	.set	_i.i2c_external_commands_if._chan.command.maxtimers,0
	.globl	_i.i2c_external_commands_if._chan.command.maxtimers
	.weak	_i.i2c_external_commands_if._chan.command.maxtimers
	.set	_i.i2c_external_commands_if._chan.command.maxchanends,1
	.globl	_i.i2c_external_commands_if._chan.command.maxchanends
	.weak	_i.i2c_external_commands_if._chan.command.maxchanends
.Ltmp0:
	.size	_i.i2c_external_commands_if._chan.command, .Ltmp0-_i.i2c_external_commands_if._chan.command
	.cfi_endproc

	.weak	_i.i2c_external_commands_if._chan.read_temperature_ok
	.align	4
	.type	_i.i2c_external_commands_if._chan.read_temperature_ok,@function
	.cc_top _i.i2c_external_commands_if._chan.read_temperature_ok.function,_i.i2c_external_commands_if._chan.read_temperature_ok
_i.i2c_external_commands_if._chan.read_temperature_ok:
	.cfi_startproc
	entsp 2
.Ltmp1:
	.cfi_def_cfa_offset 8
.Ltmp2:
	.cfi_offset 15, 0
	stw r4, sp[1]
.Ltmp3:
	.cfi_offset 4, -4
	mov r3, r0
	getr r4, 2
	setd res[r4], r1
	out res[r4], r4
	outct res[r4], 2
	chkct res[r4], 1
	out res[r4], r2
	outct res[r4], 2
	in r0, res[r4]
	ldc r2, 20
	mov r0, r4
	mov r1, r3
	bl sin_char_array
	chkct res[r4], 1
	freer res[r4]
	ldw r4, sp[1]
	retsp 2
	# RETURN_REG_HOLDER
	.cc_bottom _i.i2c_external_commands_if._chan.read_temperature_ok.function
	.set	_i.i2c_external_commands_if._chan.read_temperature_ok.nstackwords,(sin_char_array.nstackwords + 2)
	.globl	_i.i2c_external_commands_if._chan.read_temperature_ok.nstackwords
	.weak	_i.i2c_external_commands_if._chan.read_temperature_ok.nstackwords
	.set	_i.i2c_external_commands_if._chan.read_temperature_ok.maxcores,sin_char_array.maxcores $M 1
	.globl	_i.i2c_external_commands_if._chan.read_temperature_ok.maxcores
	.weak	_i.i2c_external_commands_if._chan.read_temperature_ok.maxcores
	.set	_i.i2c_external_commands_if._chan.read_temperature_ok.maxtimers,sin_char_array.maxtimers $M 0
	.globl	_i.i2c_external_commands_if._chan.read_temperature_ok.maxtimers
	.weak	_i.i2c_external_commands_if._chan.read_temperature_ok.maxtimers
	.set	_i.i2c_external_commands_if._chan.read_temperature_ok.maxchanends,(1 + sin_char_array.maxchanends) $M 1
	.globl	_i.i2c_external_commands_if._chan.read_temperature_ok.maxchanends
	.weak	_i.i2c_external_commands_if._chan.read_temperature_ok.maxchanends
.Ltmp4:
	.size	_i.i2c_external_commands_if._chan.read_temperature_ok, .Ltmp4-_i.i2c_external_commands_if._chan.read_temperature_ok
	.cfi_endproc

	.weak	_i.i2c_external_commands_if._chan_y.command
	.align	4
	.type	_i.i2c_external_commands_if._chan_y.command,@function
	.cc_top _i.i2c_external_commands_if._chan_y.command.function,_i.i2c_external_commands_if._chan_y.command
_i.i2c_external_commands_if._chan_y.command:
	.cfi_startproc
	entsp 2
.Ltmp5:
	.cfi_def_cfa_offset 8
.Ltmp6:
	.cfi_offset 15, 0
	stw r4, sp[1]
.Ltmp7:
	.cfi_offset 4, -4
	ldw r2, r0[0]
	getr r4, 2
	setd res[r4], r2
	add r2, r4, 1
	out res[r4], r2
	outct res[r4], 2
	chkct res[r4], 1
	out res[r4], r1
	outct res[r4], 2
	ldw r2, r0[1]
	ldc r1, 0
	mov r0, r4
	bl __interface_client_call_y
	chkct res[r4], 1
	freer res[r4]
	ldw r4, sp[1]
	retsp 2
	# RETURN_REG_HOLDER
	.cc_bottom _i.i2c_external_commands_if._chan_y.command.function
	.set	_i.i2c_external_commands_if._chan_y.command.nstackwords,((_i.i2c_external_commands_if._client_call_y.max.nstackwords $M ($D __interface_client_call_y.nstackwords ? __interface_client_call_y.nstackwords $: _i.i2c_external_commands_if._client_call_y.max.nstackwords)) + 2)
	.globl	_i.i2c_external_commands_if._chan_y.command.nstackwords
	.weak	_i.i2c_external_commands_if._chan_y.command.nstackwords
	.set	_i.i2c_external_commands_if._chan_y.command.maxcores,($D __interface_client_call_y.maxcores ? __interface_client_call_y.maxcores $: _i.i2c_external_commands_if._client_call_y.max.maxcores) $M 1
	.globl	_i.i2c_external_commands_if._chan_y.command.maxcores
	.weak	_i.i2c_external_commands_if._chan_y.command.maxcores
	.set	_i.i2c_external_commands_if._chan_y.command.maxtimers,($D __interface_client_call_y.maxtimers ? __interface_client_call_y.maxtimers $: _i.i2c_external_commands_if._client_call_y.max.maxtimers) $M 0
	.globl	_i.i2c_external_commands_if._chan_y.command.maxtimers
	.weak	_i.i2c_external_commands_if._chan_y.command.maxtimers
	.set	_i.i2c_external_commands_if._chan_y.command.maxchanends,(1 + ($D __interface_client_call_y.maxchanends ? __interface_client_call_y.maxchanends $: _i.i2c_external_commands_if._client_call_y.max.maxchanends)) $M 1
	.globl	_i.i2c_external_commands_if._chan_y.command.maxchanends
	.weak	_i.i2c_external_commands_if._chan_y.command.maxchanends
.Ltmp8:
	.size	_i.i2c_external_commands_if._chan_y.command, .Ltmp8-_i.i2c_external_commands_if._chan_y.command
	.cfi_endproc

	.weak	_i.i2c_external_commands_if._chan_y.read_temperature_ok
	.align	4
	.type	_i.i2c_external_commands_if._chan_y.read_temperature_ok,@function
	.cc_top _i.i2c_external_commands_if._chan_y.read_temperature_ok.function,_i.i2c_external_commands_if._chan_y.read_temperature_ok
_i.i2c_external_commands_if._chan_y.read_temperature_ok:
	.cfi_startproc
	entsp 3
.Ltmp9:
	.cfi_def_cfa_offset 12
.Ltmp10:
	.cfi_offset 15, 0
	stw r4, sp[2]
.Ltmp11:
	.cfi_offset 4, -4
	stw r5, sp[1]
.Ltmp12:
	.cfi_offset 5, -8
	mov r4, r0
	ldw r0, r1[0]
	getr r5, 2
	setd res[r5], r0
	out res[r5], r5
	outct res[r5], 2
	chkct res[r5], 1
	out res[r5], r2
	outct res[r5], 2
	ldw r2, r1[1]
	ldc r1, 0
	mov r0, r5
	bl __interface_client_call_y
	ldc r2, 20
	mov r0, r5
	mov r1, r4
	bl sin_char_array
	chkct res[r5], 1
	freer res[r5]
	ldw r5, sp[1]
	ldw r4, sp[2]
	retsp 3
	# RETURN_REG_HOLDER
	.cc_bottom _i.i2c_external_commands_if._chan_y.read_temperature_ok.function
	.set	_i.i2c_external_commands_if._chan_y.read_temperature_ok.nstackwords,((_i.i2c_external_commands_if._client_call_y.max.nstackwords $M ($D __interface_client_call_y.nstackwords ? __interface_client_call_y.nstackwords $: _i.i2c_external_commands_if._client_call_y.max.nstackwords) $M sin_char_array.nstackwords) + 3)
	.globl	_i.i2c_external_commands_if._chan_y.read_temperature_ok.nstackwords
	.weak	_i.i2c_external_commands_if._chan_y.read_temperature_ok.nstackwords
	.set	_i.i2c_external_commands_if._chan_y.read_temperature_ok.maxcores,($D __interface_client_call_y.maxcores ? __interface_client_call_y.maxcores $: _i.i2c_external_commands_if._client_call_y.max.maxcores) $M sin_char_array.maxcores $M 1
	.globl	_i.i2c_external_commands_if._chan_y.read_temperature_ok.maxcores
	.weak	_i.i2c_external_commands_if._chan_y.read_temperature_ok.maxcores
	.set	_i.i2c_external_commands_if._chan_y.read_temperature_ok.maxtimers,($D __interface_client_call_y.maxtimers ? __interface_client_call_y.maxtimers $: _i.i2c_external_commands_if._client_call_y.max.maxtimers) $M sin_char_array.maxtimers $M 0
	.globl	_i.i2c_external_commands_if._chan_y.read_temperature_ok.maxtimers
	.weak	_i.i2c_external_commands_if._chan_y.read_temperature_ok.maxtimers
	.set	_i.i2c_external_commands_if._chan_y.read_temperature_ok.maxchanends,(1 + ($D __interface_client_call_y.maxchanends ? __interface_client_call_y.maxchanends $: _i.i2c_external_commands_if._client_call_y.max.maxchanends)) $M (1 + sin_char_array.maxchanends) $M 1
	.globl	_i.i2c_external_commands_if._chan_y.read_temperature_ok.maxchanends
	.weak	_i.i2c_external_commands_if._chan_y.read_temperature_ok.maxchanends
.Ltmp13:
	.size	_i.i2c_external_commands_if._chan_y.read_temperature_ok, .Ltmp13-_i.i2c_external_commands_if._chan_y.read_temperature_ok
	.cfi_endproc

	.globl	Tempchip_MCP9808_Begin_Ok
	.align	4
	.type	Tempchip_MCP9808_Begin_Ok,@function
	.cc_top Tempchip_MCP9808_Begin_Ok.function,Tempchip_MCP9808_Begin_Ok
Tempchip_MCP9808_Begin_Ok:
.Lfunc_begin4:
	.loc	1 32 0
	.cfi_startproc
.Lxtalabel0:
	entsp 3
.Ltmp14:
	.cfi_def_cfa_offset 12
.Ltmp15:
	.cfi_offset 15, 0
	stw r4, sp[2]
.Ltmp16:
	.cfi_offset 4, -4
	stw r5, sp[1]
.Ltmp17:
	.cfi_offset 5, -8
	mov r4, r1
.Ltmp18:
	mov r5, r0
.Ltmp19:
	.loc	1 35 0 prologue_end
	ldc r0, 0
	st8 r2, r4[r0]
	ldc r2, 6
.Ltmp20:
	.loc	1 37 0
	mov r0, r5
.Lxta.call_labels0:
	bl Tempchip_MCP9808_Read16
	.loc	1 38 5
	ldw r1, r4[1]
	.loc	1 38 5
	eq r1, r1, 1
	bf r1, .LBB4_3
.Ltmp21:
.Lxtalabel1:
	ldc r1, 84
	eq r0, r0, r1
	bf r0, .LBB4_3
.Ltmp22:
.Lxtalabel2:
	mkmsk r2, 3
	.loc	1 40 0
	mov r0, r5
	mov r1, r4
.Lxta.call_labels1:
	bl Tempchip_MCP9808_Read16
	.loc	1 41 9
	ldw r1, r4[1]
	.loc	1 41 9
	eq r1, r1, 1
	ldc r2, 1024
	.loc	1 41 9
	eq r0, r0, r2
	.loc	1 41 9
	and r0, r1, r0
	bu .LBB4_4
.Ltmp23:
.LBB4_3:
.Lxtalabel3:
	ldc r0, 0
.LBB4_4:
.Lxtalabel4:
	ldw r5, sp[1]
	ldw r4, sp[2]
	retsp 3
	# RETURN_REG_HOLDER
	.cc_bottom Tempchip_MCP9808_Begin_Ok.function
	.set	Tempchip_MCP9808_Begin_Ok.nstackwords,(Tempchip_MCP9808_Read16.nstackwords + 3)
	.globl	Tempchip_MCP9808_Begin_Ok.nstackwords
	.set	Tempchip_MCP9808_Begin_Ok.maxcores,Tempchip_MCP9808_Read16.maxcores $M 1
	.globl	Tempchip_MCP9808_Begin_Ok.maxcores
	.set	Tempchip_MCP9808_Begin_Ok.maxtimers,Tempchip_MCP9808_Read16.maxtimers $M 0
	.globl	Tempchip_MCP9808_Begin_Ok.maxtimers
	.set	Tempchip_MCP9808_Begin_Ok.maxchanends,Tempchip_MCP9808_Read16.maxchanends $M 0
	.globl	Tempchip_MCP9808_Begin_Ok.maxchanends
.Ltmp24:
	.size	Tempchip_MCP9808_Begin_Ok, .Ltmp24-Tempchip_MCP9808_Begin_Ok
.Lfunc_end4:
	.cfi_endproc

	.section	.cp.rodata.cst4,"aMc",@progbits,4
	.cc_top .LCPI5_0.data,.LCPI5_0
	.align	4
	.type	.LCPI5_0,@object
	.size	.LCPI5_0, 4
.LCPI5_0:
	.long	3435973837
	.cc_bottom .LCPI5_0.data
	.text
	.globl	Tempchip_MCP9808_ReadTempC
	.align	4
	.type	Tempchip_MCP9808_ReadTempC,@function
	.cc_top Tempchip_MCP9808_ReadTempC.function,Tempchip_MCP9808_ReadTempC
Tempchip_MCP9808_ReadTempC:
.Lfunc_begin5:
	.loc	1 56 0
	.cfi_startproc
.Lxtalabel5:
	entsp 3
.Ltmp25:
	.cfi_def_cfa_offset 12
.Ltmp26:
	.cfi_offset 15, 0
	stw r4, sp[2]
.Ltmp27:
	.cfi_offset 4, -4
	stw r5, sp[1]
.Ltmp28:
	.cfi_offset 5, -8
	mov r4, r2
.Ltmp29:
	mov r5, r1
.Ltmp30:
	ldc r2, 5
	.loc	1 58 0 prologue_end
.Ltmp31:
.Lxta.call_labels2:
	bl Tempchip_MCP9808_Read16
.Ltmp32:
	.loc	1 60 5
	ldw r1, r5[1]
	.loc	1 60 5
	eq r1, r1, 1
	bf r1, .LBB5_5
.Ltmp33:
.Lxtalabel6:
	ldc r1, 4096
	.loc	1 61 9
	and r1, r0, r1
	.loc	1 61 9
	bf r1, .LBB5_2
.Ltmp34:
.Lxtalabel7:
	ldc r0, 0
	.loc	1 76 0
	stw r0, r4[0]
	bu .LBB5_4
.Ltmp35:
.LBB5_5:
.Lxtalabel8:
	ldc r0, 0
	.loc	1 81 0
	stw r0, r4[0]
	ldc r0, 999
	bu .LBB5_4
.Ltmp36:
.LBB5_2:
.Lxtalabel9:
	ldc r1, 4095
	.loc	1 63 0
.Ltmp37:
	and r0, r0, r1
.Ltmp38:
	ldc r1, 100
	.loc	1 70 0
	mul r0, r0, r1
.Ltmp39:
	ldc r1, 0
	ldw r2, cp[.LCPI5_0]
	.loc	1 71 0
	lmul r0, r1, r0, r2, r1, r1
	shr r0, r0, 7
.Ltmp40:
	mkmsk r1, 1
	.loc	1 73 0
	stw r1, r4[0]
.Ltmp41:
.LBB5_4:
	sext r0, 16
	ldw r5, sp[1]
	ldw r4, sp[2]
	retsp 3
	# RETURN_REG_HOLDER
	.cc_bottom Tempchip_MCP9808_ReadTempC.function
	.set	Tempchip_MCP9808_ReadTempC.nstackwords,(Tempchip_MCP9808_Read16.nstackwords + 3)
	.globl	Tempchip_MCP9808_ReadTempC.nstackwords
	.set	Tempchip_MCP9808_ReadTempC.maxcores,Tempchip_MCP9808_Read16.maxcores $M 1
	.globl	Tempchip_MCP9808_ReadTempC.maxcores
	.set	Tempchip_MCP9808_ReadTempC.maxtimers,Tempchip_MCP9808_Read16.maxtimers $M 0
	.globl	Tempchip_MCP9808_ReadTempC.maxtimers
	.set	Tempchip_MCP9808_ReadTempC.maxchanends,Tempchip_MCP9808_Read16.maxchanends $M 0
	.globl	Tempchip_MCP9808_ReadTempC.maxchanends
.Ltmp42:
	.size	Tempchip_MCP9808_ReadTempC, .Ltmp42-Tempchip_MCP9808_ReadTempC
.Lfunc_end5:
	.cfi_endproc

	.globl	Tempchip_MCP9808_Write16
	.align	4
	.type	Tempchip_MCP9808_Write16,@function
	.cc_top Tempchip_MCP9808_Write16.function,Tempchip_MCP9808_Write16
Tempchip_MCP9808_Write16:
.Lfunc_begin6:
	.loc	1 108 0
	.cfi_startproc
.Lxtalabel10:
	entsp 7
.Ltmp43:
	.cfi_def_cfa_offset 28
.Ltmp44:
	.cfi_offset 15, 0
	stw r4, sp[6]
.Ltmp45:
	.cfi_offset 4, -4
	stw r5, sp[5]
.Ltmp46:
	.cfi_offset 5, -8
	stw r6, sp[4]
.Ltmp47:
	.cfi_offset 6, -12
.Ltmp48:
	mov r4, r1
.Ltmp49:
	.loc	1 113 0 prologue_end
	ldc r5, 0
.Ltmp50:
	.loc	1 109 0
	ld8u r1, r4[r5]
	.loc	1 111 0
.Ltmp51:
	shr r6, r3, 8
	ldaw r11, sp[3]
	.loc	1 113 0
.Ltmp52:
	st8 r6, r11[r5]
	mkmsk r6, 1
	.loc	1 113 0
	or r6, r11, r6
	.loc	1 113 0
	st8 r3, r6[r5]
.Ltmp53:
	ldc r3, 2
.Ltmp54:
	.loc	1 116 0
	stw r3, sp[2]
	stw r0, sp[1]
	mov r0, r1
.Ltmp55:
	mov r1, r2
.Ltmp56:
	mov r2, r11
.Lxta.call_labels3:
	bl i2c_master_write_reg
.Ltmp57:
	.loc	1 116 0
	stw r0, r4[1]
	ldw r6, sp[4]
	ldw r5, sp[5]
	ldw r4, sp[6]
.Ltmp58:
	retsp 7
	# RETURN_REG_HOLDER
.Ltmp59:
	.cc_bottom Tempchip_MCP9808_Write16.function
	.set	Tempchip_MCP9808_Write16.nstackwords,(i2c_master_write_reg.nstackwords + 7)
	.globl	Tempchip_MCP9808_Write16.nstackwords
	.set	Tempchip_MCP9808_Write16.maxcores,i2c_master_write_reg.maxcores $M 1
	.globl	Tempchip_MCP9808_Write16.maxcores
	.set	Tempchip_MCP9808_Write16.maxtimers,i2c_master_write_reg.maxtimers $M 0
	.globl	Tempchip_MCP9808_Write16.maxtimers
	.set	Tempchip_MCP9808_Write16.maxchanends,i2c_master_write_reg.maxchanends $M 0
	.globl	Tempchip_MCP9808_Write16.maxchanends
.Ltmp60:
	.size	Tempchip_MCP9808_Write16, .Ltmp60-Tempchip_MCP9808_Write16
.Lfunc_end6:
	.cfi_endproc

	.globl	Tempchip_MCP9808_Read16
	.align	4
	.type	Tempchip_MCP9808_Read16,@function
	.cc_top Tempchip_MCP9808_Read16.function,Tempchip_MCP9808_Read16
Tempchip_MCP9808_Read16:
.Lfunc_begin7:
	.loc	1 121 0
	.cfi_startproc
.Lxtalabel11:
	entsp 7
.Ltmp61:
	.cfi_def_cfa_offset 28
.Ltmp62:
	.cfi_offset 15, 0
	stw r4, sp[6]
.Ltmp63:
	.cfi_offset 4, -4
	stw r5, sp[5]
.Ltmp64:
	.cfi_offset 5, -8
	stw r6, sp[4]
.Ltmp65:
	.cfi_offset 6, -12
.Ltmp66:
	mov r4, r1
.Ltmp67:
	.loc	1 133 0 prologue_end
	ldc r6, 0
.Ltmp68:
	.loc	1 122 0
	ld8u r1, r4[r6]
	ldaw r5, sp[3]
	.loc	1 124 0
.Ltmp69:
	st16 r6, r5[r6]
.Ltmp70:
	ldc r3, 2
	.loc	1 128 0
.Ltmp71:
	stw r3, sp[2]
	stw r0, sp[1]
	mov r0, r1
.Ltmp72:
	mov r1, r2
.Ltmp73:
	mov r2, r5
.Lxta.call_labels4:
	bl i2c_master_read_reg
.Ltmp74:
	.loc	1 128 0
	stw r0, r4[1]
	.loc	1 133 0
.Ltmp75:
	ld16s r0, r5[r6]
	zext r0, 16
	.loc	1 133 0
	shl r1, r0, 8
	shr r0, r0, 8
	.loc	1 135 0
.Ltmp76:
	or r0, r1, r0
	zext r0, 16
	ldw r6, sp[4]
	ldw r5, sp[5]
	ldw r4, sp[6]
.Ltmp77:
	retsp 7
	# RETURN_REG_HOLDER
.Ltmp78:
	.cc_bottom Tempchip_MCP9808_Read16.function
	.set	Tempchip_MCP9808_Read16.nstackwords,(i2c_master_read_reg.nstackwords + 7)
	.globl	Tempchip_MCP9808_Read16.nstackwords
	.set	Tempchip_MCP9808_Read16.maxcores,i2c_master_read_reg.maxcores $M 1
	.globl	Tempchip_MCP9808_Read16.maxcores
	.set	Tempchip_MCP9808_Read16.maxtimers,i2c_master_read_reg.maxtimers $M 0
	.globl	Tempchip_MCP9808_Read16.maxtimers
	.set	Tempchip_MCP9808_Read16.maxchanends,i2c_master_read_reg.maxchanends $M 0
	.globl	Tempchip_MCP9808_Read16.maxchanends
.Ltmp79:
	.size	Tempchip_MCP9808_Read16, .Ltmp79-Tempchip_MCP9808_Read16
.Lfunc_end7:
	.cfi_endproc

	.globl	Tempchip_MCP9808_Shutdown_Wake_Ok
	.align	4
	.type	Tempchip_MCP9808_Shutdown_Wake_Ok,@function
	.cc_top Tempchip_MCP9808_Shutdown_Wake_Ok.function,Tempchip_MCP9808_Shutdown_Wake_Ok
Tempchip_MCP9808_Shutdown_Wake_Ok:
.Lfunc_begin8:
	.loc	1 89 0
	.cfi_startproc
.Lxtalabel12:
	entsp 8
.Ltmp80:
	.cfi_def_cfa_offset 32
.Ltmp81:
	.cfi_offset 15, 0
	stw r4, sp[7]
.Ltmp82:
	.cfi_offset 4, -4
	stw r5, sp[6]
.Ltmp83:
	.cfi_offset 5, -8
	stw r6, sp[5]
.Ltmp84:
	.cfi_offset 6, -12
	stw r7, sp[4]
.Ltmp85:
	.cfi_offset 7, -16
	mov r7, r2
.Ltmp86:
	mov r4, r1
.Ltmp87:
	mov r6, r0
.Ltmp88:
	mkmsk r5, 1
	.loc	1 92 0 prologue_end
.Ltmp89:
	mov r2, r5
.Lxta.call_labels5:
	bl Tempchip_MCP9808_Read16
	.loc	1 94 5
	ldw r1, r4[1]
	.loc	1 94 5
	eq r1, r1, 1
	bf r1, .LBB8_1
.Ltmp90:
.Lxtalabel13:
	ldc r1, 256
	.loc	1 95 9
	bf r7, .LBB8_4
.Ltmp91:
.Lxtalabel14:
	.loc	1 96 0
	or r2, r0, r1
	bu .LBB8_5
.LBB8_1:
	ldc r0, 0
	bu .LBB8_6
.LBB8_4:
.Lxtalabel15:
	.loc	1 99 0
	xor r2, r0, r1
.LBB8_5:
.Ltmp92:
	.loc	1 113 0
	ldc r3, 0
.Ltmp93:
	.loc	1 109 0
	ld8u r1, r4[r3]
.Ltmp94:
	.loc	1 111 0
	shr r11, r2, 8
	ldaw r2, sp[3]
.Ltmp95:
	.loc	1 113 0
	st8 r11, r2[r3]
	.loc	1 113 0
	or r11, r2, r5
	.loc	1 113 0
	st8 r0, r11[r3]
.Ltmp96:
	ldc r3, 2
	.loc	1 116 0
.Ltmp97:
	stw r3, sp[2]
.Ltmp98:
	stw r6, sp[1]
	mov r0, r1
	mov r1, r5
.Lxta.call_labels6:
	bl i2c_master_write_reg
.Ltmp99:
	.loc	1 116 0
	stw r0, r4[1]
.Ltmp100:
	.loc	1 102 9
	eq r0, r0, 1
.Ltmp101:
.LBB8_6:
	ldw r7, sp[4]
	ldw r6, sp[5]
	ldw r5, sp[6]
	ldw r4, sp[7]
	retsp 8
	# RETURN_REG_HOLDER
	.cc_bottom Tempchip_MCP9808_Shutdown_Wake_Ok.function
	.set	Tempchip_MCP9808_Shutdown_Wake_Ok.nstackwords,((Tempchip_MCP9808_Read16.nstackwords $M i2c_master_write_reg.nstackwords) + 8)
	.globl	Tempchip_MCP9808_Shutdown_Wake_Ok.nstackwords
	.set	Tempchip_MCP9808_Shutdown_Wake_Ok.maxcores,Tempchip_MCP9808_Read16.maxcores $M i2c_master_write_reg.maxcores $M 1
	.globl	Tempchip_MCP9808_Shutdown_Wake_Ok.maxcores
	.set	Tempchip_MCP9808_Shutdown_Wake_Ok.maxtimers,Tempchip_MCP9808_Read16.maxtimers $M i2c_master_write_reg.maxtimers $M 0
	.globl	Tempchip_MCP9808_Shutdown_Wake_Ok.maxtimers
	.set	Tempchip_MCP9808_Shutdown_Wake_Ok.maxchanends,Tempchip_MCP9808_Read16.maxchanends $M i2c_master_write_reg.maxchanends $M 0
	.globl	Tempchip_MCP9808_Shutdown_Wake_Ok.maxchanends
.Ltmp102:
	.size	Tempchip_MCP9808_Shutdown_Wake_Ok, .Ltmp102-Tempchip_MCP9808_Shutdown_Wake_Ok
.Lfunc_end8:
	.cfi_endproc

.Ldebug_end0:
	.file	2 "/Applications/XMOS_xTIMEcomposer_Community_14.2.4/target/include/timer.h"
	.file	3 "/Applications/XMOS_xTIMEcomposer_Community_14.2.4/target/include/xc/safe/string.h"
	.section	.xtacalltable,"",@progbits
.Lentries_start0:
	.long	.Lentries_end1-.Lentries_start0
	.long	0
	.ascii	"/Users/teig/workspace/_Aquarium_1_x/.build"
	.byte	0
.cc_top cc_0,.Lxta.call_labels0
	.ascii	"../src/tempchip_mcp9808.xc"
	.byte	0
	.long	37
	.long	.Lxta.call_labels0
.cc_bottom cc_0
.cc_top cc_1,.Lxta.call_labels1
	.ascii	"../src/tempchip_mcp9808.xc"
	.byte	0
	.long	40
	.long	.Lxta.call_labels1
.cc_bottom cc_1
.cc_top cc_2,.Lxta.call_labels2
	.ascii	"../src/tempchip_mcp9808.xc"
	.byte	0
	.long	58
	.long	.Lxta.call_labels2
.cc_bottom cc_2
.cc_top cc_3,.Lxta.call_labels5
	.ascii	"../src/tempchip_mcp9808.xc"
	.byte	0
	.long	92
	.long	.Lxta.call_labels5
.cc_bottom cc_3
.cc_top cc_4,.Lxta.call_labels3
	.ascii	"../src/tempchip_mcp9808.xc"
	.byte	0
	.long	117
	.long	.Lxta.call_labels3
.cc_bottom cc_4
.cc_top cc_5,.Lxta.call_labels6
	.ascii	"../src/tempchip_mcp9808.xc"
	.byte	0
	.long	117
	.long	.Lxta.call_labels6
.cc_bottom cc_5
.cc_top cc_6,.Lxta.call_labels4
	.ascii	"../src/tempchip_mcp9808.xc"
	.byte	0
	.long	129
	.long	.Lxta.call_labels4
.cc_bottom cc_6
.Lentries_end1:
	.section	.xtalabeltable,"",@progbits
.Lentries_start2:
	.long	.Lentries_end3-.Lentries_start2
	.long	0
	.ascii	"/Users/teig/workspace/_Aquarium_1_x/.build"
	.byte	0
.cc_top cc_7,.Lxtalabel0
	.ascii	"../src/tempchip_mcp9808.xc"
	.byte	0
	.long	34
	.long	35
	.long	.Lxtalabel0
.cc_bottom cc_7
.cc_top cc_8,.Lxtalabel1
	.ascii	"../src/tempchip_mcp9808.xc"
	.byte	0
	.long	34
	.long	35
	.long	.Lxtalabel1
.cc_bottom cc_8
.cc_top cc_9,.Lxtalabel0
	.ascii	"../src/tempchip_mcp9808.xc"
	.byte	0
	.long	37
	.long	38
	.long	.Lxtalabel0
.cc_bottom cc_9
.cc_top cc_10,.Lxtalabel1
	.ascii	"../src/tempchip_mcp9808.xc"
	.byte	0
	.long	37
	.long	38
	.long	.Lxtalabel1
.cc_bottom cc_10
.cc_top cc_11,.Lxtalabel2
	.ascii	"../src/tempchip_mcp9808.xc"
	.byte	0
	.long	40
	.long	41
	.long	.Lxtalabel2
.cc_bottom cc_11
.cc_top cc_12,.Lxtalabel2
	.ascii	"../src/tempchip_mcp9808.xc"
	.byte	0
	.long	42
	.long	43
	.long	.Lxtalabel2
.cc_bottom cc_12
.cc_top cc_13,.Lxtalabel2
	.ascii	"../src/tempchip_mcp9808.xc"
	.byte	0
	.long	44
	.long	45
	.long	.Lxtalabel2
.cc_bottom cc_13
.cc_top cc_14,.Lxtalabel3
	.ascii	"../src/tempchip_mcp9808.xc"
	.byte	0
	.long	47
	.long	48
	.long	.Lxtalabel3
.cc_bottom cc_14
.cc_top cc_15,.Lxtalabel4
	.ascii	"../src/tempchip_mcp9808.xc"
	.byte	0
	.long	47
	.long	48
	.long	.Lxtalabel4
.cc_bottom cc_15
.cc_top cc_16,.Lxtalabel5
	.ascii	"../src/tempchip_mcp9808.xc"
	.byte	0
	.long	58
	.long	58
	.long	.Lxtalabel5
.cc_bottom cc_16
.cc_top cc_17,.Lxtalabel5
	.ascii	"../src/tempchip_mcp9808.xc"
	.byte	0
	.long	60
	.long	60
	.long	.Lxtalabel5
.cc_bottom cc_17
.cc_top cc_18,.Lxtalabel6
	.ascii	"../src/tempchip_mcp9808.xc"
	.byte	0
	.long	61
	.long	61
	.long	.Lxtalabel6
.cc_bottom cc_18
.cc_top cc_19,.Lxtalabel9
	.ascii	"../src/tempchip_mcp9808.xc"
	.byte	0
	.long	63
	.long	63
	.long	.Lxtalabel9
.cc_bottom cc_19
.cc_top cc_20,.Lxtalabel9
	.ascii	"../src/tempchip_mcp9808.xc"
	.byte	0
	.long	70
	.long	71
	.long	.Lxtalabel9
.cc_bottom cc_20
.cc_top cc_21,.Lxtalabel9
	.ascii	"../src/tempchip_mcp9808.xc"
	.byte	0
	.long	73
	.long	75
	.long	.Lxtalabel9
.cc_bottom cc_21
.cc_top cc_22,.Lxtalabel7
	.ascii	"../src/tempchip_mcp9808.xc"
	.byte	0
	.long	76
	.long	78
	.long	.Lxtalabel7
.cc_bottom cc_22
.cc_top cc_23,.Lxtalabel8
	.ascii	"../src/tempchip_mcp9808.xc"
	.byte	0
	.long	80
	.long	83
	.long	.Lxtalabel8
.cc_bottom cc_23
.cc_top cc_24,.Lxtalabel12
	.ascii	"../src/tempchip_mcp9808.xc"
	.byte	0
	.long	91
	.long	92
	.long	.Lxtalabel12
.cc_bottom cc_24
.cc_top cc_25,.Lxtalabel12
	.ascii	"../src/tempchip_mcp9808.xc"
	.byte	0
	.long	94
	.long	94
	.long	.Lxtalabel12
.cc_bottom cc_25
.cc_top cc_26,.Lxtalabel13
	.ascii	"../src/tempchip_mcp9808.xc"
	.byte	0
	.long	95
	.long	95
	.long	.Lxtalabel13
.cc_bottom cc_26
.cc_top cc_27,.Lxtalabel14
	.ascii	"../src/tempchip_mcp9808.xc"
	.byte	0
	.long	96
	.long	98
	.long	.Lxtalabel14
.cc_bottom cc_27
.cc_top cc_28,.Lxtalabel15
	.ascii	"../src/tempchip_mcp9808.xc"
	.byte	0
	.long	99
	.long	101
	.long	.Lxtalabel15
.cc_bottom cc_28
.cc_top cc_29,.Lxtalabel12
	.ascii	"../src/tempchip_mcp9808.xc"
	.byte	0
	.long	104
	.long	105
	.long	.Lxtalabel12
.cc_bottom cc_29
.cc_top cc_30,.Lxtalabel14
	.ascii	"../src/tempchip_mcp9808.xc"
	.byte	0
	.long	109
	.long	114
	.long	.Lxtalabel14
.cc_bottom cc_30
.cc_top cc_31,.Lxtalabel10
	.ascii	"../src/tempchip_mcp9808.xc"
	.byte	0
	.long	109
	.long	114
	.long	.Lxtalabel10
.cc_bottom cc_31
.cc_top cc_32,.Lxtalabel15
	.ascii	"../src/tempchip_mcp9808.xc"
	.byte	0
	.long	109
	.long	114
	.long	.Lxtalabel15
.cc_bottom cc_32
.cc_top cc_33,.Lxtalabel15
	.ascii	"../src/tempchip_mcp9808.xc"
	.byte	0
	.long	116
	.long	117
	.long	.Lxtalabel15
.cc_bottom cc_33
.cc_top cc_34,.Lxtalabel14
	.ascii	"../src/tempchip_mcp9808.xc"
	.byte	0
	.long	116
	.long	117
	.long	.Lxtalabel14
.cc_bottom cc_34
.cc_top cc_35,.Lxtalabel10
	.ascii	"../src/tempchip_mcp9808.xc"
	.byte	0
	.long	116
	.long	117
	.long	.Lxtalabel10
.cc_bottom cc_35
.cc_top cc_36,.Lxtalabel15
	.ascii	"../src/tempchip_mcp9808.xc"
	.byte	0
	.long	118
	.long	118
	.long	.Lxtalabel15
.cc_bottom cc_36
.cc_top cc_37,.Lxtalabel10
	.ascii	"../src/tempchip_mcp9808.xc"
	.byte	0
	.long	118
	.long	118
	.long	.Lxtalabel10
.cc_bottom cc_37
.cc_top cc_38,.Lxtalabel14
	.ascii	"../src/tempchip_mcp9808.xc"
	.byte	0
	.long	118
	.long	118
	.long	.Lxtalabel14
.cc_bottom cc_38
.cc_top cc_39,.Lxtalabel10
	.ascii	"../src/tempchip_mcp9808.xc"
	.byte	0
	.long	119
	.long	119
	.long	.Lxtalabel10
.cc_bottom cc_39
.cc_top cc_40,.Lxtalabel14
	.ascii	"../src/tempchip_mcp9808.xc"
	.byte	0
	.long	119
	.long	119
	.long	.Lxtalabel14
.cc_bottom cc_40
.cc_top cc_41,.Lxtalabel15
	.ascii	"../src/tempchip_mcp9808.xc"
	.byte	0
	.long	119
	.long	119
	.long	.Lxtalabel15
.cc_bottom cc_41
.cc_top cc_42,.Lxtalabel11
	.ascii	"../src/tempchip_mcp9808.xc"
	.byte	0
	.long	122
	.long	126
	.long	.Lxtalabel11
.cc_bottom cc_42
.cc_top cc_43,.Lxtalabel11
	.ascii	"../src/tempchip_mcp9808.xc"
	.byte	0
	.long	128
	.long	129
	.long	.Lxtalabel11
.cc_bottom cc_43
.cc_top cc_44,.Lxtalabel11
	.ascii	"../src/tempchip_mcp9808.xc"
	.byte	0
	.long	130
	.long	130
	.long	.Lxtalabel11
.cc_bottom cc_44
.cc_top cc_45,.Lxtalabel11
	.ascii	"../src/tempchip_mcp9808.xc"
	.byte	0
	.long	133
	.long	135
	.long	.Lxtalabel11
.cc_bottom cc_45
.cc_top cc_46,.Lxtalabel11
	.ascii	"../src/tempchip_mcp9808.xc"
	.byte	0
	.long	137
	.long	137
	.long	.Lxtalabel11
.cc_bottom cc_46
.cc_top cc_47,.Lxtalabel11
	.ascii	"../src/tempchip_mcp9808.xc"
	.byte	0
	.long	139
	.long	140
	.long	.Lxtalabel11
.cc_bottom cc_47
.Lentries_end3:
	.section	.trap_info,"",@progbits
.Ltrap_info_entries_start0:
	.long	.Ltrap_info_entries_end0-.Ltrap_info_entries_start0
	.long	1
.Ltrap_info_entries_end0: